	.def	@feat.00;
	.scl	3;
	.type	0;
	.endef
	.globl	@feat.00
.set @feat.00, 0
	.file	"test"
	.def	__$startup_runtime;
	.scl	2;
	.type	32;
	.endef
	.text
	.weak	__$startup_runtime
	.p2align	4
__$startup_runtime:
.seh_proc __$startup_runtime
	subq	$40, %rsp
	.seh_stackalloc 40
	.seh_endprologue
	jmp	.LBB0_1
.LBB0_1:
	callq	"__$startup$os::args"
	callq	"os::get_std_handle"
	movq	%rax, "os::stdout"(%rip)
	addq	$40, %rsp
	retq
	.seh_endproc

	.def	"__$equal-15812508462912702808";
	.scl	3;
	.type	32;
	.endef
	.p2align	4
"__$equal-15812508462912702808":
	pushq	%rsi
	pushq	%rdi
	pushq	%rbx
	subq	$32, %rsp
	movb	$1, %sil
	cmpq	%rdx, %rcx
	je	.LBB1_6
	movq	%rdx, %rdi
	movq	%rcx, %rbx
	callq	"runtime::string_eq"
	testb	$1, %al
	je	.LBB1_5
	movl	16(%rbx), %eax
	cmpl	16(%rdi), %eax
	jne	.LBB1_5
	movl	20(%rbx), %eax
	cmpl	20(%rdi), %eax
	jne	.LBB1_5
	addq	$24, %rbx
	addq	$24, %rdi
	movq	%rbx, %rcx
	movq	%rdi, %rdx
	callq	"runtime::string_eq"
	testb	$1, %al
	jne	.LBB1_6
.LBB1_5:
	xorl	%esi, %esi
.LBB1_6:
	movl	%esi, %eax
	addq	$32, %rsp
	popq	%rbx
	popq	%rdi
	popq	%rsi
	retq

	.def	"__$equal-13589165356219457510";
	.scl	3;
	.type	32;
	.endef
	.p2align	4
"__$equal-13589165356219457510":
	movb	$1, %al
	cmpq	%rdx, %rcx
	je	.LBB2_8
	movq	8(%rcx), %r8
	cmpq	8(%rdx), %r8
	jne	.LBB2_7
	cmpq	$5, %r8
	ja	.LBB2_7
	leaq	.LJTI2_0(%rip), %r9
	movslq	(%r9,%r8,4), %r8
	addq	%r9, %r8
	jmpq	*%r8
.LBB2_4:
	movq	(%rcx), %r8
	cmpq	(%rdx), %r8
	jne	.LBB2_7
.LBB2_5:
	movl	16(%rcx), %r8d
	cmpl	16(%rdx), %r8d
	jne	.LBB2_7
	movq	24(%rcx), %rcx
	cmpq	24(%rdx), %rcx
	je	.LBB2_8
.LBB2_7:
	xorl	%eax, %eax
.LBB2_8:
	retq
	.section	.rdata,"dr"
	.p2align	2, 0x0
.LJTI2_0:
	.long	.LBB2_5-.LJTI2_0
	.long	.LBB2_4-.LJTI2_0
	.long	.LBB2_4-.LJTI2_0
	.long	.LBB2_4-.LJTI2_0
	.long	.LBB2_4-.LJTI2_0
	.long	.LBB2_4-.LJTI2_0

	.def	"__$equal-4958921915144382344";
	.scl	3;
	.type	32;
	.endef
	.text
	.p2align	4
"__$equal-4958921915144382344":
	movb	$1, %al
	cmpq	%rdx, %rcx
	je	.LBB3_6
	movq	8(%rcx), %r8
	cmpq	8(%rdx), %r8
	jne	.LBB3_5
	cmpq	$5, %r8
	ja	.LBB3_5
	leaq	.LJTI3_0(%rip), %r9
	movslq	(%r9,%r8,4), %r8
	addq	%r9, %r8
	jmpq	*%r8
.LBB3_4:
	movq	(%rcx), %rax
	cmpq	(%rdx), %rax
	sete	%al
	retq
.LBB3_5:
	xorl	%eax, %eax
.LBB3_6:
	retq
	.section	.rdata,"dr"
	.p2align	2, 0x0
.LJTI3_0:
	.long	.LBB3_6-.LJTI3_0
	.long	.LBB3_4-.LJTI3_0
	.long	.LBB3_4-.LJTI3_0
	.long	.LBB3_4-.LJTI3_0
	.long	.LBB3_4-.LJTI3_0
	.long	.LBB3_4-.LJTI3_0

	.def	"__$equal-9087421314277022230";
	.scl	3;
	.type	32;
	.endef
	.text
	.p2align	4
"__$equal-9087421314277022230":
	cmpq	%rdx, %rcx
	je	.LBB4_17
	movq	8(%rcx), %rax
	cmpq	8(%rdx), %rax
	jne	.LBB4_5
	cmpq	$5, %rax
	ja	.LBB4_5
	leaq	.LJTI4_0(%rip), %r8
	movslq	(%r8,%rax,4), %rax
	addq	%r8, %rax
	jmpq	*%rax
.LBB4_4:
	movq	(%rcx), %rax
	cmpq	(%rdx), %rax
	jne	.LBB4_5
.LBB4_10:
	movl	16(%rcx), %eax
	cmpl	16(%rdx), %eax
	jne	.LBB4_5
	vmovdqu	24(%rcx), %xmm0
	vpxor	24(%rdx), %xmm0, %xmm0
	vptest	%xmm0, %xmm0
	jne	.LBB4_5
	movl	40(%rcx), %eax
	cmpl	40(%rdx), %eax
	jne	.LBB4_5
	movzbl	44(%rcx), %eax
	cmpb	44(%rdx), %al
	jne	.LBB4_5
	movzbl	45(%rcx), %eax
	cmpb	45(%rdx), %al
	jne	.LBB4_5
	movzbl	46(%rcx), %eax
	cmpb	46(%rdx), %al
	jne	.LBB4_5
	movzbl	47(%rcx), %eax
	cmpb	47(%rdx), %al
	sete	%al
	retq
.LBB4_5:
	xorl	%eax, %eax
	retq
.LBB4_17:
	movb	$1, %al
	retq
	.section	.rdata,"dr"
	.p2align	2, 0x0
.LJTI4_0:
	.long	.LBB4_10-.LJTI4_0
	.long	.LBB4_4-.LJTI4_0
	.long	.LBB4_4-.LJTI4_0
	.long	.LBB4_4-.LJTI4_0
	.long	.LBB4_4-.LJTI4_0
	.long	.LBB4_4-.LJTI4_0

	.def	"__$equal-10243842089384952270";
	.scl	3;
	.type	32;
	.endef
	.text
	.p2align	4
"__$equal-10243842089384952270":
	pushq	%rsi
	pushq	%rdi
	pushq	%rbx
	subq	$32, %rsp
	movb	$1, %sil
	cmpq	%rdx, %rcx
	je	.LBB5_6
	movq	%rdx, %rdi
	movq	%rcx, %rbx
	callq	"runtime::string_eq"
	testb	$1, %al
	je	.LBB5_5
	movq	16(%rbx), %rax
	cmpq	16(%rdi), %rax
	jne	.LBB5_5
	leaq	24(%rbx), %rcx
	leaq	24(%rdi), %rdx
	callq	"runtime::string_eq"
	testb	$1, %al
	je	.LBB5_5
	movq	40(%rbx), %rax
	cmpq	40(%rdi), %rax
	je	.LBB5_6
.LBB5_5:
	xorl	%esi, %esi
.LBB5_6:
	movl	%esi, %eax
	addq	$32, %rsp
	popq	%rbx
	popq	%rdi
	popq	%rsi
	retq

	.def	"__$equal-3602662949261365688";
	.scl	3;
	.type	32;
	.endef
	.p2align	4
"__$equal-3602662949261365688":
	movb	$1, %al
	cmpq	%rdx, %rcx
	je	.LBB6_6
	movl	4(%rcx), %r8d
	cmpl	4(%rdx), %r8d
	jne	.LBB6_5
	cmpl	$4, %r8d
	ja	.LBB6_5
	movl	%r8d, %r8d
	leaq	.LJTI6_0(%rip), %r9
	movslq	(%r9,%r8,4), %r8
	addq	%r9, %r8
	jmpq	*%r8
.LBB6_4:
	movl	(%rcx), %eax
	cmpl	(%rdx), %eax
	sete	%al
	retq
.LBB6_5:
	xorl	%eax, %eax
.LBB6_6:
	retq
.LBB6_7:
	movzbl	(%rcx), %eax
	cmpb	(%rdx), %al
	sete	%al
	retq
	.section	.rdata,"dr"
	.p2align	2, 0x0
.LJTI6_0:
	.long	.LBB6_6-.LJTI6_0
	.long	.LBB6_4-.LJTI6_0
	.long	.LBB6_4-.LJTI6_0
	.long	.LBB6_7-.LJTI6_0
	.long	.LBB6_4-.LJTI6_0

	.def	"__$equal-4654217836858404045";
	.scl	3;
	.type	32;
	.endef
	.text
	.p2align	4
"__$equal-4654217836858404045":
	pushq	%rsi
	subq	$32, %rsp
	movb	$1, %sil
	cmpq	%rdx, %rcx
	je	.LBB7_14
	movq	8(%rcx), %rax
	cmpq	8(%rdx), %rax
	jne	.LBB7_13
	cmpq	$5, %rax
	ja	.LBB7_13
	leaq	.LJTI7_0(%rip), %r8
	movslq	(%r8,%rax,4), %rax
	addq	%r8, %rax
	jmpq	*%rax
.LBB7_4:
	movq	(%rcx), %rax
	cmpq	(%rdx), %rax
	jne	.LBB7_13
.LBB7_5:
	movl	16(%rcx), %eax
	cmpl	16(%rdx), %eax
	jne	.LBB7_13
	movq	24(%rcx), %rax
	cmpq	24(%rdx), %rax
	jne	.LBB7_13
	movq	32(%rdx), %rax
	cmpq	%rax, 32(%rcx)
	jne	.LBB7_13
	movzbl	40(%rcx), %eax
	cmpb	40(%rdx), %al
	jne	.LBB7_13
	movzbl	41(%rcx), %eax
	cmpb	41(%rdx), %al
	jne	.LBB7_13
	movzbl	42(%rcx), %eax
	cmpb	42(%rdx), %al
	jne	.LBB7_13
	movzbl	43(%rcx), %eax
	cmpb	43(%rdx), %al
	jne	.LBB7_13
	addq	$48, %rcx
	addq	$48, %rdx
	callq	"runtime::string_eq"
	testb	$1, %al
	jne	.LBB7_14
.LBB7_13:
	xorl	%esi, %esi
.LBB7_14:
	movl	%esi, %eax
	addq	$32, %rsp
	popq	%rsi
	retq
	.section	.rdata,"dr"
	.p2align	2, 0x0
.LJTI7_0:
	.long	.LBB7_5-.LJTI7_0
	.long	.LBB7_4-.LJTI7_0
	.long	.LBB7_4-.LJTI7_0
	.long	.LBB7_4-.LJTI7_0
	.long	.LBB7_4-.LJTI7_0
	.long	.LBB7_4-.LJTI7_0

	.def	"__$equal-2428190494159233934";
	.scl	3;
	.type	32;
	.endef
	.text
	.p2align	4
"__$equal-2428190494159233934":
	cmpq	%rdx, %rcx
	je	.LBB8_12
	movq	8(%rcx), %rax
	cmpq	8(%rdx), %rax
	jne	.LBB8_5
	cmpq	$5, %rax
	ja	.LBB8_5
	leaq	.LJTI8_0(%rip), %r8
	movslq	(%r8,%rax,4), %rax
	addq	%r8, %rax
	jmpq	*%rax
.LBB8_4:
	movq	(%rcx), %rax
	cmpq	(%rdx), %rax
	jne	.LBB8_5
.LBB8_10:
	movl	16(%rcx), %eax
	cmpl	16(%rdx), %eax
	jne	.LBB8_5
	vmovdqu	24(%rcx), %xmm0
	vpxor	24(%rdx), %xmm0, %xmm0
	vptest	%xmm0, %xmm0
	sete	%al
	retq
.LBB8_5:
	xorl	%eax, %eax
	retq
.LBB8_12:
	movb	$1, %al
	retq
	.section	.rdata,"dr"
	.p2align	2, 0x0
.LJTI8_0:
	.long	.LBB8_10-.LJTI8_0
	.long	.LBB8_4-.LJTI8_0
	.long	.LBB8_4-.LJTI8_0
	.long	.LBB8_4-.LJTI8_0
	.long	.LBB8_4-.LJTI8_0
	.long	.LBB8_4-.LJTI8_0

	.def	"__$equal-539981139989470407";
	.scl	3;
	.type	32;
	.endef
	.text
	.p2align	4
"__$equal-539981139989470407":
	movb	$1, %al
	cmpq	%rdx, %rcx
	je	.LBB9_7
	movq	8(%rcx), %r8
	cmpq	8(%rdx), %r8
	jne	.LBB9_6
	cmpq	$5, %r8
	ja	.LBB9_6
	leaq	.LJTI9_0(%rip), %r9
	movslq	(%r9,%r8,4), %r8
	addq	%r9, %r8
	jmpq	*%r8
.LBB9_4:
	movq	(%rcx), %r8
	cmpq	(%rdx), %r8
	jne	.LBB9_6
.LBB9_5:
	movl	16(%rcx), %ecx
	cmpl	16(%rdx), %ecx
	je	.LBB9_7
.LBB9_6:
	xorl	%eax, %eax
.LBB9_7:
	retq
	.section	.rdata,"dr"
	.p2align	2, 0x0
.LJTI9_0:
	.long	.LBB9_5-.LJTI9_0
	.long	.LBB9_4-.LJTI9_0
	.long	.LBB9_4-.LJTI9_0
	.long	.LBB9_4-.LJTI9_0
	.long	.LBB9_4-.LJTI9_0
	.long	.LBB9_4-.LJTI9_0

	.def	"__$equal-14727287807050578383";
	.scl	3;
	.type	32;
	.endef
	.text
	.p2align	4
"__$equal-14727287807050578383":
	cmpq	%rdx, %rcx
	je	.LBB10_16
	movq	8(%rcx), %rax
	cmpq	8(%rdx), %rax
	jne	.LBB10_5
	cmpq	$5, %rax
	ja	.LBB10_5
	leaq	.LJTI10_0(%rip), %r8
	movslq	(%r8,%rax,4), %rax
	addq	%r8, %rax
	jmpq	*%rax
.LBB10_4:
	movq	(%rcx), %rax
	cmpq	(%rdx), %rax
	jne	.LBB10_5
.LBB10_10:
	movl	16(%rcx), %eax
	cmpl	16(%rdx), %eax
	jne	.LBB10_5
	vmovdqu	24(%rcx), %xmm0
	vpxor	24(%rdx), %xmm0, %xmm0
	vptest	%xmm0, %xmm0
	jne	.LBB10_5
	movzbl	40(%rcx), %eax
	cmpb	40(%rdx), %al
	jne	.LBB10_5
	movzbl	41(%rcx), %eax
	cmpb	41(%rdx), %al
	jne	.LBB10_5
	movzbl	42(%rcx), %eax
	cmpb	42(%rdx), %al
	jne	.LBB10_5
	movzbl	43(%rcx), %eax
	cmpb	43(%rdx), %al
	sete	%al
	retq
.LBB10_5:
	xorl	%eax, %eax
	retq
.LBB10_16:
	movb	$1, %al
	retq
	.section	.rdata,"dr"
	.p2align	2, 0x0
.LJTI10_0:
	.long	.LBB10_10-.LJTI10_0
	.long	.LBB10_4-.LJTI10_0
	.long	.LBB10_4-.LJTI10_0
	.long	.LBB10_4-.LJTI10_0
	.long	.LBB10_4-.LJTI10_0
	.long	.LBB10_4-.LJTI10_0

	.def	"__$startup$os::args";
	.scl	2;
	.type	32;
	.endef
	.text
	.weak	"__$startup$os::args"
	.p2align	4
"__$startup$os::args":
.seh_proc "__$startup$os::args"
	pushq	%r15
	.seh_pushreg %r15
	pushq	%r14
	.seh_pushreg %r14
	pushq	%r13
	.seh_pushreg %r13
	pushq	%r12
	.seh_pushreg %r12
	pushq	%rsi
	.seh_pushreg %rsi
	pushq	%rdi
	.seh_pushreg %rdi
	pushq	%rbp
	.seh_pushreg %rbp
	pushq	%rbx
	.seh_pushreg %rbx
	subq	$264, %rsp
	.seh_stackalloc 264
	vmovaps	%xmm6, 240(%rsp)
	.seh_savexmm %xmm6, 240
	.seh_endprologue
	leaq	"runtime::heap_allocator_proc"(%rip), %rax
	movq	%rax, 128(%rsp)
	movq	$0, 136(%rsp)
	leaq	"runtime::default_temp_allocator_proc"(%rip), %rax
	movq	%rax, 144(%rsp)
	movl	_tls_index(%rip), %eax
	movq	%gs:88, %rcx
	movq	(%rcx,%rax,8), %rax
	leaq	"runtime::global_default_temp_allocator_data"@SECREL32(%rax), %rax
	movq	%rax, 152(%rsp)
	leaq	"runtime::default_assertion_failure_proc"(%rip), %rax
	movq	%rax, 160(%rsp)
	leaq	"runtime::default_logger_proc"(%rip), %rax
	movq	%rax, 168(%rsp)
	vxorps	%xmm6, %xmm6, %xmm6
	vmovups	%xmm6, 176(%rsp)
	movq	$0, 192(%rsp)
	leaq	"runtime::default_random_generator_proc"(%rip), %rax
	movq	%rax, 200(%rsp)
	vxorps	%xmm0, %xmm0, %xmm0
	vmovups	%ymm0, 208(%rsp)
	movl	$0, 76(%rsp)
	vzeroupper
	callq	GetCommandLineW
	leaq	76(%rsp), %rdx
	movq	%rax, %rcx
	callq	CommandLineToArgvW
	movslq	76(%rsp), %rsi
	vmovups	128(%rsp), %xmm0
	vmovaps	%xmm0, 112(%rsp)
	testq	%rsi, %rsi
	js	.LBB11_8
	movq	%rax, %rdi
	movq	%rsi, %rcx
	shlq	$4, %rcx
	vmovaps	%xmm6, 80(%rsp)
	leaq	128(%rsp), %rax
	movq	%rax, 40(%rsp)
	leaq	80(%rsp), %rax
	movq	%rax, 32(%rsp)
	leaq	".Lscl$[_alloc_command_line_arguments5762]"(%rip), %r9
	leaq	112(%rsp), %r8
	movl	$8, %edx
	callq	"runtime::mem_alloc_bytes"
	movq	80(%rsp), %rax
	testq	%rax, %rax
	movq	%rax, 96(%rsp)
	cmoveq	%rax, %rsi
	movq	%rsi, 104(%rsp)
	testq	%rsi, %rsi
	jle	.LBB11_7
	movq	96(%rsp), %rax
	leaq	8(%rax), %rsi
	vxorps	%xmm6, %xmm6, %xmm6
	leaq	".Lscl$[_alloc_command_line_arguments6042]"(%rip), %rbx
	leaq	112(%rsp), %r14
	movq	104(%rsp), %r13
	.p2align	4
.LBB11_3:
	movq	(%rdi), %r12
	vmovups	%xmm6, 48(%rsp)
	movl	$0, 40(%rsp)
	movq	$0, 32(%rsp)
	movl	$65001, %ecx
	xorl	%edx, %edx
	movq	%r12, %r8
	movl	$-1, %r9d
	callq	WideCharToMultiByte
	movslq	%eax, %r15
	vmovups	128(%rsp), %xmm0
	vmovaps	%xmm0, 112(%rsp)
	testl	%r15d, %r15d
	js	.LBB11_9
	vmovaps	%xmm6, 80(%rsp)
	leaq	128(%rsp), %rax
	movq	%rax, 40(%rsp)
	leaq	80(%rsp), %rax
	movq	%rax, 32(%rsp)
	movl	$1, %edx
	movq	%r15, %rcx
	movq	%r14, %r8
	movq	%rbx, %r9
	callq	"runtime::mem_alloc_bytes"
	movq	80(%rsp), %rbp
	vmovups	%xmm6, 48(%rsp)
	movl	%r15d, 40(%rsp)
	movq	%rbp, 32(%rsp)
	movl	$65001, %ecx
	xorl	%edx, %edx
	movq	%r12, %r8
	movl	$-1, %r9d
	callq	WideCharToMultiByte
	testq	%rbp, %rbp
	cmoveq	%rbp, %r15
	xorl	%ecx, %ecx
	testl	%eax, %eax
	setg	%cl
	subl	%ecx, %eax
	cltq
	testl	%eax, %eax
	js	.LBB11_10
	cmpq	%rax, %r15
	jl	.LBB11_10
	movq	%rbp, -8(%rsi)
	movq	%rax, (%rsi)
	addq	$8, %rdi
	addq	$16, %rsi
	decq	%r13
	jne	.LBB11_3
.LBB11_7:
	movq	96(%rsp), %rax
	movq	%rax, "os::args.0"(%rip)
	movq	104(%rsp), %rax
	movq	%rax, "os::args.1"(%rip)
	vmovaps	240(%rsp), %xmm6
	addq	$264, %rsp
	popq	%rbx
	popq	%rbp
	popq	%rdi
	popq	%rsi
	popq	%r12
	popq	%r13
	popq	%r14
	popq	%r15
	retq
.LBB11_10:
	movq	%r15, 40(%rsp)
	movq	%rax, 32(%rsp)
	leaq	".Lggv$os::[os_windows.odin]::_alloc_command_line_arguments$2"(%rip), %rcx
	movl	$213, %edx
	movl	$27, %r8d
	xorl	%r9d, %r9d
	callq	"runtime::slice_handle_error"
.LBB11_9:
	leaq	".Lscl$[_alloc_command_line_arguments6042]"(%rip), %rcx
	movq	%r15, %rdx
	callq	"runtime::make_slice_error_loc.handle_error-0"
.LBB11_8:
	leaq	".Lscl$[_alloc_command_line_arguments5762]"(%rip), %rcx
	movq	%rsi, %rdx
	callq	"runtime::make_slice_error_loc.handle_error-0"
	int3
	.seh_endproc

	.def	"os::get_std_handle";
	.scl	3;
	.type	32;
	.endef
	.p2align	4
"os::get_std_handle":
	movl	$-11, %ecx
	jmp	GetStdHandle

	.def	__$cleanup_runtime;
	.scl	2;
	.type	32;
	.endef
	.weak	__$cleanup_runtime
	.p2align	4
__$cleanup_runtime:
.seh_proc __$cleanup_runtime
	subq	$40, %rsp
	.seh_stackalloc 40
	.seh_endprologue
	jmp	.LBB13_1
.LBB13_1:
	callq	"os::[os_windows.odin]::_delete_command_line_arguments"
	callq	"runtime::[default_temporary_allocator.odin]::_destroy_temp_allocator_fini"
	nop
	addq	$40, %rsp
	retq
	.seh_endproc

	.def	"os::[os_windows.odin]::_delete_command_line_arguments";
	.scl	3;
	.type	32;
	.endef
	.p2align	4
"os::[os_windows.odin]::_delete_command_line_arguments":
.seh_proc "os::[os_windows.odin]::_delete_command_line_arguments"
	pushq	%r15
	.seh_pushreg %r15
	pushq	%r14
	.seh_pushreg %r14
	pushq	%rsi
	.seh_pushreg %rsi
	pushq	%rdi
	.seh_pushreg %rdi
	pushq	%rbx
	.seh_pushreg %rbx
	subq	$176, %rsp
	.seh_stackalloc 176
	.seh_endprologue
	leaq	"runtime::heap_allocator_proc"(%rip), %rax
	movq	%rax, 64(%rsp)
	movq	$0, 72(%rsp)
	leaq	"runtime::default_temp_allocator_proc"(%rip), %rax
	movq	%rax, 80(%rsp)
	movl	_tls_index(%rip), %eax
	movq	%gs:88, %rcx
	movq	(%rcx,%rax,8), %rax
	leaq	"runtime::global_default_temp_allocator_data"@SECREL32(%rax), %rax
	movq	%rax, 88(%rsp)
	leaq	"runtime::default_assertion_failure_proc"(%rip), %rax
	movq	%rax, 96(%rsp)
	leaq	"runtime::default_logger_proc"(%rip), %rax
	movq	%rax, 104(%rsp)
	vxorps	%xmm0, %xmm0, %xmm0
	vmovups	%xmm0, 112(%rsp)
	movq	$0, 128(%rsp)
	leaq	"runtime::default_random_generator_proc"(%rip), %rax
	movq	%rax, 136(%rsp)
	vxorps	%xmm0, %xmm0, %xmm0
	vmovups	%ymm0, 144(%rsp)
	movq	"os::args.1"(%rip), %rsi
	leaq	64(%rsp), %r14
	testq	%rsi, %rsi
	jle	.LBB14_4
	movl	$8, %r15d
	leaq	".Lscl$[_delete_command_line_arguments6423]"(%rip), %rdi
	leaq	48(%rsp), %rbx
	.p2align	4
.LBB14_2:
	movq	"os::args.0"(%rip), %rax
	movq	-8(%rax,%r15), %rcx
	movq	(%rax,%r15), %rdx
	vmovups	64(%rsp), %xmm0
	vmovaps	%xmm0, 48(%rsp)
	movq	%r14, 32(%rsp)
	movq	%rbx, %r8
	movq	%rdi, %r9
	vzeroupper
	callq	"runtime::mem_free_with_size"
	addq	$16, %r15
	decq	%rsi
	jne	.LBB14_2
	movq	"os::args.1"(%rip), %rsi
.LBB14_4:
	movq	"os::args.0"(%rip), %rcx
	vmovups	64(%rsp), %xmm0
	vmovaps	%xmm0, 48(%rsp)
	shlq	$4, %rsi
	movq	%r14, 32(%rsp)
	leaq	".Lscl$[_delete_command_line_arguments6439]"(%rip), %r9
	leaq	48(%rsp), %r8
	movq	%rsi, %rdx
	vzeroupper
	callq	"runtime::mem_free_with_size"
	nop
	addq	$176, %rsp
	popq	%rbx
	popq	%rdi
	popq	%rsi
	popq	%r14
	popq	%r15
	retq
	.seh_endproc

	.def	"runtime::[default_temporary_allocator.odin]::_destroy_temp_allocator_fini";
	.scl	3;
	.type	32;
	.endef
	.globl	__ymm@0000000000000000000000000000000000000000000000000000000000000000
	.section	.rdata,"dr",discard,__ymm@0000000000000000000000000000000000000000000000000000000000000000
	.p2align	5, 0x0
__ymm@0000000000000000000000000000000000000000000000000000000000000000:
	.zero	32
	.text
	.p2align	4
"runtime::[default_temporary_allocator.odin]::_destroy_temp_allocator_fini":
.seh_proc "runtime::[default_temporary_allocator.odin]::_destroy_temp_allocator_fini"
	pushq	%r15
	.seh_pushreg %r15
	pushq	%r14
	.seh_pushreg %r14
	pushq	%r13
	.seh_pushreg %r13
	pushq	%r12
	.seh_pushreg %r12
	pushq	%rsi
	.seh_pushreg %rsi
	pushq	%rdi
	.seh_pushreg %rdi
	pushq	%rbp
	.seh_pushreg %rbp
	pushq	%rbx
	.seh_pushreg %rbx
	subq	$184, %rsp
	.seh_stackalloc 184
	vmovaps	%xmm6, 160(%rsp)
	.seh_savexmm %xmm6, 160
	.seh_endprologue
	movl	_tls_index(%rip), %eax
	movq	%gs:88, %rcx
	movq	(%rcx,%rax,8), %rax
	movq	"runtime::global_default_temp_allocator_data"@SECREL32+16(%rax), %rcx
	testq	%rcx, %rcx
	je	.LBB15_3
	leaq	96(%rsp), %r14
	leaq	"runtime::default_assertion_failure_proc"(%rip), %r12
	leaq	"runtime::default_logger_proc"(%rip), %r13
	vxorps	%xmm6, %xmm6, %xmm6
	leaq	"runtime::default_random_generator_proc"(%rip), %rbp
	leaq	".Lscl$[default_temp_allocator_destroy1621]"(%rip), %rsi
	leaq	32(%rsp), %rdi
	leaq	48(%rsp), %rbx
	.p2align	4
.LBB15_2:
	movq	(%rcx), %rax
	movl	_tls_index(%rip), %edx
	movq	%gs:88, %r8
	movq	(%r8,%rdx,8), %r15
	movq	%rax, "runtime::global_default_temp_allocator_data"@SECREL32+16(%r15)
	leaq	"runtime::global_default_temp_allocator_data"@SECREL32(%r15), %rax
	movq	40(%rcx), %rdx
	subq	%rdx, "runtime::global_default_temp_allocator_data"@SECREL32+32(%r15)
	movq	8(%rcx), %rdx
	movq	16(%rcx), %r8
	movq	%rdx, 32(%rsp)
	movq	%r8, 40(%rsp)
	leaq	"runtime::default_temp_allocator_proc"(%rip), %r9
	movq	%r9, 64(%rsp)
	movq	%rax, 72(%rsp)
	movq	%r12, 80(%rsp)
	movq	%r13, 88(%rsp)
	vmovups	%xmm6, (%r14)
	movq	$0, 16(%r14)
	movq	%rbp, 120(%rsp)
	vxorps	%xmm0, %xmm0, %xmm0
	vmovups	%ymm0, 32(%r14)
	movq	%rdx, 48(%rsp)
	movq	%r8, 56(%rsp)
	movq	%rdi, %rdx
	movq	%rsi, %r8
	movq	%rbx, %r9
	vzeroupper
	callq	"runtime::mem_free"
	movq	"runtime::global_default_temp_allocator_data"@SECREL32+16(%r15), %rcx
	testq	%rcx, %rcx
	jne	.LBB15_2
.LBB15_3:
	movl	_tls_index(%rip), %eax
	movq	%gs:88, %rcx
	movq	(%rcx,%rax,8), %rax
	vxorps	%xmm0, %xmm0, %xmm0
	vmovups	%ymm0, "runtime::global_default_temp_allocator_data"@SECREL32+24(%rax)
	vmovups	%ymm0, "runtime::global_default_temp_allocator_data"@SECREL32(%rax)
	vmovaps	160(%rsp), %xmm6
	addq	$184, %rsp
	popq	%rbx
	popq	%rbp
	popq	%rdi
	popq	%rsi
	popq	%r12
	popq	%r13
	popq	%r14
	popq	%r15
	vzeroupper
	retq
	.seh_endproc

	.def	"runtime::bounds_trap";
	.scl	3;
	.type	32;
	.endef
	.p2align	4
"runtime::bounds_trap":
.seh_proc "runtime::bounds_trap"
	subq	$40, %rsp
	.seh_stackalloc 40
	.seh_endprologue
	callq	"runtime::[procs_windows_amd64.odin]::windows_trap_array_bounds"
	int3
	.seh_endproc

	.def	"runtime::udivmod128";
	.scl	3;
	.type	32;
	.endef
	.p2align	4
"runtime::udivmod128":
	pushq	%r15
	pushq	%r14
	pushq	%rsi
	pushq	%rdi
	pushq	%rbp
	pushq	%rbx
	movq	(%rcx), %r9
	movq	8(%rcx), %rax
	movq	(%rdx), %r10
	movq	8(%rdx), %r11
	testq	%rax, %rax
	je	.LBB17_1
	testq	%r10, %r10
	je	.LBB17_17
	testq	%r11, %r11
	je	.LBB17_33
	xorl	%esi, %esi
	lzcntq	%r11, %rsi
	xorl	%r10d, %r10d
	lzcntq	%rax, %r10
	subl	%r10d, %esi
	cmpl	$64, %esi
	jae	.LBB17_29
	leal	1(%rsi), %r10d
	cmpl	$64, %r10d
	je	.LBB17_40
	shrxq	%r10, %rax, %r11
	movb	$63, %cl
	subb	%sil, %cl
	shlxq	%rcx, %rax, %rsi
	shrxq	%r10, %r9, %rax
	orq	%rsi, %rax
	shlxq	%rcx, %r9, %r9
	jmp	.LBB17_47
.LBB17_1:
	testq	%r11, %r11
	je	.LBB17_2
	vpxor	%xmm0, %xmm0, %xmm0
	testq	%r8, %r8
	je	.LBB17_13
	movq	%r9, (%r8)
	movq	$0, 8(%r8)
	jmp	.LBB17_13
.LBB17_17:
	testq	%r11, %r11
	je	.LBB17_57
	testq	%r9, %r9
	je	.LBB17_19
	leaq	-1(%r11), %r10
	testq	%r10, %r11
	jne	.LBB17_28
	testq	%r8, %r8
	je	.LBB17_27
	andq	%rax, %r10
	movq	%r9, (%r8)
	movq	%r10, 8(%r8)
.LBB17_27:
	xorl	%ecx, %ecx
	tzcntq	%r11, %rcx
	shrxq	%rcx, %rax, %rax
	jmp	.LBB17_12
.LBB17_33:
	leaq	-1(%r10), %r11
	testq	%r11, %r10
	jne	.LBB17_39
	testq	%r8, %r8
	je	.LBB17_36
	andq	%r9, %r11
	movq	%r11, (%r8)
	movq	$0, 8(%r8)
.LBB17_36:
	cmpq	$1, %r10
	jne	.LBB17_38
	vmovdqa	(%rcx), %xmm0
	jmp	.LBB17_13
.LBB17_2:
	testq	%r8, %r8
	je	.LBB17_8
	testq	%r10, %r10
	je	.LBB17_57
	movq	%r9, %rax
	orq	%r10, %rax
	shrq	$32, %rax
	je	.LBB17_5
	movq	%r9, %rax
	xorl	%edx, %edx
	divq	%r10
	jmp	.LBB17_7
.LBB17_19:
	movq	%rax, %rcx
	orq	%r11, %rcx
	shrq	$32, %rcx
	je	.LBB17_20
	xorl	%edx, %edx
	divq	%r11
	testq	%r8, %r8
	jne	.LBB17_23
	jmp	.LBB17_12
.LBB17_39:
	xorl	%ecx, %ecx
	lzcntq	%r10, %rcx
	xorl	%r10d, %r10d
	lzcntq	%rax, %r10
	subl	%r10d, %ecx
	leal	65(%rcx), %r10d
	cmpl	$64, %r10d
	jne	.LBB17_41
.LBB17_40:
	movl	$64, %r10d
	xorl	%r11d, %r11d
.LBB17_47:
	xorl	%esi, %esi
.LBB17_48:
	movq	(%rdx), %rdi
	movq	8(%rdx), %rcx
	cmpl	$1, %r10d
	jne	.LBB17_50
	xorl	%ebx, %ebx
	jmp	.LBB17_52
.LBB17_50:
	movl	%r10d, %ebp
	andl	$-2, %ebp
	xorl	%edx, %edx
	xorl	%ebx, %ebx
	.p2align	4
.LBB17_51:
	shldq	$1, %rax, %r11
	shldq	$1, %r9, %rax
	shldq	$1, %rsi, %r9
	addq	%rsi, %rsi
	movq	%rsi, %r14
	orq	%rbx, %r14
	movq	%r11, %rsi
	notq	%rsi
	movq	%rax, %rbx
	notq	%rbx
	addq	%rdi, %rbx
	adcq	%rcx, %rsi
	movq	%rsi, %rbx
	sarq	$63, %rbx
	movq	%rbx, %r15
	andq	%rcx, %r15
	andq	%rdi, %rbx
	subq	%rbx, %rax
	sbbq	%r15, %r11
	shldq	$1, %rax, %r11
	shldq	$1, %r9, %rax
	shldq	$1, %r14, %r9
	shrdq	$63, %r14, %rsi
	movq	%r11, %r14
	notq	%r14
	movq	%rax, %rbx
	notq	%rbx
	addq	%rdi, %rbx
	adcq	%rcx, %r14
	movq	%r14, %rbx
	shrq	$63, %rbx
	sarq	$63, %r14
	movq	%r14, %r15
	andq	%rcx, %r15
	andq	%rdi, %r14
	subq	%r14, %rax
	sbbq	%r15, %r11
	addl	$-2, %ebp
	jne	.LBB17_51
.LBB17_52:
	testb	$1, %r10b
	je	.LBB17_54
	shldq	$1, %rax, %r11
	shldq	$1, %r9, %rax
	shldq	$1, %rsi, %r9
	leaq	(%rbx,%rsi,2), %rsi
	movq	%r11, %r10
	notq	%r10
	movq	%rax, %rdx
	notq	%rdx
	addq	%rdi, %rdx
	adcq	%rcx, %r10
	movq	%r10, %rbx
	shrq	$63, %rbx
	xorl	%edx, %edx
	sarq	$63, %r10
	andq	%r10, %rcx
	andq	%rdi, %r10
	subq	%r10, %rax
	sbbq	%rcx, %r11
.LBB17_54:
	leaq	(%rsi,%rsi), %rcx
	orq	%rbx, %rcx
	shldq	$1, %rsi, %r9
	orq	%rdx, %r9
	testq	%r8, %r8
	je	.LBB17_56
	movq	%rax, (%r8)
	movq	%r11, 8(%r8)
.LBB17_56:
	vmovq	%rcx, %xmm0
	vmovq	%r9, %xmm1
	vpunpcklqdq	%xmm1, %xmm0, %xmm0
	jmp	.LBB17_13
.LBB17_28:
	lzcntq	%r11, %r11
	xorl	%r10d, %r10d
	lzcntq	%rax, %r10
	subl	%r10d, %r11d
	cmpl	$63, %r11d
	jb	.LBB17_31
.LBB17_29:
	vpxor	%xmm0, %xmm0, %xmm0
	testq	%r8, %r8
	je	.LBB17_13
	vmovdqa	(%rcx), %xmm1
	vmovdqa	%xmm1, (%r8)
	jmp	.LBB17_13
.LBB17_8:
	testq	%r10, %r10
	jne	.LBB17_9
.LBB17_57:
	ud2
.LBB17_38:
	xorl	%ecx, %ecx
	tzcntq	%r10, %rcx
	shrxq	%rcx, %rax, %rdx
	movl	%ecx, %r8d
	negb	%r8b
	testq	%rcx, %rcx
	shlxq	%r8, %rax, %rax
	cmoveq	%rcx, %rax
	shrxq	%rcx, %r9, %rcx
	orq	%rax, %rcx
	vmovq	%rcx, %xmm0
	vmovq	%rdx, %xmm1
	vpunpcklqdq	%xmm1, %xmm0, %xmm0
	jmp	.LBB17_13
.LBB17_41:
	jae	.LBB17_43
	notb	%cl
	shrxq	%r10, %rax, %r11
	shlxq	%rcx, %rax, %rsi
	shrxq	%r10, %r9, %rax
	shlxq	%rcx, %r9, %r9
	orq	%rsi, %rax
	jmp	.LBB17_47
.LBB17_31:
	leal	1(%r11), %r10d
	notb	%r11b
	shlxq	%r11, %r9, %rdi
	movl	%r10d, %ecx
	shrdq	%cl, %rax, %r9
	shrxq	%r10, %rax, %r11
	xorl	%esi, %esi
	movq	%r9, %rax
	movq	%rdi, %r9
	jmp	.LBB17_48
.LBB17_5:
	movl	%r9d, %eax
	xorl	%edx, %edx
	divl	%r10d
.LBB17_7:
	movq	%rdx, (%r8)
	movq	$0, 8(%r8)
.LBB17_9:
	movq	%r9, %rax
	orq	%r10, %rax
	shrq	$32, %rax
	je	.LBB17_10
	movq	%r9, %rax
	xorl	%edx, %edx
	divq	%r10
	jmp	.LBB17_12
.LBB17_10:
	movl	%r9d, %eax
	xorl	%edx, %edx
	divl	%r10d
	jmp	.LBB17_12
.LBB17_20:
	xorl	%edx, %edx
	divl	%r11d
	testq	%r8, %r8
	je	.LBB17_12
.LBB17_23:
	movq	%rdx, 8(%r8)
	movq	$0, (%r8)
.LBB17_12:
	vmovq	%rax, %xmm0
.LBB17_13:
	popq	%rbx
	popq	%rbp
	popq	%rdi
	popq	%rsi
	popq	%r14
	popq	%r15
	retq
.LBB17_43:
	movl	%ecx, %r11d
	notb	%r11b
	shlxq	%r11, %r9, %rsi
	incb	%cl
	shrdq	%cl, %rax, %r9
	shrxq	%rcx, %rax, %rax
	xorl	%r11d, %r11d
	jmp	.LBB17_48

	.def	"runtime::heap_allocator_proc";
	.scl	3;
	.type	32;
	.endef
	.p2align	4
"runtime::heap_allocator_proc":
.seh_proc "runtime::heap_allocator_proc"
	pushq	%r15
	.seh_pushreg %r15
	pushq	%r14
	.seh_pushreg %r14
	pushq	%r12
	.seh_pushreg %r12
	pushq	%rsi
	.seh_pushreg %rsi
	pushq	%rdi
	.seh_pushreg %rdi
	pushq	%rbp
	.seh_pushreg %rbp
	pushq	%rbx
	.seh_pushreg %rbx
	subq	$32, %rsp
	.seh_stackalloc 32
	.seh_endprologue
	movq	152(%rsp), %r12
	cmpb	$7, %dl
	ja	.LBB18_17
	movq	%r8, %rsi
	movq	128(%rsp), %rbx
	movzbl	%dl, %eax
	leaq	.LJTI18_0(%rip), %rcx
	movslq	(%rcx,%rax,4), %rax
	addq	%rcx, %rax
	jmpq	*%rax
.LBB18_2:
	xorl	%edi, %edi
	testb	%dl, %dl
	sete	%dil
	cmpq	$9, %r9
	movl	$8, %r14d
	cmovgeq	%r9, %r14
	leaq	(%rsi,%r14), %rbx
	addq	$7, %rbx
	callq	GetProcessHeap
	shll	$3, %edi
	movq	%rax, %rcx
	movl	%edi, %edx
	movq	%rbx, %r8
	callq	HeapAlloc
	testq	%rax, %rax
	je	.LBB18_20
	leaq	(%rax,%r14), %rcx
	addq	$7, %rcx
	negq	%r14
	andq	%rcx, %r14
	movq	%rax, -8(%r14)
	movq	%rsi, %rax
	sarq	$63, %rax
	andnq	%rsi, %rax, %rax
	xorl	%esi, %esi
	jmp	.LBB18_21
.LBB18_4:
	testq	%rbx, %rbx
	je	.LBB18_18
	movl	$8, %edi
	cmpq	$9, %r9
	cmovgeq	%r9, %rdi
	leaq	7(%rsi,%rdi), %r14
	jl	.LBB18_22
	xorl	%ebp, %ebp
	cmpb	$3, %dl
	sete	%bpl
	callq	GetProcessHeap
	shll	$3, %ebp
	movq	%rax, %rcx
	movl	%ebp, %edx
	movq	%r14, %r8
	callq	HeapAlloc
	testq	%rax, %rax
	je	.LBB18_30
	movq	136(%rsp), %r8
	leaq	(%rax,%rdi), %rcx
	addq	$7, %rcx
	negq	%rdi
	andq	%rcx, %rdi
	movq	%rax, -8(%rdi)
	cmpq	%rsi, %r8
	cmovgeq	%rsi, %r8
	cmpq	%rdi, %rbx
	setne	%al
	testq	%r8, %r8
	setg	%cl
	testb	%cl, %al
	je	.LBB18_9
	movq	%rdi, %rcx
	movq	%rbx, %rdx
	callq	memcpy
.LBB18_9:
	movq	-8(%rbx), %rbx
	testq	%rbx, %rbx
	je	.LBB18_29
	callq	GetProcessHeap
	movq	%rax, %rcx
	xorl	%edx, %edx
	movq	%rbx, %r8
	callq	HeapFree
	jmp	.LBB18_29
.LBB18_11:
	vxorps	%xmm0, %xmm0, %xmm0
	vmovups	%xmm0, (%r12)
	movb	$4, %sil
	jmp	.LBB18_36
.LBB18_12:
	testq	%rbx, %rbx
	je	.LBB18_17
	movq	-8(%rbx), %rsi
	testq	%rsi, %rsi
	je	.LBB18_17
	callq	GetProcessHeap
	movq	%rax, %rcx
	xorl	%edx, %edx
	movq	%rsi, %r8
	callq	HeapFree
	jmp	.LBB18_17
.LBB18_15:
	testq	%rbx, %rbx
	je	.LBB18_17
	movb	$-37, (%rbx)
.LBB18_17:
	vxorps	%xmm0, %xmm0, %xmm0
	vmovups	%xmm0, (%r12)
	xorl	%esi, %esi
	jmp	.LBB18_36
.LBB18_18:
	xorl	%ebx, %ebx
	cmpb	$3, %dl
	sete	%bl
	cmpq	$9, %r9
	movl	$8, %edi
	cmovgeq	%r9, %rdi
	leaq	(%rsi,%rdi), %r14
	addq	$7, %r14
	callq	GetProcessHeap
	shll	$3, %ebx
	movq	%rax, %rcx
	movl	%ebx, %edx
	movq	%r14, %r8
	callq	HeapAlloc
	testq	%rax, %rax
	jne	.LBB18_28
	movb	$1, %sil
	jmp	.LBB18_32
.LBB18_20:
	movb	$1, %sil
	xorl	%r14d, %r14d
	xorl	%eax, %eax
.LBB18_21:
	movq	%r14, (%r12)
	jmp	.LBB18_35
.LBB18_22:
	movq	-8(%rbx), %r15
	testq	%r14, %r14
	je	.LBB18_25
	callq	GetProcessHeap
	movq	%rax, %rcx
	movl	$8, %edx
	testq	%r15, %r15
	je	.LBB18_27
	movq	%r15, %r8
	movq	%r14, %r9
	callq	HeapReAlloc
	testq	%rax, %rax
	jne	.LBB18_28
	jmp	.LBB18_30
.LBB18_25:
	testq	%r15, %r15
	je	.LBB18_30
	callq	GetProcessHeap
	movq	%rax, %rcx
	xorl	%edx, %edx
	movq	%r15, %r8
	callq	HeapFree
	jmp	.LBB18_30
.LBB18_27:
	movq	%r14, %r8
	callq	HeapAlloc
	testq	%rax, %rax
	je	.LBB18_30
.LBB18_28:
	leaq	(%rax,%rdi), %rcx
	addq	$7, %rcx
	negq	%rdi
	andq	%rcx, %rdi
	movq	%rax, -8(%rdi)
.LBB18_29:
	movq	%rsi, %rax
	sarq	$63, %rax
	andnq	%rsi, %rax, %rax
	xorl	%esi, %esi
	jmp	.LBB18_34
.LBB18_30:
	movq	-8(%rbx), %rbx
	movb	$1, %sil
	testq	%rbx, %rbx
	je	.LBB18_32
	callq	GetProcessHeap
	xorl	%edi, %edi
	movq	%rax, %rcx
	xorl	%edx, %edx
	movq	%rbx, %r8
	callq	HeapFree
	jmp	.LBB18_33
.LBB18_32:
	xorl	%edi, %edi
.LBB18_33:
	xorl	%eax, %eax
.LBB18_34:
	movq	%rdi, (%r12)
.LBB18_35:
	movq	%rax, 8(%r12)
.LBB18_36:
	movl	%esi, %eax
	addq	$32, %rsp
	popq	%rbx
	popq	%rbp
	popq	%rdi
	popq	%rsi
	popq	%r12
	popq	%r14
	popq	%r15
	retq
	.section	.rdata,"dr"
	.p2align	2, 0x0
.LJTI18_0:
	.long	.LBB18_2-.LJTI18_0
	.long	.LBB18_12-.LJTI18_0
	.long	.LBB18_11-.LJTI18_0
	.long	.LBB18_4-.LJTI18_0
	.long	.LBB18_15-.LJTI18_0
	.long	.LBB18_11-.LJTI18_0
	.long	.LBB18_2-.LJTI18_0
	.long	.LBB18_4-.LJTI18_0
	.text
	.seh_endproc

	.def	"os::[stream.odin]::_file_stream_proc";
	.scl	3;
	.type	32;
	.endef
	.p2align	4
"os::[stream.odin]::_file_stream_proc":
.seh_proc "os::[stream.odin]::_file_stream_proc"
	pushq	%r15
	.seh_pushreg %r15
	pushq	%r14
	.seh_pushreg %r14
	pushq	%r13
	.seh_pushreg %r13
	pushq	%r12
	.seh_pushreg %r12
	pushq	%rsi
	.seh_pushreg %rsi
	pushq	%rdi
	.seh_pushreg %rdi
	pushq	%rbp
	.seh_pushreg %rbp
	pushq	%rbx
	.seh_pushreg %rbx
	subq	$2504, %rsp
	.seh_stackalloc 2504
	vmovaps	%xmm6, 2480(%rsp)
	.seh_savexmm %xmm6, 2480
	.seh_endprologue
	cmpq	$9, %rdx
	ja	.LBB19_117
	movq	%r9, %r12
	movq	%rcx, %r13
	movq	(%r8), %r14
	movq	8(%r8), %rbx
	leaq	.LJTI19_0(%rip), %rax
	movslq	(%rax,%rdx,4), %rcx
	addq	%rax, %rcx
	jmpq	*%rcx
.LBB19_2:
	movq	%r13, %rcx
	callq	CloseHandle
	testl	%eax, %eax
	jne	.LBB19_111
	callq	GetLastError
	movl	%eax, %edi
	cmpl	$130, %eax
	jg	.LBB19_164
	cmpl	$80, %eax
	ja	.LBB19_202
	leaq	.LJTI19_8(%rip), %rax
	movslq	(%rax,%rdi,4), %rcx
	addq	%rax, %rcx
	jmpq	*%rcx
.LBB19_4:
	testq	%rbx, %rbx
	je	.LBB19_117
	movl	$0, 160(%rsp)
	jle	.LBB19_140
	xorl	%edi, %edi
	movl	$1073741824, %ebp
	leaq	160(%rsp), %r15
	xorl	%esi, %esi
	.p2align	4
.LBB19_7:
	cmpq	%rsi, %rbx
	jbe	.LBB19_263
	movl	%ebx, %r8d
	subl	%esi, %r8d
	cmpl	$1073741824, %r8d
	cmovgel	%ebp, %r8d
	leaq	(%r14,%rsi), %rdx
	movq	$0, 32(%rsp)
	movq	%r13, %rcx
	movq	%r15, %r9
	callq	WriteFile
	movl	160(%rsp), %ecx
	testq	%rcx, %rcx
	je	.LBB19_146
	testl	%eax, %eax
	je	.LBB19_146
	addq	%rcx, %rsi
	cmpq	%rbx, %rsi
	jl	.LBB19_7
.LBB19_11:
	movq	%rdi, %rax
	shrq	$32, %rax
	testq	%rsi, %rsi
	jne	.LBB19_247
	movl	$1, %r15d
	xorl	%esi, %esi
	testq	%rax, %rax
	jne	.LBB19_247
	jmp	.LBB19_253
.LBB19_13:
	xorl	%r15d, %r15d
	movl	$767, %esi
	jmp	.LBB19_253
.LBB19_14:
	xorl	%r15d, %r15d
	testq	%rbx, %rbx
	je	.LBB19_252
	movl	$0, 108(%rsp)
	leaq	108(%rsp), %rdx
	movq	%r13, %rcx
	callq	GetConsoleMode
	cmpq	$1073741824, %rbx
	movl	$1073741824, %edi
	cmovlq	%rbx, %rdi
	testl	%eax, %eax
	je	.LBB19_141
	testq	%rbx, %rbx
	js	.LBB19_270
	xorl	%esi, %esi
	leaq	1704(%rsp), %rcx
	movl	$772, %r8d
	xorl	%edx, %edx
	callq	memset
	leaq	160(%rsp), %rcx
	movl	$1544, %r8d
	xorl	%edx, %edx
	callq	memset
	movq	%rdi, %rax
	shrq	$2, %rax
	cmpq	$1, %rax
	adcq	$0, %rax
	cmpq	$386, %rax
	movl	$386, %r15d
	cmovbq	%rax, %r15
	movabsq	$4294967297, %rax
	leaq	1(%rax), %rcx
	movq	%rcx, 88(%rsp)
	movabsq	$8589934593, %rcx
	leaq	15(%rcx), %rdx
	movq	%rdx, 80(%rsp)
	addq	$4, %rax
	movq	%rax, 136(%rsp)
	leaq	7(%rcx), %rax
	movq	%rax, 128(%rsp)
	xorl	%ebp, %ebp
	movq	%r13, 144(%rsp)
	movq	%r15, 96(%rsp)
.LBB19_18:
	movl	$0, 76(%rsp)
	movq	$0, 32(%rsp)
	movq	%r13, %rcx
	leaq	1704(%rsp), %rdx
	movl	%r15d, %r8d
	leaq	76(%rsp), %r9
	callq	ReadConsoleW
	movl	$0, %ecx
	testl	%eax, %eax
	jne	.LBB19_39
	callq	GetLastError
	movl	%eax, %ebp
	cmpl	$130, %eax
	jg	.LBB19_23
	cmpl	$80, %eax
	ja	.LBB19_37
	leaq	.LJTI19_5(%rip), %rcx
	movslq	(%rcx,%rbp,4), %rax
	addq	%rcx, %rax
	jmpq	*%rax
.LBB19_22:
	movq	88(%rsp), %rbp
	jmp	.LBB19_38
.LBB19_23:
	cmpl	$231, %eax
	jle	.LBB19_28
	cmpl	$232, %eax
	je	.LBB19_36
	cmpl	$258, %eax
	je	.LBB19_27
	cmpl	$1460, %eax
	jne	.LBB19_37
.LBB19_27:
	movabsq	$4294967297, %rax
	leaq	2(%rax), %rbp
	jmp	.LBB19_38
.LBB19_28:
	cmpl	$131, %eax
	je	.LBB19_35
	cmpl	$183, %eax
	jne	.LBB19_37
.LBB19_30:
	movabsq	$4294967297, %rbp
	jmp	.LBB19_38
.LBB19_31:
	movq	80(%rsp), %rbp
	jmp	.LBB19_38
.LBB19_32:
	movabsq	$8589934593, %rbp
	jmp	.LBB19_38
.LBB19_33:
	movq	136(%rsp), %rbp
	jmp	.LBB19_38
.LBB19_34:
	movabsq	$12884901887, %rbp
	jmp	.LBB19_38
.LBB19_35:
	movq	128(%rsp), %rbp
	jmp	.LBB19_38
.LBB19_36:
	movabsq	$8589934593, %rax
	leaq	16(%rax), %rbp
	jmp	.LBB19_38
.LBB19_37:
	movabsq	$17179869184, %rax
	addq	%rax, %rbp
.LBB19_38:
	movq	%rbp, %rcx
	shrq	$32, %rcx
.LBB19_39:
	movq	%rcx, 64(%rsp)
	movl	76(%rsp), %ebx
	cmpq	$387, %rbx
	jae	.LBB19_265
	testq	%rbx, %rbx
	je	.LBB19_67
	xorl	%r13d, %r13d
	xorl	%r15d, %r15d
	.p2align	4
.LBB19_42:
	cmpq	%rbx, %r15
	jae	.LBB19_261
	movzwl	1704(%rsp,%r15,2), %eax
	leal	8192(%rax), %ecx
	movzwl	%cx, %ecx
	cmpl	$63488, %ecx
	jae	.LBB19_46
	cmpw	$127, %ax
	ja	.LBB19_50
	movl	$1, %r9d
	xorl	%edx, %edx
	xorl	%ecx, %ecx
	jmp	.LBB19_54
	.p2align	4
.LBB19_46:
	movl	$65533, %ecx
	cmpl	$56319, %eax
	ja	.LBB19_53
	leaq	1(%r15), %r10
	cmpq	%rbx, %r10
	jge	.LBB19_53
	movzwl	1706(%rsp,%r15,2), %r8d
	movl	%r8d, %edx
	andl	$64512, %edx
	cmpl	$56320, %edx
	jne	.LBB19_53
	shll	$10, %eax
	leal	(%rax,%r8), %ecx
	addl	$-56613888, %ecx
	movl	%ecx, %eax
	shrl	$18, %eax
	orb	$-16, %al
	movl	%ecx, %edx
	shrl	$12, %edx
	andb	$63, %dl
	orb	$-128, %dl
	shrl	$6, %ecx
	andb	$63, %cl
	orb	$-128, %cl
	andb	$63, %r8b
	orb	$-128, %r8b
	movl	$4, %r9d
	movq	%r10, %r15
	jmp	.LBB19_55
	.p2align	4
.LBB19_50:
	cmpl	$2048, %eax
	jae	.LBB19_52
	movl	%eax, %r8d
	shrl	$6, %r8d
	orb	$-64, %r8b
	andb	$63, %al
	movl	%eax, %edx
	orb	$-128, %dl
	movl	$2, %r9d
	xorl	%ecx, %ecx
	movl	%r8d, %eax
	jmp	.LBB19_54
.LBB19_52:
	movl	%eax, %ecx
	andl	$63488, %ecx
	cmpl	$55296, %ecx
	movl	$65533, %ecx
	cmovel	%ecx, %eax
	movl	%eax, %ecx
.LBB19_53:
	movl	%ecx, %eax
	shrl	$12, %eax
	orb	$-32, %al
	movl	%ecx, %edx
	shrl	$6, %edx
	andb	$63, %dl
	orb	$-128, %dl
	andb	$63, %cl
	orb	$-128, %cl
	movl	$3, %r9d
.LBB19_54:
	xorl	%r8d, %r8d
.LBB19_55:
	movb	%al, 60(%rsp)
	movb	%dl, 61(%rsp)
	movb	%cl, 62(%rsp)
	movb	%r8b, 63(%rsp)
	testq	%r13, %r13
	js	.LBB19_260
	movl	$1544, %r12d
	subq	%r13, %r12
	cmpq	%r9, %r12
	cmovgeq	%r9, %r12
	cmpq	$1543, %r13
	ja	.LBB19_58
	leaq	(%rsp,%r13), %rcx
	addq	$160, %rcx
	leaq	60(%rsp), %rdx
	movq	%r12, %r8
	callq	memcpy
.LBB19_58:
	addq	%r12, %r13
	incq	%r15
	cmpq	%rbx, %r15
	jge	.LBB19_60
	cmpq	$1544, %r13
	jl	.LBB19_42
.LBB19_60:
	cmpq	$1544, %r13
	ja	.LBB19_266
	testq	%r13, %r13
	setne	%al
	cmpq	%rdi, %rsi
	setl	%cl
	andb	%al, %cl
	cmpb	$1, %cl
	movq	96(%rsp), %r15
	jne	.LBB19_67
	movl	$1, %eax
	.p2align	4
.LBB19_63:
	movzbl	159(%rsp,%rax), %ecx
	cmpb	$26, %cl
	je	.LBB19_138
	cmpq	%rdi, %rsi
	jae	.LBB19_262
	movb	%cl, (%r14,%rsi)
	incq	%rsi
	cmpq	%r13, %rax
	jge	.LBB19_67
	incq	%rax
	cmpq	%rdi, %rsi
	jl	.LBB19_63
.LBB19_67:
	cmpl	%r15d, %ebx
	jb	.LBB19_138
	cmpq	$2, %rsi
	movq	144(%rsp), %r13
	jl	.LBB19_72
	cmpl	%r15d, %ebx
	jne	.LBB19_72
	leaq	-2(%rsi), %r9
	cmpq	%rdi, %rsi
	jg	.LBB19_269
	addq	%r14, %r9
	movq	%r9, 112(%rsp)
	movq	$2, 120(%rsp)
	leaq	112(%rsp), %rcx
	leaq	".Lggv$os::[os_windows.odin]::read_console$6"(%rip), %rdx
	callq	"runtime::string_eq"
	testb	%al, %al
	jne	.LBB19_227
.LBB19_72:
	cmpq	%rdi, %rsi
	jge	.LBB19_138
	movq	64(%rsp), %rdx
	testl	%edx, %edx
	je	.LBB19_18
	jmp	.LBB19_139
.LBB19_74:
	testq	%rbx, %rbx
	je	.LBB19_117
	testq	%r12, %r12
	js	.LBB19_144
	movl	$1, %r15d
	testq	%rbx, %rbx
	jle	.LBB19_252
	vxorps	%xmm6, %xmm6, %xmm6
	movabsq	$4294967297, %rax
	leaq	1(%rax), %rcx
	movq	%rcx, 64(%rsp)
	movabsq	$8589934593, %rcx
	leaq	15(%rcx), %rdx
	movq	%rdx, 96(%rsp)
	addq	$4, %rax
	movq	%rax, 88(%rsp)
	leaq	7(%rcx), %rax
	movq	%rax, 80(%rsp)
	xorl	%esi, %esi
	.p2align	4
.LBB19_78:
	movl	$1, %r8d
	movq	%r13, %rdi
	movq	%r13, %rcx
	xorl	%edx, %edx
	leaq	1704(%rsp), %r9
	callq	"os::seek"
	movq	%rax, %rbp
	shrq	$32, %rax
	movl	$0, %r13d
	jne	.LBB19_103
	cmpq	$1073741824, %rbx
	movl	$1073741824, %r8d
	cmovbq	%rbx, %r8
	movq	1704(%rsp), %r13
	movq	%r12, %rax
	shrq	$32, %rax
	vmovaps	%xmm6, 160(%rsp)
	movl	%r12d, 176(%rsp)
	movl	%eax, 180(%rsp)
	movq	$0, 184(%rsp)
	movl	$0, 60(%rsp)
	leaq	160(%rsp), %rax
	movq	%rax, 32(%rsp)
	movq	%rdi, %rcx
	movq	%r14, %rdx
	leaq	60(%rsp), %r9
	callq	ReadFile
	testl	%eax, %eax
	je	.LBB19_81
	movq	%r13, %rdx
	movl	60(%rsp), %r13d
	xorl	%ebp, %ebp
	jmp	.LBB19_102
.LBB19_81:
	callq	GetLastError
	movl	%eax, %ebp
	cmpl	$130, %eax
	jg	.LBB19_85
	cmpl	$80, %eax
	ja	.LBB19_100
	leaq	.LJTI19_4(%rip), %rcx
	movslq	(%rcx,%rbp,4), %rax
	addq	%rcx, %rax
	jmpq	*%rax
.LBB19_84:
	movq	%r13, %rdx
	movq	64(%rsp), %rbp
	jmp	.LBB19_101
.LBB19_85:
	cmpl	$231, %eax
	jle	.LBB19_90
	cmpl	$232, %eax
	je	.LBB19_99
	cmpl	$258, %eax
	je	.LBB19_89
	cmpl	$1460, %eax
	jne	.LBB19_100
.LBB19_89:
	movq	%r13, %rdx
	movabsq	$4294967297, %rax
	leaq	2(%rax), %rbp
	jmp	.LBB19_101
.LBB19_90:
	cmpl	$131, %eax
	je	.LBB19_98
	cmpl	$183, %eax
	jne	.LBB19_100
.LBB19_92:
	movq	%r13, %rdx
	movabsq	$4294967297, %rbp
	jmp	.LBB19_101
.LBB19_93:
	movq	%r13, %rdx
	movq	96(%rsp), %rbp
	jmp	.LBB19_101
.LBB19_94:
	movq	%r13, %rdx
	movabsq	$8589934593, %rbp
	jmp	.LBB19_101
.LBB19_95:
	movq	%r13, %rdx
	jmp	.LBB19_101
.LBB19_96:
	movq	%r13, %rdx
	movq	88(%rsp), %rbp
	jmp	.LBB19_101
.LBB19_97:
	movq	%r13, %rdx
	movabsq	$12884901887, %rbp
	jmp	.LBB19_101
.LBB19_98:
	movq	%r13, %rdx
	movq	80(%rsp), %rbp
	jmp	.LBB19_101
.LBB19_99:
	movq	%r13, %rdx
	movabsq	$8589934593, %rax
	leaq	16(%rax), %rbp
	jmp	.LBB19_101
.LBB19_100:
	movq	%r13, %rdx
	movabsq	$17179869184, %rax
	addq	%rax, %rbp
.LBB19_101:
	movl	$0, 60(%rsp)
	xorl	%r13d, %r13d
.LBB19_102:
	movq	%rdi, %rcx
	xorl	%r8d, %r8d
	leaq	112(%rsp), %r9
	callq	"os::seek"
.LBB19_103:
	movq	%rbp, %rax
	shrq	$32, %rax
	jne	.LBB19_150
	cmpq	%r13, %rbx
	jb	.LBB19_264
	addq	%r13, %rsi
	addq	%r13, %r14
	addq	%r13, %r12
	subq	%r13, %rbx
	movq	%rdi, %r13
	jg	.LBB19_78
	jmp	.LBB19_152
.LBB19_106:
	movq	$0, 160(%rsp)
	leaq	160(%rsp), %rdx
	movq	%r13, %rcx
	callq	GetFileSizeEx
	testl	%eax, %eax
	je	.LBB19_126
	xorl	%edi, %edi
.LBB19_108:
	movq	160(%rsp), %rsi
.LBB19_109:
	movq	%rdi, %rax
	shrq	$32, %rax
	jmp	.LBB19_247
.LBB19_110:
	movq	%r13, %rcx
	callq	FlushFileBuffers
	testl	%eax, %eax
	je	.LBB19_134
.LBB19_111:
	xorl	%edi, %edi
.LBB19_112:
	movq	%rdi, %rax
	shrq	$32, %rax
	xorl	%esi, %esi
	jmp	.LBB19_247
.LBB19_113:
	testq	%rbx, %rbx
	je	.LBB19_117
	movabsq	$8589934593, %rdi
	testq	%r12, %r12
	js	.LBB19_145
	testq	%rbx, %rbx
	jle	.LBB19_157
	vxorps	%xmm6, %xmm6, %xmm6
	leaq	60(%rsp), %rbp
	xorl	%esi, %esi
	jmp	.LBB19_122
.LBB19_117:
	xorl	%esi, %esi
	xorl	%r15d, %r15d
	jmp	.LBB19_253
.LBB19_118:
	movq	2608(%rsp), %r8
	leaq	152(%rsp), %r9
	movq	%r13, %rcx
	movq	%r12, %rdx
	callq	"os::seek"
	movq	%rax, %rdi
	shrq	$32, %rax
	movq	152(%rsp), %rsi
	jmp	.LBB19_247
.LBB19_119:
	movl	$-1, %r15d
	jmp	.LBB19_252
.LBB19_120:
	movq	%r13, %rcx
	movl	60(%rsp), %r13d
	movq	%rcx, %rdi
	movq	%r15, %rdx
	xorl	%r8d, %r8d
	leaq	112(%rsp), %r9
	callq	"os::seek"
	cmpq	%r13, %rbx
	jb	.LBB19_267
.LBB19_121:
	addq	%r13, %rsi
	addq	%r13, %r14
	addq	%r13, %r12
	subq	%r13, %rbx
	movq	%rdi, %r13
	jle	.LBB19_204
.LBB19_122:
	movl	$1, %r8d
	movq	%r13, %rcx
	xorl	%edx, %edx
	leaq	1704(%rsp), %r9
	callq	"os::seek"
	movq	%rax, %rcx
	shrq	$32, %rcx
	jne	.LBB19_203
	cmpq	$1073741824, %rbx
	movl	$1073741824, %r8d
	cmovbq	%rbx, %r8
	movq	1704(%rsp), %r15
	movq	%r12, %rax
	shrq	$32, %rax
	vmovaps	%xmm6, 160(%rsp)
	movl	%r12d, 176(%rsp)
	movl	%eax, 180(%rsp)
	movq	$0, 184(%rsp)
	movl	$0, 60(%rsp)
	leaq	160(%rsp), %rax
	movq	%rax, 32(%rsp)
	movq	%r13, %rcx
	movq	%r14, %rdx
	movq	%rbp, %r9
	callq	WriteFile
	testl	%eax, %eax
	jne	.LBB19_120
	callq	GetLastError
	testl	%eax, %eax
	jne	.LBB19_153
	movl	$0, 60(%rsp)
	movq	%r13, %rdi
	movq	%r13, %rcx
	movq	%r15, %rdx
	xorl	%r8d, %r8d
	leaq	112(%rsp), %r9
	callq	"os::seek"
	xorl	%r13d, %r13d
	jmp	.LBB19_121
.LBB19_126:
	callq	GetLastError
	movl	%eax, %edi
	cmpl	$130, %eax
	jg	.LBB19_159
	cmpl	$80, %eax
	ja	.LBB19_226
	leaq	.LJTI19_1(%rip), %rax
	movslq	(%rax,%rdi,4), %rcx
	addq	%rax, %rcx
	jmpq	*%rcx
.LBB19_129:
	movabsq	$4294967297, %rdi
	incq	%rdi
	jmp	.LBB19_108
.LBB19_134:
	callq	GetLastError
	movl	%eax, %edi
	cmpl	$130, %eax
	jg	.LBB19_168
	cmpl	$80, %eax
	ja	.LBB19_202
	leaq	.LJTI19_7(%rip), %rax
	movslq	(%rax,%rdi,4), %rcx
	addq	%rax, %rcx
	jmpq	*%rcx
.LBB19_137:
	movabsq	$4294967297, %rdi
	incq	%rdi
	jmp	.LBB19_112
.LBB19_138:
	movq	64(%rsp), %rdx
.LBB19_139:
	movq	%rdx, %rax
	shlq	$32, %rax
	movl	%ebp, %ecx
	orq	%rax, %rcx
	xorl	%edi, %edi
	testl	%edx, %edx
	cmovneq	%rcx, %rdi
	jmp	.LBB19_245
.LBB19_140:
	movl	$1, %r15d
	jmp	.LBB19_252
.LBB19_141:
	movl	$0, 72(%rsp)
	movq	$0, 32(%rsp)
	leaq	72(%rsp), %r9
	movq	%r13, %rcx
	movq	%r14, %rdx
	movl	%edi, %r8d
	callq	ReadFile
	testl	%eax, %eax
	je	.LBB19_177
	movl	72(%rsp), %esi
	testq	%rsi, %rsi
	jne	.LBB19_253
.LBB19_143:
	movabsq	$8589934593, %rdi
	jmp	.LBB19_158
.LBB19_144:
	movl	$8, %r15d
	jmp	.LBB19_252
.LBB19_145:
	addq	$7, %rdi
	jmp	.LBB19_158
.LBB19_146:
	callq	GetLastError
	movl	%eax, %edi
	cmpl	$130, %eax
	jg	.LBB19_181
	cmpl	$80, %eax
	ja	.LBB19_237
	leaq	.LJTI19_3(%rip), %rax
	movslq	(%rax,%rdi,4), %rcx
	addq	%rax, %rcx
	jmpq	*%rcx
.LBB19_149:
	movabsq	$4294967297, %rdi
	incq	%rdi
	jmp	.LBB19_11
.LBB19_150:
	movl	%ebp, %edi
	cmpl	$2, %eax
	jne	.LBB19_173
	cmpq	$1, %rdi
	jne	.LBB19_173
.LBB19_152:
	xorl	%ebp, %ebp
	xorl	%edi, %edi
	jmp	.LBB19_174
.LBB19_153:
	cmpl	$130, %eax
	jg	.LBB19_186
	leal	-2(%rax), %ecx
	cmpl	$78, %ecx
	movabsq	$8589934593, %rdi
	ja	.LBB19_243
	leaq	.LJTI19_2(%rip), %rdx
	movslq	(%rdx,%rcx,4), %rcx
	addq	%rdx, %rcx
	jmpq	*%rcx
.LBB19_156:
	addq	$15, %rdi
	jmp	.LBB19_244
.LBB19_157:
	xorl	%edi, %edi
.LBB19_158:
	movq	%rdi, %rax
	shrq	$32, %rax
	jmp	.LBB19_246
.LBB19_159:
	cmpl	$231, %eax
	jle	.LBB19_191
	cmpl	$232, %eax
	je	.LBB19_224
	cmpl	$258, %eax
	je	.LBB19_163
	cmpl	$1460, %eax
	jne	.LBB19_226
.LBB19_163:
	movabsq	$4294967297, %rdi
	orq	$2, %rdi
	jmp	.LBB19_108
.LBB19_164:
	cmpl	$231, %eax
	jg	.LBB19_169
	cmpl	$131, %eax
	je	.LBB19_199
	cmpl	$183, %eax
	je	.LBB19_167
	jmp	.LBB19_202
.LBB19_168:
	cmpl	$231, %eax
	jle	.LBB19_194
.LBB19_169:
	cmpl	$232, %eax
	je	.LBB19_200
	cmpl	$258, %eax
	je	.LBB19_172
	cmpl	$1460, %eax
	jne	.LBB19_202
.LBB19_172:
	movabsq	$4294967297, %rdi
	orq	$2, %rdi
	jmp	.LBB19_112
.LBB19_173:
	movabsq	$-4294967296, %rax
	andq	%rax, %rbp
.LBB19_174:
	orq	%rbp, %rdi
	movq	%rbp, %rax
	shrq	$32, %rax
	testq	%rsi, %rsi
	jne	.LBB19_247
	xorl	%esi, %esi
	testq	%rbp, %rbp
	jne	.LBB19_247
	jmp	.LBB19_253
.LBB19_176:
	movabsq	$8589934593, %rdi
	addq	$15, %rdi
	jmp	.LBB19_112
.LBB19_177:
	callq	GetLastError
	movl	%eax, %edi
	cmpl	$130, %eax
	jg	.LBB19_205
	cmpl	$80, %eax
	ja	.LBB19_259
	leaq	.LJTI19_6(%rip), %rax
	movslq	(%rax,%rdi,4), %rcx
	addq	%rax, %rcx
	jmpq	*%rcx
.LBB19_180:
	movabsq	$4294967297, %rdi
	incq	%rdi
	jmp	.LBB19_158
.LBB19_181:
	cmpl	$231, %eax
	jle	.LBB19_210
	cmpl	$232, %eax
	je	.LBB19_233
	cmpl	$258, %eax
	je	.LBB19_185
	cmpl	$1460, %eax
	jne	.LBB19_237
.LBB19_185:
	movabsq	$4294967297, %rdi
	orq	$2, %rdi
	jmp	.LBB19_11
.LBB19_186:
	cmpl	$231, %eax
	movabsq	$8589934593, %rdi
	jle	.LBB19_214
	cmpl	$232, %eax
	je	.LBB19_242
	cmpl	$258, %eax
	je	.LBB19_190
	cmpl	$1460, %eax
	jne	.LBB19_243
.LBB19_190:
	movabsq	$4294967297, %rdi
	orq	$2, %rdi
	jmp	.LBB19_244
.LBB19_191:
	cmpl	$131, %eax
	je	.LBB19_223
	cmpl	$183, %eax
	jne	.LBB19_226
.LBB19_193:
	movabsq	$4294967297, %rdi
	jmp	.LBB19_108
.LBB19_194:
	cmpl	$131, %eax
	je	.LBB19_199
	cmpl	$183, %eax
	jne	.LBB19_202
.LBB19_167:
	movabsq	$4294967297, %rdi
	jmp	.LBB19_112
.LBB19_197:
	movabsq	$8589934593, %rdi
	addq	$15, %rdi
	jmp	.LBB19_108
.LBB19_133:
	movabsq	$8589934593, %rdi
	jmp	.LBB19_112
.LBB19_198:
	movabsq	$4294967297, %rdi
	orq	$4, %rdi
	jmp	.LBB19_112
.LBB19_222:
	movabsq	$12884901887, %rdi
	jmp	.LBB19_112
.LBB19_199:
	movabsq	$8589934593, %rdi
	addq	$7, %rdi
	jmp	.LBB19_112
.LBB19_200:
	movabsq	$8589934593, %rdi
	orq	$16, %rdi
	jmp	.LBB19_112
.LBB19_202:
	movabsq	$17179869184, %rax
	orq	%rax, %rdi
	jmp	.LBB19_112
.LBB19_203:
	movq	%rax, %rdi
	jmp	.LBB19_245
.LBB19_204:
	xorl	%edi, %edi
	jmp	.LBB19_245
.LBB19_205:
	cmpl	$231, %eax
	jle	.LBB19_234
	cmpl	$232, %eax
	je	.LBB19_258
	cmpl	$258, %eax
	je	.LBB19_209
	cmpl	$1460, %eax
	jne	.LBB19_259
.LBB19_209:
	movabsq	$4294967297, %rdi
	orq	$2, %rdi
	jmp	.LBB19_158
.LBB19_210:
	cmpl	$131, %eax
	je	.LBB19_232
	cmpl	$183, %eax
	jne	.LBB19_237
.LBB19_212:
	movabsq	$4294967297, %rdi
	jmp	.LBB19_11
.LBB19_213:
	movabsq	$8589934593, %rdi
	addq	$15, %rdi
	jmp	.LBB19_11
.LBB19_214:
	cmpl	$131, %eax
	je	.LBB19_241
	cmpl	$183, %eax
	jne	.LBB19_243
.LBB19_216:
	movabsq	$4294967297, %rdi
	jmp	.LBB19_244
.LBB19_217:
	movabsq	$8589934593, %rdi
	jmp	.LBB19_108
.LBB19_219:
	movabsq	$4294967297, %rdi
	orq	$4, %rdi
	jmp	.LBB19_108
.LBB19_220:
	movabsq	$12884901887, %rdi
	jmp	.LBB19_108
.LBB19_223:
	movabsq	$8589934593, %rdi
	addq	$7, %rdi
	jmp	.LBB19_108
.LBB19_224:
	movabsq	$8589934593, %rdi
	orq	$16, %rdi
	jmp	.LBB19_108
.LBB19_225:
	movabsq	$4294967297, %rdi
	incq	%rdi
	jmp	.LBB19_244
.LBB19_226:
	movabsq	$17179869184, %rax
	orq	%rax, %rdi
	jmp	.LBB19_108
.LBB19_227:
	movq	64(%rsp), %rdx
	movq	%rdx, %rax
	shlq	$32, %rax
	movl	%ebp, %ecx
	orq	%rax, %rcx
	xorl	%edi, %edi
	testl	%edx, %edx
	cmovneq	%rcx, %rdi
	jmp	.LBB19_109
.LBB19_229:
	movabsq	$8589934593, %rdi
	jmp	.LBB19_11
.LBB19_230:
	movabsq	$4294967297, %rdi
	orq	$4, %rdi
	jmp	.LBB19_11
.LBB19_231:
	movabsq	$12884901887, %rdi
	jmp	.LBB19_11
.LBB19_232:
	movabsq	$8589934593, %rdi
	addq	$7, %rdi
	jmp	.LBB19_11
.LBB19_233:
	movabsq	$8589934593, %rdi
	orq	$16, %rdi
	jmp	.LBB19_11
.LBB19_234:
	cmpl	$131, %eax
	je	.LBB19_257
	cmpl	$183, %eax
	jne	.LBB19_259
.LBB19_236:
	movabsq	$4294967297, %rdi
	jmp	.LBB19_158
.LBB19_237:
	movabsq	$17179869184, %rax
	orq	%rax, %rdi
	jmp	.LBB19_11
.LBB19_238:
	movabsq	$8589934593, %rdi
	addq	$15, %rdi
	jmp	.LBB19_158
.LBB19_239:
	movabsq	$4294967297, %rdi
	orq	$4, %rdi
	jmp	.LBB19_244
.LBB19_240:
	movabsq	$12884901887, %rdi
	jmp	.LBB19_244
.LBB19_241:
	addq	$7, %rdi
	jmp	.LBB19_244
.LBB19_242:
	addq	$16, %rdi
	jmp	.LBB19_244
.LBB19_243:
	movl	%eax, %eax
	movabsq	$17179869184, %rdi
	orq	%rax, %rdi
.LBB19_244:
	movl	$0, 60(%rsp)
	leaq	112(%rsp), %r9
	movq	%r13, %rcx
	movq	%r15, %rdx
	xorl	%r8d, %r8d
	callq	"os::seek"
.LBB19_245:
	movq	%rdi, %rax
	shrq	$32, %rax
	testq	%rsi, %rsi
	jne	.LBB19_247
.LBB19_246:
	xorl	%esi, %esi
	movq	%rdi, %rcx
	shrq	$32, %rcx
	movl	$1, %r15d
	je	.LBB19_253
.LBB19_247:
	testl	%eax, %eax
	je	.LBB19_250
	cmpl	$2, %eax
	jne	.LBB19_251
	xorl	%eax, %eax
	testl	%edi, %edi
	cmovneq	%rax, %rsi
	movl	%edi, %r15d
	jmp	.LBB19_253
.LBB19_250:
	movl	%eax, %r15d
	jmp	.LBB19_253
.LBB19_251:
	movl	$14, %r15d
.LBB19_252:
	xorl	%esi, %esi
.LBB19_253:
	movq	2616(%rsp), %rax
	movq	%rsi, (%rax)
	movl	%r15d, %eax
	vmovaps	2480(%rsp), %xmm6
	addq	$2504, %rsp
	popq	%rbx
	popq	%rbp
	popq	%rdi
	popq	%rsi
	popq	%r12
	popq	%r13
	popq	%r14
	popq	%r15
	retq
.LBB19_255:
	movabsq	$4294967297, %rdi
	orq	$4, %rdi
	jmp	.LBB19_158
.LBB19_256:
	movabsq	$12884901887, %rdi
	jmp	.LBB19_158
.LBB19_257:
	movabsq	$8589934593, %rdi
	addq	$7, %rdi
	jmp	.LBB19_158
.LBB19_258:
	movabsq	$8589934593, %rdi
	orq	$16, %rdi
	jmp	.LBB19_158
.LBB19_259:
	movabsq	$17179869184, %rax
	orq	%rax, %rdi
	jmp	.LBB19_158
.LBB19_260:
	movq	$1544, 40(%rsp)
	movq	$1544, 32(%rsp)
	leaq	".Lggv$utf16::decode_to_utf8$5"(%rip), %rcx
	movl	$190, %edx
	movl	$14, %r8d
	movq	%r13, %r9
	callq	"runtime::slice_handle_error"
.LBB19_261:
	movq	%rbx, 32(%rsp)
	leaq	".Lggv$utf16::decode_to_utf8$1"(%rip), %rcx
	movl	$180, %edx
	movl	$17, %r8d
	movq	%r15, %r9
	callq	"runtime::bounds_check_error.handle_error-0"
.LBB19_262:
	movq	%rdi, 32(%rsp)
	leaq	".Lggv$os::[os_windows.odin]::read_console$4"(%rip), %rcx
	movl	$416, %edx
	movl	$6, %r8d
	movq	%rsi, %r9
	callq	"runtime::bounds_check_error.handle_error-0"
.LBB19_263:
	movq	%rbx, 32(%rsp)
	leaq	".Lggv$os::write$1"(%rip), %rcx
	movl	$374, %edx
	movl	$48, %r8d
	movq	%rsi, %r9
	callq	"runtime::bounds_check_error.handle_error-0"
.LBB19_264:
	movq	%rbx, 40(%rsp)
	movq	%rbx, 32(%rsp)
	leaq	".Lggv$os::read_at$1"(%rip), %rcx
	movl	$580, %edx
	jmp	.LBB19_268
.LBB19_265:
	movq	%rbx, 32(%rsp)
	movq	$386, 40(%rsp)
	leaq	".Lggv$os::[os_windows.odin]::read_console$1"(%rip), %rcx
	movl	$406, %edx
	movl	$50, %r8d
	xorl	%r9d, %r9d
	callq	"runtime::slice_handle_error"
.LBB19_266:
	movq	%r13, 32(%rsp)
	movq	$1544, 40(%rsp)
	leaq	".Lggv$os::[os_windows.odin]::read_console$2"(%rip), %rcx
	movl	$407, %edx
	movl	$14, %r8d
	xorl	%r9d, %r9d
	callq	"runtime::slice_handle_error"
.LBB19_267:
	movq	%rbx, 40(%rsp)
	movq	%rbx, 32(%rsp)
	leaq	".Lggv$os::write_at$1"(%rip), %rcx
	movl	$595, %edx
.LBB19_268:
	movl	$8, %r8d
	movq	%r13, %r9
	callq	"runtime::slice_handle_error"
.LBB19_269:
	movq	%rdi, 40(%rsp)
	movq	%rsi, 32(%rsp)
	leaq	".Lggv$os::[os_windows.odin]::read_console$5"(%rip), %rcx
	movl	$425, %edx
	movl	$58, %r8d
	callq	"runtime::slice_handle_error"
.LBB19_270:
	movq	%rbx, 40(%rsp)
	movq	%rbx, 32(%rsp)
	leaq	".Lggv$os::read$1"(%rip), %rcx
	movl	$449, %edx
	movl	$46, %r8d
	xorl	%r9d, %r9d
	callq	"runtime::slice_handle_error"
	int3
	.section	.rdata,"dr"
	.p2align	2, 0x0
.LJTI19_0:
	.long	.LBB19_2-.LJTI19_0
	.long	.LBB19_110-.LJTI19_0
	.long	.LBB19_14-.LJTI19_0
	.long	.LBB19_74-.LJTI19_0
	.long	.LBB19_4-.LJTI19_0
	.long	.LBB19_113-.LJTI19_0
	.long	.LBB19_118-.LJTI19_0
	.long	.LBB19_106-.LJTI19_0
	.long	.LBB19_119-.LJTI19_0
	.long	.LBB19_13-.LJTI19_0
.LJTI19_1:
	.long	.LBB19_108-.LJTI19_1
	.long	.LBB19_226-.LJTI19_1
	.long	.LBB19_129-.LJTI19_1
	.long	.LBB19_129-.LJTI19_1
	.long	.LBB19_226-.LJTI19_1
	.long	.LBB19_197-.LJTI19_1
	.long	.LBB19_219-.LJTI19_1
	.long	.LBB19_226-.LJTI19_1
	.long	.LBB19_226-.LJTI19_1
	.long	.LBB19_226-.LJTI19_1
	.long	.LBB19_226-.LJTI19_1
	.long	.LBB19_226-.LJTI19_1
	.long	.LBB19_226-.LJTI19_1
	.long	.LBB19_226-.LJTI19_1
	.long	.LBB19_226-.LJTI19_1
	.long	.LBB19_226-.LJTI19_1
	.long	.LBB19_226-.LJTI19_1
	.long	.LBB19_226-.LJTI19_1
	.long	.LBB19_226-.LJTI19_1
	.long	.LBB19_226-.LJTI19_1
	.long	.LBB19_226-.LJTI19_1
	.long	.LBB19_226-.LJTI19_1
	.long	.LBB19_226-.LJTI19_1
	.long	.LBB19_226-.LJTI19_1
	.long	.LBB19_226-.LJTI19_1
	.long	.LBB19_226-.LJTI19_1
	.long	.LBB19_226-.LJTI19_1
	.long	.LBB19_226-.LJTI19_1
	.long	.LBB19_226-.LJTI19_1
	.long	.LBB19_226-.LJTI19_1
	.long	.LBB19_226-.LJTI19_1
	.long	.LBB19_226-.LJTI19_1
	.long	.LBB19_197-.LJTI19_1
	.long	.LBB19_226-.LJTI19_1
	.long	.LBB19_226-.LJTI19_1
	.long	.LBB19_226-.LJTI19_1
	.long	.LBB19_226-.LJTI19_1
	.long	.LBB19_226-.LJTI19_1
	.long	.LBB19_217-.LJTI19_1
	.long	.LBB19_226-.LJTI19_1
	.long	.LBB19_226-.LJTI19_1
	.long	.LBB19_226-.LJTI19_1
	.long	.LBB19_226-.LJTI19_1
	.long	.LBB19_226-.LJTI19_1
	.long	.LBB19_226-.LJTI19_1
	.long	.LBB19_226-.LJTI19_1
	.long	.LBB19_226-.LJTI19_1
	.long	.LBB19_226-.LJTI19_1
	.long	.LBB19_226-.LJTI19_1
	.long	.LBB19_226-.LJTI19_1
	.long	.LBB19_220-.LJTI19_1
	.long	.LBB19_226-.LJTI19_1
	.long	.LBB19_226-.LJTI19_1
	.long	.LBB19_226-.LJTI19_1
	.long	.LBB19_226-.LJTI19_1
	.long	.LBB19_226-.LJTI19_1
	.long	.LBB19_226-.LJTI19_1
	.long	.LBB19_226-.LJTI19_1
	.long	.LBB19_226-.LJTI19_1
	.long	.LBB19_226-.LJTI19_1
	.long	.LBB19_226-.LJTI19_1
	.long	.LBB19_226-.LJTI19_1
	.long	.LBB19_226-.LJTI19_1
	.long	.LBB19_226-.LJTI19_1
	.long	.LBB19_226-.LJTI19_1
	.long	.LBB19_226-.LJTI19_1
	.long	.LBB19_226-.LJTI19_1
	.long	.LBB19_226-.LJTI19_1
	.long	.LBB19_226-.LJTI19_1
	.long	.LBB19_226-.LJTI19_1
	.long	.LBB19_226-.LJTI19_1
	.long	.LBB19_226-.LJTI19_1
	.long	.LBB19_226-.LJTI19_1
	.long	.LBB19_226-.LJTI19_1
	.long	.LBB19_226-.LJTI19_1
	.long	.LBB19_226-.LJTI19_1
	.long	.LBB19_226-.LJTI19_1
	.long	.LBB19_226-.LJTI19_1
	.long	.LBB19_226-.LJTI19_1
	.long	.LBB19_226-.LJTI19_1
	.long	.LBB19_193-.LJTI19_1
.LJTI19_2:
	.long	.LBB19_225-.LJTI19_2
	.long	.LBB19_225-.LJTI19_2
	.long	.LBB19_243-.LJTI19_2
	.long	.LBB19_156-.LJTI19_2
	.long	.LBB19_239-.LJTI19_2
	.long	.LBB19_243-.LJTI19_2
	.long	.LBB19_243-.LJTI19_2
	.long	.LBB19_243-.LJTI19_2
	.long	.LBB19_243-.LJTI19_2
	.long	.LBB19_243-.LJTI19_2
	.long	.LBB19_243-.LJTI19_2
	.long	.LBB19_243-.LJTI19_2
	.long	.LBB19_243-.LJTI19_2
	.long	.LBB19_243-.LJTI19_2
	.long	.LBB19_243-.LJTI19_2
	.long	.LBB19_243-.LJTI19_2
	.long	.LBB19_243-.LJTI19_2
	.long	.LBB19_243-.LJTI19_2
	.long	.LBB19_243-.LJTI19_2
	.long	.LBB19_243-.LJTI19_2
	.long	.LBB19_243-.LJTI19_2
	.long	.LBB19_243-.LJTI19_2
	.long	.LBB19_243-.LJTI19_2
	.long	.LBB19_243-.LJTI19_2
	.long	.LBB19_243-.LJTI19_2
	.long	.LBB19_243-.LJTI19_2
	.long	.LBB19_243-.LJTI19_2
	.long	.LBB19_243-.LJTI19_2
	.long	.LBB19_243-.LJTI19_2
	.long	.LBB19_243-.LJTI19_2
	.long	.LBB19_156-.LJTI19_2
	.long	.LBB19_243-.LJTI19_2
	.long	.LBB19_243-.LJTI19_2
	.long	.LBB19_243-.LJTI19_2
	.long	.LBB19_243-.LJTI19_2
	.long	.LBB19_243-.LJTI19_2
	.long	.LBB19_244-.LJTI19_2
	.long	.LBB19_243-.LJTI19_2
	.long	.LBB19_243-.LJTI19_2
	.long	.LBB19_243-.LJTI19_2
	.long	.LBB19_243-.LJTI19_2
	.long	.LBB19_243-.LJTI19_2
	.long	.LBB19_243-.LJTI19_2
	.long	.LBB19_243-.LJTI19_2
	.long	.LBB19_243-.LJTI19_2
	.long	.LBB19_243-.LJTI19_2
	.long	.LBB19_243-.LJTI19_2
	.long	.LBB19_243-.LJTI19_2
	.long	.LBB19_240-.LJTI19_2
	.long	.LBB19_243-.LJTI19_2
	.long	.LBB19_243-.LJTI19_2
	.long	.LBB19_243-.LJTI19_2
	.long	.LBB19_243-.LJTI19_2
	.long	.LBB19_243-.LJTI19_2
	.long	.LBB19_243-.LJTI19_2
	.long	.LBB19_243-.LJTI19_2
	.long	.LBB19_243-.LJTI19_2
	.long	.LBB19_243-.LJTI19_2
	.long	.LBB19_243-.LJTI19_2
	.long	.LBB19_243-.LJTI19_2
	.long	.LBB19_243-.LJTI19_2
	.long	.LBB19_243-.LJTI19_2
	.long	.LBB19_243-.LJTI19_2
	.long	.LBB19_243-.LJTI19_2
	.long	.LBB19_243-.LJTI19_2
	.long	.LBB19_243-.LJTI19_2
	.long	.LBB19_243-.LJTI19_2
	.long	.LBB19_243-.LJTI19_2
	.long	.LBB19_243-.LJTI19_2
	.long	.LBB19_243-.LJTI19_2
	.long	.LBB19_243-.LJTI19_2
	.long	.LBB19_243-.LJTI19_2
	.long	.LBB19_243-.LJTI19_2
	.long	.LBB19_243-.LJTI19_2
	.long	.LBB19_243-.LJTI19_2
	.long	.LBB19_243-.LJTI19_2
	.long	.LBB19_243-.LJTI19_2
	.long	.LBB19_243-.LJTI19_2
	.long	.LBB19_216-.LJTI19_2
.LJTI19_3:
	.long	.LBB19_11-.LJTI19_3
	.long	.LBB19_237-.LJTI19_3
	.long	.LBB19_149-.LJTI19_3
	.long	.LBB19_149-.LJTI19_3
	.long	.LBB19_237-.LJTI19_3
	.long	.LBB19_213-.LJTI19_3
	.long	.LBB19_230-.LJTI19_3
	.long	.LBB19_237-.LJTI19_3
	.long	.LBB19_237-.LJTI19_3
	.long	.LBB19_237-.LJTI19_3
	.long	.LBB19_237-.LJTI19_3
	.long	.LBB19_237-.LJTI19_3
	.long	.LBB19_237-.LJTI19_3
	.long	.LBB19_237-.LJTI19_3
	.long	.LBB19_237-.LJTI19_3
	.long	.LBB19_237-.LJTI19_3
	.long	.LBB19_237-.LJTI19_3
	.long	.LBB19_237-.LJTI19_3
	.long	.LBB19_237-.LJTI19_3
	.long	.LBB19_237-.LJTI19_3
	.long	.LBB19_237-.LJTI19_3
	.long	.LBB19_237-.LJTI19_3
	.long	.LBB19_237-.LJTI19_3
	.long	.LBB19_237-.LJTI19_3
	.long	.LBB19_237-.LJTI19_3
	.long	.LBB19_237-.LJTI19_3
	.long	.LBB19_237-.LJTI19_3
	.long	.LBB19_237-.LJTI19_3
	.long	.LBB19_237-.LJTI19_3
	.long	.LBB19_237-.LJTI19_3
	.long	.LBB19_237-.LJTI19_3
	.long	.LBB19_237-.LJTI19_3
	.long	.LBB19_213-.LJTI19_3
	.long	.LBB19_237-.LJTI19_3
	.long	.LBB19_237-.LJTI19_3
	.long	.LBB19_237-.LJTI19_3
	.long	.LBB19_237-.LJTI19_3
	.long	.LBB19_237-.LJTI19_3
	.long	.LBB19_229-.LJTI19_3
	.long	.LBB19_237-.LJTI19_3
	.long	.LBB19_237-.LJTI19_3
	.long	.LBB19_237-.LJTI19_3
	.long	.LBB19_237-.LJTI19_3
	.long	.LBB19_237-.LJTI19_3
	.long	.LBB19_237-.LJTI19_3
	.long	.LBB19_237-.LJTI19_3
	.long	.LBB19_237-.LJTI19_3
	.long	.LBB19_237-.LJTI19_3
	.long	.LBB19_237-.LJTI19_3
	.long	.LBB19_237-.LJTI19_3
	.long	.LBB19_231-.LJTI19_3
	.long	.LBB19_237-.LJTI19_3
	.long	.LBB19_237-.LJTI19_3
	.long	.LBB19_237-.LJTI19_3
	.long	.LBB19_237-.LJTI19_3
	.long	.LBB19_237-.LJTI19_3
	.long	.LBB19_237-.LJTI19_3
	.long	.LBB19_237-.LJTI19_3
	.long	.LBB19_237-.LJTI19_3
	.long	.LBB19_237-.LJTI19_3
	.long	.LBB19_237-.LJTI19_3
	.long	.LBB19_237-.LJTI19_3
	.long	.LBB19_237-.LJTI19_3
	.long	.LBB19_237-.LJTI19_3
	.long	.LBB19_237-.LJTI19_3
	.long	.LBB19_237-.LJTI19_3
	.long	.LBB19_237-.LJTI19_3
	.long	.LBB19_237-.LJTI19_3
	.long	.LBB19_237-.LJTI19_3
	.long	.LBB19_237-.LJTI19_3
	.long	.LBB19_237-.LJTI19_3
	.long	.LBB19_237-.LJTI19_3
	.long	.LBB19_237-.LJTI19_3
	.long	.LBB19_237-.LJTI19_3
	.long	.LBB19_237-.LJTI19_3
	.long	.LBB19_237-.LJTI19_3
	.long	.LBB19_237-.LJTI19_3
	.long	.LBB19_237-.LJTI19_3
	.long	.LBB19_237-.LJTI19_3
	.long	.LBB19_237-.LJTI19_3
	.long	.LBB19_212-.LJTI19_3
.LJTI19_4:
	.long	.LBB19_95-.LJTI19_4
	.long	.LBB19_100-.LJTI19_4
	.long	.LBB19_84-.LJTI19_4
	.long	.LBB19_84-.LJTI19_4
	.long	.LBB19_100-.LJTI19_4
	.long	.LBB19_93-.LJTI19_4
	.long	.LBB19_96-.LJTI19_4
	.long	.LBB19_100-.LJTI19_4
	.long	.LBB19_100-.LJTI19_4
	.long	.LBB19_100-.LJTI19_4
	.long	.LBB19_100-.LJTI19_4
	.long	.LBB19_100-.LJTI19_4
	.long	.LBB19_100-.LJTI19_4
	.long	.LBB19_100-.LJTI19_4
	.long	.LBB19_100-.LJTI19_4
	.long	.LBB19_100-.LJTI19_4
	.long	.LBB19_100-.LJTI19_4
	.long	.LBB19_100-.LJTI19_4
	.long	.LBB19_100-.LJTI19_4
	.long	.LBB19_100-.LJTI19_4
	.long	.LBB19_100-.LJTI19_4
	.long	.LBB19_100-.LJTI19_4
	.long	.LBB19_100-.LJTI19_4
	.long	.LBB19_100-.LJTI19_4
	.long	.LBB19_100-.LJTI19_4
	.long	.LBB19_100-.LJTI19_4
	.long	.LBB19_100-.LJTI19_4
	.long	.LBB19_100-.LJTI19_4
	.long	.LBB19_100-.LJTI19_4
	.long	.LBB19_100-.LJTI19_4
	.long	.LBB19_100-.LJTI19_4
	.long	.LBB19_100-.LJTI19_4
	.long	.LBB19_93-.LJTI19_4
	.long	.LBB19_100-.LJTI19_4
	.long	.LBB19_100-.LJTI19_4
	.long	.LBB19_100-.LJTI19_4
	.long	.LBB19_100-.LJTI19_4
	.long	.LBB19_100-.LJTI19_4
	.long	.LBB19_94-.LJTI19_4
	.long	.LBB19_100-.LJTI19_4
	.long	.LBB19_100-.LJTI19_4
	.long	.LBB19_100-.LJTI19_4
	.long	.LBB19_100-.LJTI19_4
	.long	.LBB19_100-.LJTI19_4
	.long	.LBB19_100-.LJTI19_4
	.long	.LBB19_100-.LJTI19_4
	.long	.LBB19_100-.LJTI19_4
	.long	.LBB19_100-.LJTI19_4
	.long	.LBB19_100-.LJTI19_4
	.long	.LBB19_100-.LJTI19_4
	.long	.LBB19_97-.LJTI19_4
	.long	.LBB19_100-.LJTI19_4
	.long	.LBB19_100-.LJTI19_4
	.long	.LBB19_100-.LJTI19_4
	.long	.LBB19_100-.LJTI19_4
	.long	.LBB19_100-.LJTI19_4
	.long	.LBB19_100-.LJTI19_4
	.long	.LBB19_100-.LJTI19_4
	.long	.LBB19_100-.LJTI19_4
	.long	.LBB19_100-.LJTI19_4
	.long	.LBB19_100-.LJTI19_4
	.long	.LBB19_100-.LJTI19_4
	.long	.LBB19_100-.LJTI19_4
	.long	.LBB19_100-.LJTI19_4
	.long	.LBB19_100-.LJTI19_4
	.long	.LBB19_100-.LJTI19_4
	.long	.LBB19_100-.LJTI19_4
	.long	.LBB19_100-.LJTI19_4
	.long	.LBB19_100-.LJTI19_4
	.long	.LBB19_100-.LJTI19_4
	.long	.LBB19_100-.LJTI19_4
	.long	.LBB19_100-.LJTI19_4
	.long	.LBB19_100-.LJTI19_4
	.long	.LBB19_100-.LJTI19_4
	.long	.LBB19_100-.LJTI19_4
	.long	.LBB19_100-.LJTI19_4
	.long	.LBB19_100-.LJTI19_4
	.long	.LBB19_100-.LJTI19_4
	.long	.LBB19_100-.LJTI19_4
	.long	.LBB19_100-.LJTI19_4
	.long	.LBB19_92-.LJTI19_4
.LJTI19_5:
	.long	.LBB19_38-.LJTI19_5
	.long	.LBB19_37-.LJTI19_5
	.long	.LBB19_22-.LJTI19_5
	.long	.LBB19_22-.LJTI19_5
	.long	.LBB19_37-.LJTI19_5
	.long	.LBB19_31-.LJTI19_5
	.long	.LBB19_33-.LJTI19_5
	.long	.LBB19_37-.LJTI19_5
	.long	.LBB19_37-.LJTI19_5
	.long	.LBB19_37-.LJTI19_5
	.long	.LBB19_37-.LJTI19_5
	.long	.LBB19_37-.LJTI19_5
	.long	.LBB19_37-.LJTI19_5
	.long	.LBB19_37-.LJTI19_5
	.long	.LBB19_37-.LJTI19_5
	.long	.LBB19_37-.LJTI19_5
	.long	.LBB19_37-.LJTI19_5
	.long	.LBB19_37-.LJTI19_5
	.long	.LBB19_37-.LJTI19_5
	.long	.LBB19_37-.LJTI19_5
	.long	.LBB19_37-.LJTI19_5
	.long	.LBB19_37-.LJTI19_5
	.long	.LBB19_37-.LJTI19_5
	.long	.LBB19_37-.LJTI19_5
	.long	.LBB19_37-.LJTI19_5
	.long	.LBB19_37-.LJTI19_5
	.long	.LBB19_37-.LJTI19_5
	.long	.LBB19_37-.LJTI19_5
	.long	.LBB19_37-.LJTI19_5
	.long	.LBB19_37-.LJTI19_5
	.long	.LBB19_37-.LJTI19_5
	.long	.LBB19_37-.LJTI19_5
	.long	.LBB19_31-.LJTI19_5
	.long	.LBB19_37-.LJTI19_5
	.long	.LBB19_37-.LJTI19_5
	.long	.LBB19_37-.LJTI19_5
	.long	.LBB19_37-.LJTI19_5
	.long	.LBB19_37-.LJTI19_5
	.long	.LBB19_32-.LJTI19_5
	.long	.LBB19_37-.LJTI19_5
	.long	.LBB19_37-.LJTI19_5
	.long	.LBB19_37-.LJTI19_5
	.long	.LBB19_37-.LJTI19_5
	.long	.LBB19_37-.LJTI19_5
	.long	.LBB19_37-.LJTI19_5
	.long	.LBB19_37-.LJTI19_5
	.long	.LBB19_37-.LJTI19_5
	.long	.LBB19_37-.LJTI19_5
	.long	.LBB19_37-.LJTI19_5
	.long	.LBB19_37-.LJTI19_5
	.long	.LBB19_34-.LJTI19_5
	.long	.LBB19_37-.LJTI19_5
	.long	.LBB19_37-.LJTI19_5
	.long	.LBB19_37-.LJTI19_5
	.long	.LBB19_37-.LJTI19_5
	.long	.LBB19_37-.LJTI19_5
	.long	.LBB19_37-.LJTI19_5
	.long	.LBB19_37-.LJTI19_5
	.long	.LBB19_37-.LJTI19_5
	.long	.LBB19_37-.LJTI19_5
	.long	.LBB19_37-.LJTI19_5
	.long	.LBB19_37-.LJTI19_5
	.long	.LBB19_37-.LJTI19_5
	.long	.LBB19_37-.LJTI19_5
	.long	.LBB19_37-.LJTI19_5
	.long	.LBB19_37-.LJTI19_5
	.long	.LBB19_37-.LJTI19_5
	.long	.LBB19_37-.LJTI19_5
	.long	.LBB19_37-.LJTI19_5
	.long	.LBB19_37-.LJTI19_5
	.long	.LBB19_37-.LJTI19_5
	.long	.LBB19_37-.LJTI19_5
	.long	.LBB19_37-.LJTI19_5
	.long	.LBB19_37-.LJTI19_5
	.long	.LBB19_37-.LJTI19_5
	.long	.LBB19_37-.LJTI19_5
	.long	.LBB19_37-.LJTI19_5
	.long	.LBB19_37-.LJTI19_5
	.long	.LBB19_37-.LJTI19_5
	.long	.LBB19_37-.LJTI19_5
	.long	.LBB19_30-.LJTI19_5
.LJTI19_6:
	.long	.LBB19_158-.LJTI19_6
	.long	.LBB19_259-.LJTI19_6
	.long	.LBB19_180-.LJTI19_6
	.long	.LBB19_180-.LJTI19_6
	.long	.LBB19_259-.LJTI19_6
	.long	.LBB19_238-.LJTI19_6
	.long	.LBB19_255-.LJTI19_6
	.long	.LBB19_259-.LJTI19_6
	.long	.LBB19_259-.LJTI19_6
	.long	.LBB19_259-.LJTI19_6
	.long	.LBB19_259-.LJTI19_6
	.long	.LBB19_259-.LJTI19_6
	.long	.LBB19_259-.LJTI19_6
	.long	.LBB19_259-.LJTI19_6
	.long	.LBB19_259-.LJTI19_6
	.long	.LBB19_259-.LJTI19_6
	.long	.LBB19_259-.LJTI19_6
	.long	.LBB19_259-.LJTI19_6
	.long	.LBB19_259-.LJTI19_6
	.long	.LBB19_259-.LJTI19_6
	.long	.LBB19_259-.LJTI19_6
	.long	.LBB19_259-.LJTI19_6
	.long	.LBB19_259-.LJTI19_6
	.long	.LBB19_259-.LJTI19_6
	.long	.LBB19_259-.LJTI19_6
	.long	.LBB19_259-.LJTI19_6
	.long	.LBB19_259-.LJTI19_6
	.long	.LBB19_259-.LJTI19_6
	.long	.LBB19_259-.LJTI19_6
	.long	.LBB19_259-.LJTI19_6
	.long	.LBB19_259-.LJTI19_6
	.long	.LBB19_259-.LJTI19_6
	.long	.LBB19_238-.LJTI19_6
	.long	.LBB19_259-.LJTI19_6
	.long	.LBB19_259-.LJTI19_6
	.long	.LBB19_259-.LJTI19_6
	.long	.LBB19_259-.LJTI19_6
	.long	.LBB19_259-.LJTI19_6
	.long	.LBB19_143-.LJTI19_6
	.long	.LBB19_259-.LJTI19_6
	.long	.LBB19_259-.LJTI19_6
	.long	.LBB19_259-.LJTI19_6
	.long	.LBB19_259-.LJTI19_6
	.long	.LBB19_259-.LJTI19_6
	.long	.LBB19_259-.LJTI19_6
	.long	.LBB19_259-.LJTI19_6
	.long	.LBB19_259-.LJTI19_6
	.long	.LBB19_259-.LJTI19_6
	.long	.LBB19_259-.LJTI19_6
	.long	.LBB19_259-.LJTI19_6
	.long	.LBB19_256-.LJTI19_6
	.long	.LBB19_259-.LJTI19_6
	.long	.LBB19_259-.LJTI19_6
	.long	.LBB19_259-.LJTI19_6
	.long	.LBB19_259-.LJTI19_6
	.long	.LBB19_259-.LJTI19_6
	.long	.LBB19_259-.LJTI19_6
	.long	.LBB19_259-.LJTI19_6
	.long	.LBB19_259-.LJTI19_6
	.long	.LBB19_259-.LJTI19_6
	.long	.LBB19_259-.LJTI19_6
	.long	.LBB19_259-.LJTI19_6
	.long	.LBB19_259-.LJTI19_6
	.long	.LBB19_259-.LJTI19_6
	.long	.LBB19_259-.LJTI19_6
	.long	.LBB19_259-.LJTI19_6
	.long	.LBB19_259-.LJTI19_6
	.long	.LBB19_259-.LJTI19_6
	.long	.LBB19_259-.LJTI19_6
	.long	.LBB19_259-.LJTI19_6
	.long	.LBB19_259-.LJTI19_6
	.long	.LBB19_259-.LJTI19_6
	.long	.LBB19_259-.LJTI19_6
	.long	.LBB19_259-.LJTI19_6
	.long	.LBB19_259-.LJTI19_6
	.long	.LBB19_259-.LJTI19_6
	.long	.LBB19_259-.LJTI19_6
	.long	.LBB19_259-.LJTI19_6
	.long	.LBB19_259-.LJTI19_6
	.long	.LBB19_259-.LJTI19_6
	.long	.LBB19_236-.LJTI19_6
.LJTI19_7:
	.long	.LBB19_112-.LJTI19_7
	.long	.LBB19_202-.LJTI19_7
	.long	.LBB19_137-.LJTI19_7
	.long	.LBB19_137-.LJTI19_7
	.long	.LBB19_202-.LJTI19_7
	.long	.LBB19_176-.LJTI19_7
	.long	.LBB19_198-.LJTI19_7
	.long	.LBB19_202-.LJTI19_7
	.long	.LBB19_202-.LJTI19_7
	.long	.LBB19_202-.LJTI19_7
	.long	.LBB19_202-.LJTI19_7
	.long	.LBB19_202-.LJTI19_7
	.long	.LBB19_202-.LJTI19_7
	.long	.LBB19_202-.LJTI19_7
	.long	.LBB19_202-.LJTI19_7
	.long	.LBB19_202-.LJTI19_7
	.long	.LBB19_202-.LJTI19_7
	.long	.LBB19_202-.LJTI19_7
	.long	.LBB19_202-.LJTI19_7
	.long	.LBB19_202-.LJTI19_7
	.long	.LBB19_202-.LJTI19_7
	.long	.LBB19_202-.LJTI19_7
	.long	.LBB19_202-.LJTI19_7
	.long	.LBB19_202-.LJTI19_7
	.long	.LBB19_202-.LJTI19_7
	.long	.LBB19_202-.LJTI19_7
	.long	.LBB19_202-.LJTI19_7
	.long	.LBB19_202-.LJTI19_7
	.long	.LBB19_202-.LJTI19_7
	.long	.LBB19_202-.LJTI19_7
	.long	.LBB19_202-.LJTI19_7
	.long	.LBB19_202-.LJTI19_7
	.long	.LBB19_176-.LJTI19_7
	.long	.LBB19_202-.LJTI19_7
	.long	.LBB19_202-.LJTI19_7
	.long	.LBB19_202-.LJTI19_7
	.long	.LBB19_202-.LJTI19_7
	.long	.LBB19_202-.LJTI19_7
	.long	.LBB19_133-.LJTI19_7
	.long	.LBB19_202-.LJTI19_7
	.long	.LBB19_202-.LJTI19_7
	.long	.LBB19_202-.LJTI19_7
	.long	.LBB19_202-.LJTI19_7
	.long	.LBB19_202-.LJTI19_7
	.long	.LBB19_202-.LJTI19_7
	.long	.LBB19_202-.LJTI19_7
	.long	.LBB19_202-.LJTI19_7
	.long	.LBB19_202-.LJTI19_7
	.long	.LBB19_202-.LJTI19_7
	.long	.LBB19_202-.LJTI19_7
	.long	.LBB19_222-.LJTI19_7
	.long	.LBB19_202-.LJTI19_7
	.long	.LBB19_202-.LJTI19_7
	.long	.LBB19_202-.LJTI19_7
	.long	.LBB19_202-.LJTI19_7
	.long	.LBB19_202-.LJTI19_7
	.long	.LBB19_202-.LJTI19_7
	.long	.LBB19_202-.LJTI19_7
	.long	.LBB19_202-.LJTI19_7
	.long	.LBB19_202-.LJTI19_7
	.long	.LBB19_202-.LJTI19_7
	.long	.LBB19_202-.LJTI19_7
	.long	.LBB19_202-.LJTI19_7
	.long	.LBB19_202-.LJTI19_7
	.long	.LBB19_202-.LJTI19_7
	.long	.LBB19_202-.LJTI19_7
	.long	.LBB19_202-.LJTI19_7
	.long	.LBB19_202-.LJTI19_7
	.long	.LBB19_202-.LJTI19_7
	.long	.LBB19_202-.LJTI19_7
	.long	.LBB19_202-.LJTI19_7
	.long	.LBB19_202-.LJTI19_7
	.long	.LBB19_202-.LJTI19_7
	.long	.LBB19_202-.LJTI19_7
	.long	.LBB19_202-.LJTI19_7
	.long	.LBB19_202-.LJTI19_7
	.long	.LBB19_202-.LJTI19_7
	.long	.LBB19_202-.LJTI19_7
	.long	.LBB19_202-.LJTI19_7
	.long	.LBB19_202-.LJTI19_7
	.long	.LBB19_167-.LJTI19_7
.LJTI19_8:
	.long	.LBB19_112-.LJTI19_8
	.long	.LBB19_202-.LJTI19_8
	.long	.LBB19_137-.LJTI19_8
	.long	.LBB19_137-.LJTI19_8
	.long	.LBB19_202-.LJTI19_8
	.long	.LBB19_176-.LJTI19_8
	.long	.LBB19_198-.LJTI19_8
	.long	.LBB19_202-.LJTI19_8
	.long	.LBB19_202-.LJTI19_8
	.long	.LBB19_202-.LJTI19_8
	.long	.LBB19_202-.LJTI19_8
	.long	.LBB19_202-.LJTI19_8
	.long	.LBB19_202-.LJTI19_8
	.long	.LBB19_202-.LJTI19_8
	.long	.LBB19_202-.LJTI19_8
	.long	.LBB19_202-.LJTI19_8
	.long	.LBB19_202-.LJTI19_8
	.long	.LBB19_202-.LJTI19_8
	.long	.LBB19_202-.LJTI19_8
	.long	.LBB19_202-.LJTI19_8
	.long	.LBB19_202-.LJTI19_8
	.long	.LBB19_202-.LJTI19_8
	.long	.LBB19_202-.LJTI19_8
	.long	.LBB19_202-.LJTI19_8
	.long	.LBB19_202-.LJTI19_8
	.long	.LBB19_202-.LJTI19_8
	.long	.LBB19_202-.LJTI19_8
	.long	.LBB19_202-.LJTI19_8
	.long	.LBB19_202-.LJTI19_8
	.long	.LBB19_202-.LJTI19_8
	.long	.LBB19_202-.LJTI19_8
	.long	.LBB19_202-.LJTI19_8
	.long	.LBB19_176-.LJTI19_8
	.long	.LBB19_202-.LJTI19_8
	.long	.LBB19_202-.LJTI19_8
	.long	.LBB19_202-.LJTI19_8
	.long	.LBB19_202-.LJTI19_8
	.long	.LBB19_202-.LJTI19_8
	.long	.LBB19_133-.LJTI19_8
	.long	.LBB19_202-.LJTI19_8
	.long	.LBB19_202-.LJTI19_8
	.long	.LBB19_202-.LJTI19_8
	.long	.LBB19_202-.LJTI19_8
	.long	.LBB19_202-.LJTI19_8
	.long	.LBB19_202-.LJTI19_8
	.long	.LBB19_202-.LJTI19_8
	.long	.LBB19_202-.LJTI19_8
	.long	.LBB19_202-.LJTI19_8
	.long	.LBB19_202-.LJTI19_8
	.long	.LBB19_202-.LJTI19_8
	.long	.LBB19_222-.LJTI19_8
	.long	.LBB19_202-.LJTI19_8
	.long	.LBB19_202-.LJTI19_8
	.long	.LBB19_202-.LJTI19_8
	.long	.LBB19_202-.LJTI19_8
	.long	.LBB19_202-.LJTI19_8
	.long	.LBB19_202-.LJTI19_8
	.long	.LBB19_202-.LJTI19_8
	.long	.LBB19_202-.LJTI19_8
	.long	.LBB19_202-.LJTI19_8
	.long	.LBB19_202-.LJTI19_8
	.long	.LBB19_202-.LJTI19_8
	.long	.LBB19_202-.LJTI19_8
	.long	.LBB19_202-.LJTI19_8
	.long	.LBB19_202-.LJTI19_8
	.long	.LBB19_202-.LJTI19_8
	.long	.LBB19_202-.LJTI19_8
	.long	.LBB19_202-.LJTI19_8
	.long	.LBB19_202-.LJTI19_8
	.long	.LBB19_202-.LJTI19_8
	.long	.LBB19_202-.LJTI19_8
	.long	.LBB19_202-.LJTI19_8
	.long	.LBB19_202-.LJTI19_8
	.long	.LBB19_202-.LJTI19_8
	.long	.LBB19_202-.LJTI19_8
	.long	.LBB19_202-.LJTI19_8
	.long	.LBB19_202-.LJTI19_8
	.long	.LBB19_202-.LJTI19_8
	.long	.LBB19_202-.LJTI19_8
	.long	.LBB19_202-.LJTI19_8
	.long	.LBB19_167-.LJTI19_8
	.text
	.seh_endproc

	.def	"runtime::[procs_windows_amd64.odin]::windows_trap_array_bounds";
	.scl	3;
	.type	32;
	.endef
	.p2align	4
"runtime::[procs_windows_amd64.odin]::windows_trap_array_bounds":
.seh_proc "runtime::[procs_windows_amd64.odin]::windows_trap_array_bounds"
	subq	$40, %rsp
	.seh_stackalloc 40
	.seh_endprologue
	movl	$-1073741684, %ecx
	xorl	%edx, %edx
	xorl	%r8d, %r8d
	xorl	%r9d, %r9d
	callq	RaiseException
	int3
	.seh_endproc

	.def	"runtime::type_assertion_trap";
	.scl	3;
	.type	32;
	.endef
	.p2align	4
"runtime::type_assertion_trap":
.seh_proc "runtime::type_assertion_trap"
	subq	$40, %rsp
	.seh_stackalloc 40
	.seh_endprologue
	callq	"runtime::[procs_windows_amd64.odin]::windows_trap_type_assertion"
	int3
	.seh_endproc

	.def	"runtime::[procs_windows_amd64.odin]::windows_trap_type_assertion";
	.scl	3;
	.type	32;
	.endef
	.p2align	4
"runtime::[procs_windows_amd64.odin]::windows_trap_type_assertion":
.seh_proc "runtime::[procs_windows_amd64.odin]::windows_trap_type_assertion"
	subq	$40, %rsp
	.seh_stackalloc 40
	.seh_endprologue
	callq	"runtime::[procs_windows_amd64.odin]::windows_trap_array_bounds"
	int3
	.seh_endproc

	.def	"io::write_u64";
	.scl	3;
	.type	32;
	.endef
	.p2align	4
"io::write_u64":
.seh_proc "io::write_u64"
	pushq	%r15
	.seh_pushreg %r15
	pushq	%r14
	.seh_pushreg %r14
	pushq	%rsi
	.seh_pushreg %rsi
	pushq	%rdi
	.seh_pushreg %rdi
	pushq	%rbx
	.seh_pushreg %rbx
	subq	$160, %rsp
	.seh_stackalloc 160
	.seh_endprologue
	movq	%r9, %rsi
	movq	%r8, %rdi
	movq	240(%rsp), %r15
	movq	(%rcx), %r14
	movq	8(%rcx), %rbx
	vxorps	%xmm0, %xmm0, %xmm0
	vmovups	%ymm0, 128(%rsp)
	leaq	128(%rsp), %rax
	movq	%rax, 96(%rsp)
	movq	$32, 104(%rsp)
	vxorps	%xmm0, %xmm0, %xmm0
	vmovaps	%xmm0, 80(%rsp)
	movq	%r15, 64(%rsp)
	leaq	"strconv::digits"(%rip), %rax
	movq	%rax, 48(%rsp)
	movb	$0, 56(%rsp)
	movq	$64, 40(%rsp)
	movb	$0, 32(%rsp)
	leaq	80(%rsp), %rcx
	leaq	96(%rsp), %rax
	movl	$10, %r9d
	movq	%rdx, %r8
	movq	%rax, %rdx
	vzeroupper
	callq	"strconv::write_bits"
	vmovaps	80(%rsp), %xmm0
	vmovups	%xmm0, 112(%rsp)
	testq	%r14, %r14
	je	.LBB23_1
	movq	$0, 72(%rsp)
	movq	%r15, 48(%rsp)
	leaq	72(%rsp), %rax
	movq	%rax, 40(%rsp)
	movq	$0, 32(%rsp)
	leaq	112(%rsp), %r8
	movl	$4, %edx
	movq	%rbx, %rcx
	xorl	%r9d, %r9d
	callq	*%r14
	movq	72(%rsp), %rcx
	addq	%rcx, (%rdi)
	jmp	.LBB23_3
.LBB23_1:
	movl	$-1, %eax
	xorl	%ecx, %ecx
.LBB23_3:
	movq	%rcx, (%rsi)
	addq	$160, %rsp
	popq	%rbx
	popq	%rdi
	popq	%rsi
	popq	%r14
	popq	%r15
	retq
	.seh_endproc

	.def	"io::write_i64";
	.scl	3;
	.type	32;
	.endef
	.p2align	4
"io::write_i64":
.seh_proc "io::write_i64"
	pushq	%r15
	.seh_pushreg %r15
	pushq	%r14
	.seh_pushreg %r14
	pushq	%rsi
	.seh_pushreg %rsi
	pushq	%rdi
	.seh_pushreg %rdi
	pushq	%rbx
	.seh_pushreg %rbx
	subq	$160, %rsp
	.seh_stackalloc 160
	.seh_endprologue
	movq	%r9, %rsi
	movq	%r8, %rdi
	movq	240(%rsp), %r15
	movq	(%rcx), %r14
	movq	8(%rcx), %rbx
	vxorps	%xmm0, %xmm0, %xmm0
	vmovups	%ymm0, 128(%rsp)
	leaq	128(%rsp), %rax
	movq	%rax, 96(%rsp)
	movq	$32, 104(%rsp)
	vxorps	%xmm0, %xmm0, %xmm0
	vmovaps	%xmm0, 80(%rsp)
	movq	%r15, 64(%rsp)
	leaq	"strconv::digits"(%rip), %rax
	movq	%rax, 48(%rsp)
	movb	$0, 56(%rsp)
	movq	$64, 40(%rsp)
	movb	$1, 32(%rsp)
	leaq	80(%rsp), %rcx
	leaq	96(%rsp), %rax
	movl	$10, %r9d
	movq	%rdx, %r8
	movq	%rax, %rdx
	vzeroupper
	callq	"strconv::write_bits"
	vmovaps	80(%rsp), %xmm0
	vmovups	%xmm0, 112(%rsp)
	testq	%r14, %r14
	je	.LBB24_1
	movq	$0, 72(%rsp)
	movq	%r15, 48(%rsp)
	leaq	72(%rsp), %rax
	movq	%rax, 40(%rsp)
	movq	$0, 32(%rsp)
	leaq	112(%rsp), %r8
	movl	$4, %edx
	movq	%rbx, %rcx
	xorl	%r9d, %r9d
	callq	*%r14
	movq	72(%rsp), %rcx
	testq	%rdi, %rdi
	je	.LBB24_4
	addq	%rcx, (%rdi)
	jmp	.LBB24_4
.LBB24_1:
	movl	$-1, %eax
	xorl	%ecx, %ecx
.LBB24_4:
	movq	%rcx, (%rsi)
	addq	$160, %rsp
	popq	%rbx
	popq	%rdi
	popq	%rsi
	popq	%r14
	popq	%r15
	retq
	.seh_endproc

	.def	"runtime::slice_handle_error";
	.scl	3;
	.type	32;
	.endef
	.p2align	4
"runtime::slice_handle_error":
.seh_proc "runtime::slice_handle_error"
	pushq	%rsi
	.seh_pushreg %rsi
	pushq	%rdi
	.seh_pushreg %rdi
	pushq	%rbx
	.seh_pushreg %rbx
	subq	$80, %rsp
	.seh_stackalloc 80
	.seh_endprologue
	movq	%r9, %rdi
	movq	152(%rsp), %rsi
	movq	144(%rsp), %rbx
	vmovups	(%rcx), %xmm0
	vxorps	%xmm1, %xmm1, %xmm1
	vmovups	%xmm1, 64(%rsp)
	vmovups	%xmm0, 40(%rsp)
	movl	%edx, 56(%rsp)
	movl	%r8d, 60(%rsp)
	leaq	40(%rsp), %rcx
	callq	"runtime::print_caller_location"
	leaq	".Lggv$runtime::slice_handle_error$1"(%rip), %rcx
	callq	"runtime::print_string"
	movq	%rdi, %rcx
	callq	"runtime::print_i64"
	leaq	".Lggv$runtime::slice_handle_error$2"(%rip), %rcx
	callq	"runtime::print_string"
	movq	%rbx, %rcx
	callq	"runtime::print_i64"
	leaq	".Lggv$runtime::slice_handle_error$3"(%rip), %rcx
	callq	"runtime::print_string"
	movq	%rsi, %rcx
	callq	"runtime::print_i64"
	movb	$10, %cl
	callq	"runtime::print_byte"
	callq	"runtime::bounds_trap"
	int3
	.seh_endproc

	.def	"bufio::writer_flush";
	.scl	3;
	.type	32;
	.endef
	.p2align	4
"bufio::writer_flush":
.seh_proc "bufio::writer_flush"
	pushq	%r14
	.seh_pushreg %r14
	pushq	%rsi
	.seh_pushreg %rsi
	pushq	%rdi
	.seh_pushreg %rdi
	pushq	%rbx
	.seh_pushreg %rbx
	subq	$88, %rsp
	.seh_stackalloc 88
	.seh_endprologue
	movl	56(%rcx), %edi
	testl	%edi, %edi
	jne	.LBB26_14
	movq	48(%rcx), %r9
	testq	%r9, %r9
	je	.LBB26_2
	movq	8(%rcx), %rax
	cmpq	%rax, %r9
	jg	.LBB26_15
	movq	%rax, %r8
	orq	%r9, %r8
	js	.LBB26_15
	movq	(%rcx), %r8
	movq	32(%rcx), %r10
	movq	40(%rcx), %rax
	movq	%r8, 72(%rsp)
	movq	%r9, 80(%rsp)
	testq	%r10, %r10
	je	.LBB26_16
	movq	$0, 64(%rsp)
	movq	%rdx, 48(%rsp)
	leaq	64(%rsp), %rdx
	movq	%rdx, 40(%rsp)
	movq	$0, 32(%rsp)
	xorl	%edi, %edi
	leaq	72(%rsp), %r8
	movl	$4, %edx
	movq	%rcx, %r14
	movq	%rax, %rcx
	xorl	%r9d, %r9d
	callq	*%r10
	movq	%r14, %rcx
	movq	64(%rsp), %rsi
	movq	48(%r14), %r9
	cmpq	%rsi, %r9
	movl	$3, %ebx
	cmovlel	%eax, %ebx
	testl	%eax, %eax
	cmovnel	%eax, %ebx
	testl	%ebx, %ebx
	je	.LBB26_13
	movq	%r9, %r8
	subq	%rsi, %r8
	setle	%al
	testq	%rsi, %rsi
	setle	%dl
	orb	%al, %dl
	jne	.LBB26_12
	movq	8(%rcx), %rax
	cmpq	%rax, %r8
	jg	.LBB26_17
	cmpq	%rax, %r9
	jg	.LBB26_18
	cmpq	%rax, %rsi
	jg	.LBB26_18
	movq	(%rcx), %rcx
	leaq	(%rcx,%rsi), %rdx
	callq	memmove
	movq	%r14, %rcx
	movq	48(%r14), %r9
	jmp	.LBB26_12
.LBB26_2:
	xorl	%edi, %edi
	jmp	.LBB26_14
.LBB26_16:
	movl	$-1, %ebx
	xorl	%esi, %esi
.LBB26_12:
	subq	%rsi, %r9
	movq	%r9, 48(%rcx)
	movl	%ebx, 56(%rcx)
	movl	%ebx, %edi
	jmp	.LBB26_14
.LBB26_13:
	movq	$0, 48(%rcx)
.LBB26_14:
	movl	%edi, %eax
	addq	$88, %rsp
	popq	%rbx
	popq	%rdi
	popq	%rsi
	popq	%r14
	retq
.LBB26_15:
	movq	%rax, 40(%rsp)
	movq	%r9, 32(%rsp)
	leaq	".Lggv$bufio::writer_flush$1"(%rip), %rcx
	movl	$65, %edx
	movl	$32, %r8d
	xorl	%r9d, %r9d
	callq	"runtime::slice_handle_error"
.LBB26_17:
	movq	%rax, 40(%rsp)
	movq	%r8, 32(%rsp)
	leaq	".Lggv$bufio::writer_flush$2"(%rip), %rcx
	movl	$71, %edx
	movl	$14, %r8d
	xorl	%r9d, %r9d
	callq	"runtime::slice_handle_error"
.LBB26_18:
	movq	%rax, 40(%rsp)
	movq	%r9, 32(%rsp)
	leaq	".Lggv$bufio::writer_flush$3"(%rip), %rcx
	movl	$71, %edx
	movl	$29, %r8d
	movq	%rsi, %r9
	callq	"runtime::slice_handle_error"
	int3
	.seh_endproc

	.def	"runtime::multi_pointer_slice_handle_error";
	.scl	3;
	.type	32;
	.endef
	.p2align	4
"runtime::multi_pointer_slice_handle_error":
.seh_proc "runtime::multi_pointer_slice_handle_error"
	pushq	%rsi
	.seh_pushreg %rsi
	pushq	%rdi
	.seh_pushreg %rdi
	subq	$72, %rsp
	.seh_stackalloc 72
	.seh_endprologue
	movq	%r9, %rsi
	movq	128(%rsp), %rdi
	vmovups	(%rcx), %xmm0
	vxorps	%xmm1, %xmm1, %xmm1
	vmovups	%xmm1, 56(%rsp)
	vmovups	%xmm0, 32(%rsp)
	movl	%edx, 48(%rsp)
	movl	%r8d, 52(%rsp)
	leaq	32(%rsp), %rcx
	callq	"runtime::print_caller_location"
	leaq	".Lggv$runtime::multi_pointer_slice_handle_error$1"(%rip), %rcx
	callq	"runtime::print_string"
	movq	%rsi, %rcx
	callq	"runtime::print_i64"
	leaq	".Lggv$runtime::multi_pointer_slice_handle_error$2"(%rip), %rcx
	callq	"runtime::print_string"
	movq	%rdi, %rcx
	callq	"runtime::print_i64"
	movb	$10, %cl
	callq	"runtime::print_byte"
	callq	"runtime::bounds_trap"
	int3
	.seh_endproc

	.def	main;
	.scl	2;
	.type	32;
	.endef
	.globl	main
	.p2align	4
main:
.seh_proc main
	pushq	%rsi
	.seh_pushreg %rsi
	subq	$160, %rsp
	.seh_stackalloc 160
	.seh_endprologue
	movslq	%ecx, %rax
	testl	%eax, %eax
	js	.LBB28_2
	movq	%rdx, "runtime::args__"(%rip)
	movq	%rax, "runtime::args__"+8(%rip)
	leaq	"runtime::heap_allocator_proc"(%rip), %rax
	movq	%rax, 48(%rsp)
	movq	$0, 56(%rsp)
	leaq	"runtime::default_temp_allocator_proc"(%rip), %rax
	movq	%rax, 64(%rsp)
	movl	_tls_index(%rip), %eax
	movq	%gs:88, %rcx
	movq	(%rcx,%rax,8), %rax
	leaq	"runtime::global_default_temp_allocator_data"@SECREL32(%rax), %rax
	movq	%rax, 72(%rsp)
	leaq	"runtime::default_assertion_failure_proc"(%rip), %rax
	movq	%rax, 80(%rsp)
	leaq	"runtime::default_logger_proc"(%rip), %rax
	movq	%rax, 88(%rsp)
	vxorps	%xmm0, %xmm0, %xmm0
	vmovups	%xmm0, 96(%rsp)
	movq	$0, 112(%rsp)
	leaq	"runtime::default_random_generator_proc"(%rip), %rax
	movq	%rax, 120(%rsp)
	vxorps	%xmm0, %xmm0, %xmm0
	vmovups	%ymm0, 128(%rsp)
	leaq	48(%rsp), %rsi
	movq	%rsi, %rcx
	vzeroupper
	callq	__$startup_runtime
	movq	%rsi, %rcx
	callq	"main::main"
	movq	%rsi, %rcx
	callq	__$cleanup_runtime
	xorl	%eax, %eax
	addq	$160, %rsp
	popq	%rsi
	retq
.LBB28_2:
	movq	%rax, 32(%rsp)
	leaq	.Lggv$main$1(%rip), %rcx
	movl	$55, %edx
	movl	$17, %r8d
	xorl	%r9d, %r9d
	callq	"runtime::multi_pointer_slice_handle_error"
	int3
	.seh_endproc

	.def	"runtime::default_temp_allocator_proc";
	.scl	3;
	.type	32;
	.endef
	.p2align	4
"runtime::default_temp_allocator_proc":
.seh_proc "runtime::default_temp_allocator_proc"
	pushq	%r15
	.seh_pushreg %r15
	pushq	%r14
	.seh_pushreg %r14
	pushq	%r13
	.seh_pushreg %r13
	pushq	%r12
	.seh_pushreg %r12
	pushq	%rsi
	.seh_pushreg %rsi
	pushq	%rdi
	.seh_pushreg %rdi
	pushq	%rbp
	.seh_pushreg %rbp
	pushq	%rbx
	.seh_pushreg %rbx
	subq	$200, %rsp
	.seh_stackalloc 200
	vmovaps	%xmm6, 176(%rsp)
	.seh_savexmm %xmm6, 176
	.seh_endprologue
	cmpb	$7, %dl
	ja	.LBB29_33
	movq	%rcx, %rdi
	movq	336(%rsp), %rcx
	movq	320(%rsp), %r12
	movq	304(%rsp), %rsi
	movzbl	%dl, %eax
	leaq	.LJTI29_0(%rip), %rdx
	movslq	(%rdx,%rax,4), %rax
	addq	%rdx, %rax
	jmpq	*%rax
.LBB29_11:
	movb	$4, %al
.LBB29_25:
	xorl	%esi, %esi
	xorl	%r8d, %r8d
	jmp	.LBB29_35
.LBB29_8:
	testq	%rsi, %rsi
	je	.LBB29_36
	movq	312(%rsp), %r14
	cmpq	%r14, %r8
	jne	.LBB29_10
	testq	%r8, %r8
	jns	.LBB29_34
	movq	%r8, 32(%rsp)
	leaq	".Lggv$runtime::arena_allocator_proc$1"(%rip), %rcx
	movl	$219, %edx
	movl	$19, %r8d
	xorl	%r9d, %r9d
	callq	"runtime::multi_pointer_slice_handle_error"
.LBB29_36:
	vxorps	%xmm0, %xmm0, %xmm0
	vmovaps	%xmm0, 48(%rsp)
	movq	%rcx, 40(%rsp)
	leaq	48(%rsp), %rax
	movq	%rax, 32(%rsp)
	movq	%rdi, %rcx
	movq	%r8, %rdx
	movq	%r9, %r8
	movq	%r12, %r9
	callq	"runtime::arena_alloc"
	movq	48(%rsp), %rsi
	movq	56(%rsp), %r8
	jmp	.LBB29_35
.LBB29_2:
	movq	16(%rdi), %rcx
	testq	%rcx, %rcx
	je	.LBB29_7
	leaq	96(%rsp), %r15
	leaq	"runtime::default_assertion_failure_proc"(%rip), %r13
	leaq	"runtime::default_logger_proc"(%rip), %rbp
	vxorps	%xmm6, %xmm6, %xmm6
	leaq	"runtime::default_random_generator_proc"(%rip), %rbx
	leaq	160(%rsp), %rsi
	leaq	48(%rsp), %r14
	.p2align	4
.LBB29_4:
	movq	(%rcx), %rax
	testq	%rax, %rax
	je	.LBB29_6
	movq	%rax, 16(%rdi)
	movq	40(%rcx), %rax
	subq	%rax, 32(%rdi)
	movq	8(%rcx), %rax
	movq	16(%rcx), %rdx
	movq	%rax, 160(%rsp)
	movq	%rdx, 168(%rsp)
	leaq	"runtime::default_temp_allocator_proc"(%rip), %r8
	movq	%r8, 64(%rsp)
	movl	_tls_index(%rip), %r8d
	movq	%gs:88, %r9
	movq	(%r9,%r8,8), %r8
	leaq	"runtime::global_default_temp_allocator_data"@SECREL32(%r8), %r8
	movq	%r8, 72(%rsp)
	movq	%r13, 80(%rsp)
	movq	%rbp, 88(%rsp)
	vmovups	%xmm6, (%r15)
	movq	$0, 16(%r15)
	movq	%rbx, 120(%rsp)
	vxorps	%xmm0, %xmm0, %xmm0
	vmovups	%ymm0, 32(%r15)
	movq	%rax, 48(%rsp)
	movq	%rdx, 56(%rsp)
	movq	%rsi, %rdx
	movq	%r12, %r8
	movq	%r14, %r9
	vzeroupper
	callq	"runtime::mem_free"
	movq	16(%rdi), %rcx
	testq	%rcx, %rcx
	jne	.LBB29_4
	jmp	.LBB29_7
.LBB29_31:
	testq	%rsi, %rsi
	je	.LBB29_33
	movb	$93, (%rsi)
	jmp	.LBB29_33
.LBB29_10:
	testq	%r8, %r8
	je	.LBB29_11
	leaq	-1(%r9), %rax
	testq	%rsi, %rax
	je	.LBB29_15
.LBB29_24:
	vxorps	%xmm0, %xmm0, %xmm0
	vmovaps	%xmm0, 48(%rsp)
	movq	%rcx, 40(%rsp)
	leaq	48(%rsp), %rax
	movq	%rax, 32(%rsp)
	movq	%rdi, %rcx
	movq	%r8, %rdx
	movq	%r9, %r8
	movq	%r12, %r9
	callq	"runtime::arena_alloc"
	testb	%al, %al
	jne	.LBB29_25
	movq	48(%rsp), %rdi
	testq	%rdi, %rdi
	je	.LBB29_33
	testq	%r14, %r14
	js	.LBB29_38
	movq	56(%rsp), %r8
	cmpq	%r14, %r8
	cmovlq	%r8, %r14
	testq	%r14, %r14
	jle	.LBB29_29
	movq	%rdi, %rcx
	movq	%rsi, %rdx
	movq	%r8, %rsi
	movq	%r14, %r8
	callq	memmove
	movq	%rsi, %r8
.LBB29_29:
	xorl	%eax, %eax
	movq	%rdi, %rsi
	jmp	.LBB29_35
.LBB29_6:
	movq	24(%rcx), %rax
	movq	32(%rcx), %r8
	movq	%rax, %rcx
	xorl	%edx, %edx
	callq	memset
	movq	16(%rdi), %rax
	movq	$0, 32(%rax)
.LBB29_7:
	movq	$0, 24(%rdi)
.LBB29_33:
	xorl	%esi, %esi
	xorl	%r8d, %r8d
.LBB29_34:
	xorl	%eax, %eax
.LBB29_35:
	movq	328(%rsp), %rcx
	movq	%rsi, (%rcx)
	movq	%r8, 8(%rcx)
	vmovaps	176(%rsp), %xmm6
	addq	$200, %rsp
	popq	%rbx
	popq	%rbp
	popq	%rdi
	popq	%rsi
	popq	%r12
	popq	%r13
	popq	%r14
	popq	%r15
	retq
.LBB29_15:
	cmpq	%r14, %r8
	jae	.LBB29_18
	testq	%r8, %r8
	jns	.LBB29_34
	movq	%r8, 32(%rsp)
	leaq	".Lggv$runtime::arena_allocator_proc$2"(%rip), %rcx
	movl	$227, %edx
	movl	$20, %r8d
	xorl	%r9d, %r9d
	callq	"runtime::multi_pointer_slice_handle_error"
.LBB29_18:
	movq	16(%rdi), %r10
	testq	%r10, %r10
	je	.LBB29_24
	movq	24(%r10), %rdx
	movq	%rsi, %rax
	subq	%rdx, %rax
	leaq	(%rax,%r14), %r11
	cmpq	%r11, %rax
	jae	.LBB29_24
	cmpq	32(%r10), %r11
	jne	.LBB29_24
	leaq	(%rax,%r8), %r11
	cmpq	40(%r10), %r11
	ja	.LBB29_24
	movq	%r11, 32(%r10)
	cmpq	%r11, %rax
	jg	.LBB29_37
	addq	%rax, %rdx
	xorl	%eax, %eax
	movq	%rdx, %rsi
	jmp	.LBB29_35
.LBB29_38:
	movq	%r14, 32(%rsp)
	leaq	".Lggv$runtime::arena_allocator_proc$4"(%rip), %rcx
	movl	$249, %edx
	movl	$28, %r8d
	xorl	%r9d, %r9d
	callq	"runtime::multi_pointer_slice_handle_error"
.LBB29_37:
	movq	%r11, 32(%rsp)
	leaq	".Lggv$runtime::arena_allocator_proc$3"(%rip), %rcx
	movl	$238, %edx
	movl	$23, %r8d
	movq	%rax, %r9
	callq	"runtime::multi_pointer_slice_handle_error"
	int3
	.section	.rdata,"dr"
	.p2align	2, 0x0
.LJTI29_0:
	.long	.LBB29_36-.LJTI29_0
	.long	.LBB29_11-.LJTI29_0
	.long	.LBB29_2-.LJTI29_0
	.long	.LBB29_8-.LJTI29_0
	.long	.LBB29_31-.LJTI29_0
	.long	.LBB29_11-.LJTI29_0
	.long	.LBB29_36-.LJTI29_0
	.long	.LBB29_8-.LJTI29_0
	.text
	.seh_endproc

	.def	"runtime::default_random_generator_proc";
	.scl	3;
	.type	32;
	.endef
	.p2align	4
"runtime::default_random_generator_proc":
.seh_proc "runtime::default_random_generator_proc"
	pushq	%r15
	.seh_pushreg %r15
	pushq	%r14
	.seh_pushreg %r14
	pushq	%r13
	.seh_pushreg %r13
	pushq	%r12
	.seh_pushreg %r12
	pushq	%rsi
	.seh_pushreg %rsi
	pushq	%rdi
	.seh_pushreg %rdi
	pushq	%rbx
	.seh_pushreg %rbx
	subq	$48, %rsp
	.seh_stackalloc 48
	.seh_endprologue
	movq	(%r8), %rdi
	movq	8(%r8), %r14
	testq	%rcx, %rcx
	movl	_tls_index(%rip), %eax
	movq	%gs:88, %r8
	movq	(%r8,%rax,8), %rax
	leaq	"runtime::default_random_generator_proc-.state-67402"@SECREL32(%rax), %rbx
	cmovneq	%rcx, %rbx
	cmpq	$2, %rdx
	je	.LBB30_35
	leaq	992(%rbx), %rax
	cmpq	$1, %rdx
	je	.LBB30_30
	testq	%rdx, %rdx
	jne	.LBB30_22
	movq	%r9, %rsi
	cmpb	$0, 1032(%rbx)
	je	.LBB30_4
	movq	1024(%rbx), %rax
	cmpq	$993, %rax
	jge	.LBB30_12
	leaq	1024(%rbx), %r15
	cmpq	$992, %rax
	je	.LBB30_15
	jmp	.LBB30_16
.LBB30_30:
	testq	%r14, %r14
	je	.LBB30_31
	vxorps	%xmm0, %xmm0, %xmm0
	vmovups	%ymm0, (%rax)
	jle	.LBB30_34
	cmpq	$32, %r14
	movl	$32, %r8d
	cmovbq	%r14, %r8
	movq	%rax, %rcx
	movq	%rdi, %rdx
	vzeroupper
	callq	memmove
.LBB30_34:
	movb	$1, 1032(%rbx)
	movq	$992, 1024(%rbx)
	jmp	.LBB30_22
.LBB30_35:
	cmpq	$4, %r14
	jne	.LBB30_22
	orb	$11, (%rdi)
	jmp	.LBB30_22
.LBB30_31:
	movb	$0, 1032(%rbx)
	jmp	.LBB30_22
.LBB30_4:
	xorl	%ecx, %ecx
	movq	%rax, %rdx
	movl	$32, %r8d
	movl	$2, %r9d
	callq	BCryptGenRandom
	testl	%eax, %eax
	jne	.LBB30_5
	leaq	1024(%rbx), %r15
	movq	$992, 1024(%rbx)
	movb	$1, 1032(%rbx)
.LBB30_15:
	movq	%rbx, %rcx
	movq	%rsi, %rdx
	callq	"runtime::[random_generator_chacha8.odin]::chacha8rand_refill"
	movq	1024(%rbx), %rax
.LBB30_16:
	cmpq	$985, %rax
	jge	.LBB30_17
	testb	$7, %al
	jne	.LBB30_19
	cmpq	$8, %r14
	jne	.LBB30_21
	movq	(%rbx,%rax), %rcx
	movq	%rcx, (%rdi)
	movq	$0, (%rbx,%rax)
	addq	$8, 1024(%rbx)
.LBB30_22:
	addq	$48, %rsp
	popq	%rbx
	popq	%rdi
	popq	%rsi
	popq	%r12
	popq	%r13
	popq	%r14
	popq	%r15
	vzeroupper
	retq
	.p2align	4
.LBB30_28:
	movq	%rbx, %rcx
	movq	%rsi, %rdx
	callq	"runtime::[random_generator_chacha8.odin]::chacha8rand_refill"
.LBB30_29:
	addq	%r12, %rdi
	subq	%r12, %r14
.LBB30_21:
	testq	%r14, %r14
	jle	.LBB30_22
	movq	(%r15), %rdx
	movl	$992, %r12d
	subq	%rdx, %r12
	cmpq	%r12, %r14
	cmovlq	%r14, %r12
	movl	$1024, %r8d
	subq	%rdx, %r8
	cmpq	%r8, %r12
	cmovlq	%r12, %r8
	testq	%r8, %r8
	jle	.LBB30_26
	addq	%rbx, %rdx
	movq	%rdi, %rcx
	callq	memmove
	movq	1024(%rbx), %rdx
.LBB30_26:
	leaq	7(%r12), %rax
	leaq	14(%r12), %r8
	testq	%rax, %rax
	cmovnsq	%rax, %r8
	andq	$-8, %r8
	leaq	(%rdx,%r8), %r13
	cmpq	$991, %r13
	jg	.LBB30_28
	addq	%rbx, %rdx
	movq	%rdx, %rcx
	xorl	%edx, %edx
	callq	memset
	movq	%r13, 1024(%rbx)
	jmp	.LBB30_29
.LBB30_5:
	cmpl	$87, %eax
	je	.LBB30_8
	cmpl	$6, %eax
	jne	.LBB30_9
	leaq	".Lggv$runtime::[os_specific_windows.odin]::_rand_bytes$2"(%rip), %rcx
	leaq	".Lscl$[_rand_bytes2333]"(%rip), %rdx
	callq	"runtime::panic_contextless"
.LBB30_8:
	leaq	".Lggv$runtime::[os_specific_windows.odin]::_rand_bytes$3"(%rip), %rcx
	leaq	".Lscl$[_rand_bytes2489]"(%rip), %rdx
	callq	"runtime::panic_contextless"
.LBB30_9:
	leaq	".Lggv$runtime::[os_specific_windows.odin]::_rand_bytes$4"(%rip), %rcx
	leaq	".Lscl$[_rand_bytes2589]"(%rip), %rdx
	callq	"runtime::panic_contextless"
.LBB30_17:
	vmovups	".Lggv$runtime::default_random_generator_proc$3"(%rip), %xmm0
	vmovaps	%xmm0, 32(%rsp)
	movq	32(%rsi), %rax
	testq	%rax, %rax
	leaq	"runtime::default_assertion_failure_proc"(%rip), %r10
	cmovneq	%rax, %r10
	leaq	".Lggv$runtime::assert.internal-0$1"(%rip), %rcx
	leaq	".Lscl$[default_random_generator_proc2564]"(%rip), %r8
	jmp	.LBB30_13
.LBB30_19:
	vmovups	".Lggv$runtime::default_random_generator_proc$4"(%rip), %xmm0
	vmovaps	%xmm0, 32(%rsp)
	movq	32(%rsi), %rax
	testq	%rax, %rax
	leaq	"runtime::default_assertion_failure_proc"(%rip), %r10
	cmovneq	%rax, %r10
	leaq	".Lggv$runtime::assert.internal-0$1"(%rip), %rcx
	leaq	".Lscl$[default_random_generator_proc2667]"(%rip), %r8
	jmp	.LBB30_13
.LBB30_12:
	vmovups	".Lggv$runtime::default_random_generator_proc$2"(%rip), %xmm0
	vmovaps	%xmm0, 32(%rsp)
	movq	32(%rsi), %rax
	testq	%rax, %rax
	leaq	"runtime::default_assertion_failure_proc"(%rip), %r10
	cmovneq	%rax, %r10
	leaq	".Lggv$runtime::assert.internal-0$1"(%rip), %rcx
	leaq	".Lscl$[default_random_generator_proc2230]"(%rip), %r8
.LBB30_13:
	leaq	32(%rsp), %rdx
	movq	%rsi, %r9
	callq	*%r10
	int3
	.seh_endproc

	.def	"strconv::write_bits";
	.scl	3;
	.type	32;
	.endef
	.p2align	4
"strconv::write_bits":
.seh_proc "strconv::write_bits"
	pushq	%r14
	.seh_pushreg %r14
	pushq	%rsi
	.seh_pushreg %rsi
	pushq	%rdi
	.seh_pushreg %rdi
	pushq	%rbx
	.seh_pushreg %rbx
	subq	$184, %rsp
	.seh_stackalloc 184
	.seh_endprologue
	movq	%r9, %r10
	movq	%r8, %rax
	movq	%rcx, %rsi
	movzbl	256(%rsp), %ecx
	movq	272(%rsp), %r8
	movq	(%rdx), %rdi
	movq	8(%rdx), %rbx
	movq	(%r8), %r14
	movq	8(%r8), %r8
	vxorps	%xmm0, %xmm0, %xmm0
	vmovups	%ymm0, 144(%rsp)
	vmovups	%ymm0, 112(%rsp)
	vmovups	%ymm0, 80(%rsp)
	vmovups	%ymm0, 48(%rsp)
	movb	$0, 176(%rsp)
	testb	%cl, %cl
	je	.LBB31_1
	movq	264(%rsp), %rcx
	addq	$-8, %rcx
	rorxq	$3, %rcx, %rcx
	cmpq	$7, %rcx
	ja	.LBB31_8
	leaq	.LJTI31_0(%rip), %rdx
	movslq	(%rdx,%rcx,4), %rcx
	addq	%rdx, %rcx
	jmpq	*%rcx
.LBB31_4:
	movsbq	%al, %rdx
	shrb	$7, %al
	movl	%eax, %ecx
	jmp	.LBB31_5
.LBB31_1:
	xorl	%ecx, %ecx
	cmpq	%r10, %rax
	jae	.LBB31_12
	jmp	.LBB31_11
.LBB31_9:
	movl	%eax, %ecx
	shrl	$31, %ecx
	movl	%eax, %edx
	negl	%edx
	cmovnsl	%edx, %eax
	cmpq	%r10, %rax
	jae	.LBB31_12
	jmp	.LBB31_11
.LBB31_7:
	movq	%rax, %rcx
	shrq	$63, %rcx
	movq	%rax, %rdx
	negq	%rdx
	cmovnsq	%rdx, %rax
	cmpq	%r10, %rax
	jb	.LBB31_11
.LBB31_12:
	movl	$128, %r9d
	.p2align	4
.LBB31_13:
	cmpq	$129, %r9
	jae	.LBB31_50
	movq	%rax, %rdx
	shrq	$32, %rdx
	je	.LBB31_15
	xorl	%edx, %edx
	divq	%r10
	cmpq	%r8, %rdx
	jb	.LBB31_18
	jmp	.LBB31_51
	.p2align	4
.LBB31_15:
	xorl	%edx, %edx
	divl	%r10d
	cmpq	%r8, %rdx
	jae	.LBB31_51
.LBB31_18:
	movzbl	(%r14,%rdx), %edx
	movb	%dl, 48(%rsp,%r9)
	decq	%r9
	cmpq	%r10, %rax
	jae	.LBB31_13
	cmpq	$129, %r9
	jae	.LBB31_52
	leaq	1(%r9), %r11
	jmp	.LBB31_21
.LBB31_6:
	movzwl	%ax, %ecx
	shrl	$15, %ecx
	movswq	%ax, %rdx
.LBB31_5:
	movq	%rdx, %rax
	negq	%rax
	cmovsq	%rdx, %rax
	cmpq	%r10, %rax
	jae	.LBB31_12
.LBB31_11:
	movl	$129, %r11d
	movl	$128, %r9d
.LBB31_21:
	movq	%rax, %rdx
	shrq	$32, %rdx
	je	.LBB31_22
	xorl	%edx, %edx
	divq	%r10
	cmpq	%r8, %rdx
	jae	.LBB31_53
.LBB31_25:
	movzbl	280(%rsp), %eax
	movzbl	(%r14,%rdx), %edx
	movb	%dl, 48(%rsp,%r9)
	testb	$1, %al
	je	.LBB31_39
	addq	$-2, %r10
	rorxq	$1, %r10, %rdx
	cmpq	$7, %rdx
	ja	.LBB31_39
	leaq	.LJTI31_1(%rip), %r8
	movslq	(%r8,%rdx,4), %rdx
	addq	%r8, %rdx
	jmpq	*%rdx
.LBB31_28:
	addq	$-2, %r11
	movb	$98, %dl
	cmpq	$129, %r11
	jb	.LBB31_37
	movq	$129, 32(%rsp)
	leaq	".Lggv$strconv::write_bits$6"(%rip), %rcx
	movl	$83, %edx
	jmp	.LBB31_30
.LBB31_22:
	xorl	%edx, %edx
	divl	%r10d
	cmpq	%r8, %rdx
	jb	.LBB31_25
.LBB31_53:
	movq	%r8, 32(%rsp)
	leaq	".Lggv$strconv::write_bits$5"(%rip), %rcx
	movq	%rdx, %r9
	movl	$78, %edx
	movl	$22, %r8d
	vzeroupper
	callq	"runtime::bounds_check_error.handle_error-0"
.LBB31_33:
	addq	$-2, %r11
	movb	$122, %dl
	cmpq	$129, %r11
	jb	.LBB31_37
	movq	$129, 32(%rsp)
	leaq	".Lggv$strconv::write_bits$8"(%rip), %rcx
	movl	$86, %edx
	jmp	.LBB31_30
.LBB31_31:
	addq	$-2, %r11
	movb	$111, %dl
	cmpq	$129, %r11
	jb	.LBB31_37
	movq	$129, 32(%rsp)
	leaq	".Lggv$strconv::write_bits$7"(%rip), %rcx
	movl	$84, %edx
	jmp	.LBB31_30
.LBB31_35:
	addq	$-2, %r11
	movb	$120, %dl
	cmpq	$129, %r11
	jae	.LBB31_36
.LBB31_37:
	movb	%dl, 48(%rsp,%r11)
	movq	%r11, %r9
	decq	%r9
	cmpq	$129, %r9
	jae	.LBB31_54
	movb	$48, 48(%rsp,%r9)
.LBB31_39:
	testb	%cl, %cl
	je	.LBB31_40
	decq	%r9
	movb	$45, %al
	cmpq	$129, %r9
	jb	.LBB31_44
	movq	$129, 32(%rsp)
	leaq	".Lggv$strconv::write_bits$11"(%rip), %rcx
	movl	$97, %edx
	movl	$11, %r8d
	vzeroupper
	callq	"runtime::bounds_check_error.handle_error-0"
.LBB31_40:
	cmpb	$2, %al
	jb	.LBB31_45
	decq	%r9
	movb	$43, %al
	cmpq	$129, %r9
	jae	.LBB31_42
.LBB31_44:
	movb	%al, 48(%rsp,%r9)
.LBB31_45:
	movl	$129, %r14d
	subq	%r9, %r14
	cmpq	%r14, %rbx
	movq	%r14, %r8
	cmovlq	%rbx, %r8
	testq	%r8, %r8
	jle	.LBB31_47
	leaq	(%rsp,%r9), %rdx
	addq	$48, %rdx
	movq	%rdi, %rcx
	vzeroupper
	callq	memcpy
.LBB31_47:
	testq	%rbx, %rbx
	js	.LBB31_55
	cmpq	%rbx, %r14
	jg	.LBB31_55
	movq	%rdi, (%rsi)
	movq	%r14, 8(%rsi)
	movq	%rsi, %rax
	addq	$184, %rsp
	popq	%rbx
	popq	%rdi
	popq	%rsi
	popq	%r14
	vzeroupper
	retq
.LBB31_51:
	movq	%r8, 32(%rsp)
	leaq	".Lggv$strconv::write_bits$3"(%rip), %rcx
	movq	%rdx, %r9
	movl	$75, %edx
	movl	$23, %r8d
	vzeroupper
	callq	"runtime::bounds_check_error.handle_error-0"
.LBB31_50:
	movq	$129, 32(%rsp)
	leaq	".Lggv$strconv::write_bits$2"(%rip), %rcx
	movl	$75, %edx
	movl	$11, %r8d
	vzeroupper
	callq	"runtime::bounds_check_error.handle_error-0"
.LBB31_55:
	movq	%rbx, 40(%rsp)
	movq	%r14, 32(%rsp)
	leaq	".Lggv$strconv::write_bits$14"(%rip), %rcx
	movl	$104, %edx
	movl	$19, %r8d
	xorl	%r9d, %r9d
	vzeroupper
	callq	"runtime::slice_handle_error"
.LBB31_52:
	movq	$129, 32(%rsp)
	leaq	".Lggv$strconv::write_bits$4"(%rip), %rcx
	movl	$78, %edx
	movl	$10, %r8d
	vzeroupper
	callq	"runtime::bounds_check_error.handle_error-0"
.LBB31_54:
	movq	$129, 32(%rsp)
	leaq	".Lggv$strconv::write_bits$10"(%rip), %rcx
	movl	$91, %edx
	movl	$12, %r8d
	vzeroupper
	callq	"runtime::bounds_check_error.handle_error-0"
.LBB31_42:
	movq	$129, 32(%rsp)
	leaq	".Lggv$strconv::write_bits$12"(%rip), %rcx
	movl	$99, %edx
	movl	$11, %r8d
	vzeroupper
	callq	"runtime::bounds_check_error.handle_error-0"
.LBB31_8:
	movq	288(%rsp), %r8
	leaq	".Lggv$strconv::is_integer_negative$1"(%rip), %rcx
	leaq	".Lscl$[is_integer_negative1101]"(%rip), %rdx
	vzeroupper
	callq	"runtime::panic"
.LBB31_36:
	movq	$129, 32(%rsp)
	leaq	".Lggv$strconv::write_bits$9"(%rip), %rcx
	movl	$87, %edx
.LBB31_30:
	movl	$20, %r8d
	movq	%r11, %r9
	vzeroupper
	callq	"runtime::bounds_check_error.handle_error-0"
	int3
	.section	.rdata,"dr"
	.p2align	2, 0x0
.LJTI31_0:
	.long	.LBB31_4-.LJTI31_0
	.long	.LBB31_6-.LJTI31_0
	.long	.LBB31_8-.LJTI31_0
	.long	.LBB31_9-.LJTI31_0
	.long	.LBB31_8-.LJTI31_0
	.long	.LBB31_8-.LJTI31_0
	.long	.LBB31_8-.LJTI31_0
	.long	.LBB31_7-.LJTI31_0
.LJTI31_1:
	.long	.LBB31_28-.LJTI31_1
	.long	.LBB31_39-.LJTI31_1
	.long	.LBB31_39-.LJTI31_1
	.long	.LBB31_31-.LJTI31_1
	.long	.LBB31_39-.LJTI31_1
	.long	.LBB31_33-.LJTI31_1
	.long	.LBB31_39-.LJTI31_1
	.long	.LBB31_35-.LJTI31_1
	.text
	.seh_endproc

	.def	"utf8::decode_rune_in_bytes";
	.scl	3;
	.type	32;
	.endef
	.p2align	4
"utf8::decode_rune_in_bytes":
.seh_proc "utf8::decode_rune_in_bytes"
	pushq	%rsi
	.seh_pushreg %rsi
	pushq	%rdi
	.seh_pushreg %rdi
	pushq	%rbx
	.seh_pushreg %rbx
	subq	$48, %rsp
	.seh_stackalloc 48
	.seh_endprologue
	movq	8(%rcx), %r10
	movl	$65533, %r8d
	testq	%r10, %r10
	jle	.LBB32_1
	movq	(%rcx), %r11
	movzbl	(%r11), %ecx
	leaq	"runtime::string_decode_rune-.accept_sizes-68289"(%rip), %rax
	movzbl	(%rcx,%rax), %esi
	leaq	-245(%rcx), %rax
	cmpq	$-52, %rax
	ja	.LBB32_5
	andl	$1, %esi
	movl	%esi, %r8d
	negl	%r8d
	decl	%esi
	andl	%ecx, %esi
	andl	$65533, %r8d
	orl	%esi, %r8d
	movl	$1, %eax
	jmp	.LBB32_2
.LBB32_1:
	xorl	%eax, %eax
	jmp	.LBB32_2
.LBB32_5:
	movl	%esi, %r9d
	shrl	$4, %r9d
	leal	62(%rcx), %edi
	cmpb	$51, %dil
	jae	.LBB32_19
	andl	$7, %esi
	movl	$1, %eax
	cmpq	%rsi, %r10
	jae	.LBB32_7
.LBB32_2:
	movl	%r8d, (%rdx)
	addq	$48, %rsp
	popq	%rbx
	popq	%rdi
	popq	%rsi
	retq
.LBB32_7:
	cmpq	$1, %r10
	je	.LBB32_20
	leaq	"utf8::accept_ranges"(%rip), %rsi
	movzbl	1(%r11), %ebx
	cmpb	(%rsi,%r9,2), %bl
	jb	.LBB32_2
	cmpb	%bl, 1(%rsi,%r9,2)
	jb	.LBB32_2
	movzbl	%bl, %r9d
	cmpb	$29, %dil
	ja	.LBB32_12
	andl	$31, %ecx
	shll	$6, %ecx
	andl	$63, %r9d
	orl	%ecx, %r9d
	movl	$2, %eax
	movl	%r9d, %r8d
	jmp	.LBB32_2
.LBB32_12:
	cmpq	$2, %r10
	jbe	.LBB32_21
	movzbl	2(%r11), %esi
	cmpb	$-65, %sil
	jg	.LBB32_2
	movl	%ecx, %edi
	andl	$-16, %edi
	cmpl	$224, %edi
	jne	.LBB32_16
	andl	$15, %ecx
	shll	$12, %ecx
	andl	$63, %r9d
	shll	$6, %r9d
	orl	%ecx, %r9d
	andl	$63, %esi
	orl	%r9d, %esi
	movl	$3, %eax
	movl	%esi, %r8d
	jmp	.LBB32_2
.LBB32_16:
	cmpq	$3, %r10
	je	.LBB32_22
	movzbl	3(%r11), %r10d
	cmpb	$-65, %r10b
	jg	.LBB32_2
	andl	$7, %ecx
	shll	$18, %ecx
	andl	$63, %r9d
	shll	$12, %r9d
	orl	%ecx, %r9d
	andl	$63, %esi
	shll	$6, %esi
	orl	%r9d, %esi
	andl	$63, %r10d
	orl	%esi, %r10d
	movl	$4, %eax
	movl	%r10d, %r8d
	jmp	.LBB32_2
.LBB32_19:
	movq	$5, 32(%rsp)
	leaq	".Lggv$utf8::decode_rune_in_bytes$3"(%rip), %rcx
	movl	$119, %edx
	movl	$26, %r8d
	callq	"runtime::bounds_check_error.handle_error-0"
.LBB32_20:
	movq	$1, 32(%rsp)
	leaq	".Lggv$utf8::decode_rune_in_bytes$4"(%rip), %rcx
	movl	$1, %r9d
	movl	$123, %edx
	movl	$10, %r8d
	callq	"runtime::bounds_check_error.handle_error-0"
.LBB32_21:
	movq	%r10, 32(%rsp)
	leaq	".Lggv$utf8::decode_rune_in_bytes$5"(%rip), %rcx
	movl	$2, %r9d
	movl	$130, %edx
	movl	$10, %r8d
	callq	"runtime::bounds_check_error.handle_error-0"
.LBB32_22:
	movq	$3, 32(%rsp)
	leaq	".Lggv$utf8::decode_rune_in_bytes$6"(%rip), %rcx
	movl	$3, %r9d
	movl	$137, %edx
	movl	$10, %r8d
	callq	"runtime::bounds_check_error.handle_error-0"
	int3
	.seh_endproc

	.def	"fmt::println";
	.scl	3;
	.type	32;
	.endef
	.p2align	4
"fmt::println":
.seh_proc "fmt::println"
	pushq	%r15
	.seh_pushreg %r15
	pushq	%r14
	.seh_pushreg %r14
	pushq	%r13
	.seh_pushreg %r13
	pushq	%r12
	.seh_pushreg %r12
	pushq	%rsi
	.seh_pushreg %rsi
	pushq	%rdi
	.seh_pushreg %rdi
	pushq	%rbp
	.seh_pushreg %rbp
	pushq	%rbx
	.seh_pushreg %rbx
	subq	$1336, %rsp
	.seh_stackalloc 1336
	.seh_endprologue
	movq	%r8, %rsi
	movq	(%rcx), %rdi
	movq	8(%rcx), %r15
	vmovups	(%rdx), %xmm0
	vmovaps	%xmm0, 96(%rsp)
	movq	"os::stdout"(%rip), %r14
	leaq	312(%rsp), %rbx
	movl	$1024, %r8d
	movq	%rbx, %rcx
	xorl	%edx, %edx
	callq	memset
	vxorps	%xmm0, %xmm0, %xmm0
	vmovups	%xmm0, 176(%rsp)
	leaq	"os::[stream.odin]::_file_stream_proc"(%rip), %rax
	movq	%rax, 152(%rsp)
	movq	%r14, 160(%rsp)
	movq	$0, 168(%rsp)
	vmovups	%xmm0, 136(%rsp)
	movq	%rbx, 120(%rsp)
	movq	$1024, 128(%rsp)
	vxorps	%xmm0, %xmm0, %xmm0
	vmovups	%ymm0, 224(%rsp)
	vmovups	%ymm0, 280(%rsp)
	vmovups	%ymm0, 256(%rsp)
	vmovups	%ymm0, 192(%rsp)
	leaq	"bufio::_writer_proc"(%rip), %rax
	movq	%rax, 232(%rsp)
	leaq	120(%rsp), %rcx
	movq	%rcx, 240(%rsp)
	leaq	72(%rsp), %r12
	testq	%r15, %r15
	jle	.LBB33_9
	negq	%r15
	movq	$-1, %r13
	movabsq	$9223372036854775806, %rbp
	leaq	80(%rsp), %rbx
	leaq	192(%rsp), %r14
	jmp	.LBB33_2
	.p2align	4
.LBB33_5:
	movq	%r14, %rcx
	movq	%rdi, %rdx
	movl	$118, %r8d
	movq	%rsi, %r9
	vzeroupper
	callq	"fmt::fmt_value"
	leaq	(%r15,%r13), %rax
	incq	%rax
	incq	%r13
	addq	$16, %rdi
	cmpq	$-1, %rax
	je	.LBB33_6
.LBB33_2:
	cmpq	%rbp, %r13
	ja	.LBB33_5
	movq	232(%rsp), %rax
	movq	240(%rsp), %rcx
	vmovaps	96(%rsp), %xmm0
	vmovaps	%xmm0, 80(%rsp)
	testq	%rax, %rax
	je	.LBB33_5
	movq	$0, 72(%rsp)
	movq	%rsi, 48(%rsp)
	movq	%r12, 40(%rsp)
	movq	$0, 32(%rsp)
	movl	$4, %edx
	movq	%rbx, %r8
	xorl	%r9d, %r9d
	vzeroupper
	callq	*%rax
	movq	72(%rsp), %rax
	addq	%rax, 304(%rsp)
	jmp	.LBB33_5
.LBB33_6:
	movq	232(%rsp), %rax
	movq	240(%rsp), %rcx
	movb	$10, 71(%rsp)
	leaq	71(%rsp), %rdx
	movq	%rdx, 80(%rsp)
	movq	$1, 88(%rsp)
	testq	%rax, %rax
	jne	.LBB33_7
	jmp	.LBB33_8
.LBB33_9:
	movb	$10, 71(%rsp)
	leaq	71(%rsp), %rdx
	movq	%rdx, 80(%rsp)
	movq	$1, 88(%rsp)
.LBB33_7:
	movq	$0, 72(%rsp)
	movq	%rsi, 48(%rsp)
	movq	%r12, 40(%rsp)
	movq	$0, 32(%rsp)
	leaq	80(%rsp), %r8
	movl	$4, %edx
	xorl	%r9d, %r9d
	vzeroupper
	callq	*%rax
	movq	72(%rsp), %rax
	addq	%rax, 304(%rsp)
.LBB33_8:
	leaq	120(%rsp), %rdi
	movq	%rdi, %rcx
	movq	%rsi, %rdx
	callq	"bufio::writer_flush"
	movq	%rdi, %rcx
	movq	%rsi, %rdx
	callq	"bufio::writer_flush"
	nop
	addq	$1336, %rsp
	popq	%rbx
	popq	%rbp
	popq	%rdi
	popq	%rsi
	popq	%r12
	popq	%r13
	popq	%r14
	popq	%r15
	retq
	.seh_endproc

	.def	"main::mu_text_height";
	.scl	3;
	.type	32;
	.endef
	.p2align	4
"main::mu_text_height":
.seh_proc "main::mu_text_height"
	subq	$40, %rsp
	.seh_stackalloc 40
	.seh_endprologue
	movq	"main::ui_font"(%rip), %rcx
	callq	TTF_GetFontSize
	vcvttss2si	%xmm0, %eax
	addq	$40, %rsp
	retq
	.seh_endproc

	.def	"runtime::print_string";
	.scl	3;
	.type	32;
	.endef
	.p2align	4
"runtime::print_string":
.seh_proc "runtime::print_string"
	pushq	%r15
	.seh_pushreg %r15
	pushq	%r14
	.seh_pushreg %r14
	pushq	%rsi
	.seh_pushreg %rsi
	pushq	%rdi
	.seh_pushreg %rdi
	pushq	%rbp
	.seh_pushreg %rbp
	pushq	%rbx
	.seh_pushreg %rbx
	subq	$56, %rsp
	.seh_stackalloc 56
	.seh_endprologue
	movq	8(%rcx), %rbx
	testq	%rbx, %rbx
	je	.LBB35_7
	movq	(%rcx), %r14
	movl	$-12, %ecx
	callq	GetStdHandle
	movq	%rax, %rsi
	movq	%rax, %rcx
	movl	$1, %edx
	xorl	%r8d, %r8d
	callq	SetHandleInformation
	movl	$0, 52(%rsp)
	testq	%rbx, %rbx
	jle	.LBB35_7
	xorl	%r15d, %r15d
	movl	$1073741824, %ebp
	leaq	52(%rsp), %rdi
	.p2align	4
.LBB35_4:
	movl	%ebx, %r8d
	subl	%r15d, %r8d
	cmpl	$1073741824, %r8d
	cmovgel	%ebp, %r8d
	leaq	(%r14,%r15), %rdx
	movq	$0, 32(%rsp)
	movq	%rsi, %rcx
	movq	%rdi, %r9
	callq	WriteFile
	movl	52(%rsp), %ecx
	testq	%rcx, %rcx
	je	.LBB35_6
	testl	%eax, %eax
	je	.LBB35_6
	addq	%rcx, %r15
	cmpq	%rbx, %r15
	jl	.LBB35_4
	jmp	.LBB35_7
.LBB35_6:
	callq	GetLastError
.LBB35_7:
	nop
	addq	$56, %rsp
	popq	%rbx
	popq	%rbp
	popq	%rdi
	popq	%rsi
	popq	%r14
	popq	%r15
	retq
	.seh_endproc

	.def	"main::mu_text_width";
	.scl	3;
	.type	32;
	.endef
	.p2align	4
"main::mu_text_width":
.seh_proc "main::mu_text_width"
	pushq	%r14
	.seh_pushreg %r14
	pushq	%rsi
	.seh_pushreg %rsi
	pushq	%rdi
	.seh_pushreg %rdi
	pushq	%rbx
	.seh_pushreg %rbx
	subq	$1288, %rsp
	.seh_stackalloc 1288
	vmovaps	%xmm6, 1264(%rsp)
	.seh_savexmm %xmm6, 1264
	.seh_endprologue
	movq	%r8, %rsi
	vmovups	(%rdx), %xmm0
	vmovaps	%xmm0, 144(%rsp)
	vxorps	%xmm6, %xmm6, %xmm6
	vmovaps	%xmm6, 64(%rsp)
	vmovaps	%xmm6, 48(%rsp)
	movq	"main::ui_font"(%rip), %rdi
	leaq	144(%rsp), %rax
	movq	%rax, 48(%rsp)
	movabsq	$3035420298402177265, %rax
	movq	%rax, 56(%rsp)
	leaq	48(%rsp), %rax
	movq	%rax, 64(%rsp)
	movq	$1, 72(%rsp)
	leaq	".Lggv$main::mu_text_width$1"(%rip), %rdx
	leaq	64(%rsp), %rcx
	callq	"fmt::ctprint"
	xorl	%ecx, %ecx
	movq	%rdi, %rdx
	movq	%rax, %r8
	xorl	%r9d, %r9d
	callq	TTF_CreateText
	movq	%rax, %rdi
	testq	%rax, %rax
	jne	.LBB36_2
	callq	SDL_GetError
	vmovaps	%xmm6, 80(%rsp)
	movq	%rax, 104(%rsp)
	leaq	104(%rsp), %rax
	movq	%rax, 80(%rsp)
	movabsq	$-2911560155841719882, %rax
	movq	%rax, 88(%rsp)
	leaq	80(%rsp), %rax
	movq	%rax, 128(%rsp)
	movq	$1, 136(%rsp)
	movq	"os::stdout"(%rip), %r14
	leaq	240(%rsp), %rbx
	movl	$1024, %r8d
	movq	%rbx, %rcx
	xorl	%edx, %edx
	callq	memset
	vmovups	%xmm6, 224(%rsp)
	leaq	"os::[stream.odin]::_file_stream_proc"(%rip), %rax
	movq	%rax, 200(%rsp)
	movq	%r14, 208(%rsp)
	movq	$0, 216(%rsp)
	vmovups	%xmm6, 184(%rsp)
	movq	%rbx, 168(%rsp)
	movq	$1024, 176(%rsp)
	leaq	"bufio::_writer_proc"(%rip), %rax
	movq	%rax, 112(%rsp)
	leaq	168(%rsp), %rbx
	movq	%rbx, 120(%rsp)
	movq	%rsi, 32(%rsp)
	leaq	".Lggv$main::print_err$1"(%rip), %rdx
	leaq	112(%rsp), %rcx
	leaq	128(%rsp), %r8
	movb	$1, %r9b
	callq	"fmt::wprintf"
	movq	%rbx, %rcx
	movq	%rsi, %rdx
	callq	"bufio::writer_flush"
.LBB36_2:
	movl	$12, 44(%rsp)
	leaq	44(%rsp), %rdx
	movq	%rdi, %rcx
	xorl	%r8d, %r8d
	callq	TTF_GetTextSize
	movq	%rdi, %rcx
	callq	TTF_DestroyText
	movl	44(%rsp), %eax
	vmovaps	1264(%rsp), %xmm6
	addq	$1288, %rsp
	popq	%rbx
	popq	%rdi
	popq	%rsi
	popq	%r14
	retq
	.seh_endproc

	.def	"mem::nil_allocator_proc";
	.scl	3;
	.type	32;
	.endef
	.p2align	4
"mem::nil_allocator_proc":
	movq	64(%rsp), %rax
	vxorps	%xmm0, %xmm0, %xmm0
	vmovups	%xmm0, (%rax)
	xorl	%eax, %eax
	retq

	.def	"runtime::mem_alloc_bytes";
	.scl	3;
	.type	32;
	.endef
	.p2align	4
"runtime::mem_alloc_bytes":
.seh_proc "runtime::mem_alloc_bytes"
	pushq	%rsi
	.seh_pushreg %rsi
	pushq	%rdi
	.seh_pushreg %rdi
	subq	$120, %rsp
	.seh_stackalloc 120
	.seh_endprologue
	movq	%rcx, %r11
	movq	184(%rsp), %rax
	blsrq	%rdx, %rcx
	jne	.LBB38_5
	movq	%rdx, %r10
	movq	176(%rsp), %rsi
	movq	(%r8), %rdi
	testq	%r11, %r11
	sete	%cl
	testq	%rdi, %rdi
	sete	%dl
	orb	%cl, %dl
	cmpb	$1, %dl
	jne	.LBB38_4
	xorl	%ecx, %ecx
	xorl	%edx, %edx
	xorl	%eax, %eax
	jmp	.LBB38_3
.LBB38_4:
	movq	8(%r8), %rcx
	vxorps	%xmm0, %xmm0, %xmm0
	vmovaps	%xmm0, 80(%rsp)
	movq	%rax, 64(%rsp)
	leaq	80(%rsp), %rax
	movq	%rax, 56(%rsp)
	movq	%r9, 48(%rsp)
	vmovups	%xmm0, 32(%rsp)
	xorl	%edx, %edx
	movq	%r11, %r8
	movq	%r10, %r9
	callq	*%rdi
	movq	80(%rsp), %rcx
	movq	88(%rsp), %rdx
.LBB38_3:
	movq	%rcx, (%rsi)
	movq	%rdx, 8(%rsi)
	addq	$120, %rsp
	popq	%rdi
	popq	%rsi
	retq
.LBB38_5:
	vmovups	".Lggv$runtime::mem_resize$1"(%rip), %xmm0
	vmovaps	%xmm0, 96(%rsp)
	movq	32(%rax), %rcx
	testq	%rcx, %rcx
	leaq	"runtime::default_assertion_failure_proc"(%rip), %r10
	cmovneq	%rcx, %r10
	leaq	".Lggv$runtime::assert.internal-0$1"(%rip), %rcx
	leaq	96(%rsp), %rdx
	movq	%r9, %r8
	movq	%rax, %r9
	callq	*%r10
	int3
	.seh_endproc

	.def	"runtime::arena_alloc";
	.scl	3;
	.type	32;
	.endef
	.p2align	4
"runtime::arena_alloc":
.seh_proc "runtime::arena_alloc"
	pushq	%r15
	.seh_pushreg %r15
	pushq	%r14
	.seh_pushreg %r14
	pushq	%r13
	.seh_pushreg %r13
	pushq	%r12
	.seh_pushreg %r12
	pushq	%rsi
	.seh_pushreg %rsi
	pushq	%rdi
	.seh_pushreg %rdi
	pushq	%rbx
	.seh_pushreg %rbx
	subq	$112, %rsp
	.seh_stackalloc 112
	vmovaps	%xmm6, 96(%rsp)
	.seh_savexmm %xmm6, 96
	.seh_endprologue
	movq	216(%rsp), %r14
	blsrq	%r8, %rax
	jne	.LBB39_28
	movq	%rdx, %rdi
	movq	208(%rsp), %r15
	testq	%rdx, %rdx
	je	.LBB39_2
	movq	%r8, %rbx
	movq	%rcx, %rsi
	movq	16(%rcx), %rax
	testq	%rax, %rax
	je	.LBB39_9
	movq	32(%rax), %rcx
	movq	24(%rax), %r8
	addq	%rcx, %r8
	leaq	-1(%rbx), %r10
	andq	%r8, %r10
	movq	%rbx, %rdx
	subq	%r10, %rdx
	testq	%r10, %r10
	cmoveq	%r10, %rdx
	movq	%rdi, %r10
	addq	%rdx, %r10
	jb	.LBB39_9
	addq	%rcx, %r10
	jb	.LBB39_9
	cmpq	40(%rax), %r10
	jbe	.LBB39_7
.LBB39_9:
	movq	40(%rsi), %rax
	testq	%rax, %rax
	jne	.LBB39_11
	movq	$4194304, 40(%rsi)
	movl	$4194304, %eax
.LBB39_11:
	leaq	-1(%rbx), %r12
	movq	%r12, %rdx
	andq	%rdi, %rdx
	movq	%rbx, %rcx
	subq	%rdx, %rcx
	testq	%rdx, %rdx
	cmoveq	%rdx, %rcx
	addq	%rdi, %rcx
	cmpq	%rax, %rcx
	cmovbeq	%rax, %rcx
	cmpq	$0, (%rsi)
	jne	.LBB39_13
	leaq	"runtime::heap_allocator_proc"(%rip), %rax
	movq	%rax, (%rsi)
	movq	$0, 8(%rsi)
.LBB39_13:
	movq	(%rsi), %rax
	movq	%rax, 80(%rsp)
	movq	8(%rsi), %rax
	cmpq	$49, %rbx
	movl	$48, %r13d
	cmovaeq	%rbx, %r13
	addq	%r13, %rcx
	cmpq	$17, %rbx
	movl	$16, %edx
	cmovgeq	%rbx, %rdx
	movq	%rax, 88(%rsp)
	vxorps	%xmm6, %xmm6, %xmm6
	vmovaps	%xmm6, 64(%rsp)
	movq	%r14, 40(%rsp)
	leaq	64(%rsp), %rax
	movq	%rax, 32(%rsp)
	leaq	80(%rsp), %r8
	callq	"runtime::mem_alloc"
	testb	%al, %al
	je	.LBB39_14
	vmovups	%xmm6, (%r15)
	jmp	.LBB39_20
.LBB39_2:
	vxorps	%xmm0, %xmm0, %xmm0
	vmovups	%xmm0, (%r15)
	xorl	%eax, %eax
	jmp	.LBB39_20
.LBB39_14:
	movq	64(%rsp), %rdx
	movq	72(%rsp), %rax
	addq	%rdx, %rax
	vmovaps	80(%rsp), %xmm0
	vmovups	%xmm0, 8(%rdx)
	addq	%rdx, %r13
	movq	%r13, 24(%rdx)
	subq	%r13, %rax
	movq	%rax, 40(%rdx)
	cmpq	$0, 32(%rdx)
	jne	.LBB39_15
	cmpq	$0, (%rdx)
	jne	.LBB39_18
	movq	16(%rsi), %rax
	movq	%rax, (%rdx)
	movq	%rdx, 16(%rsi)
	movq	40(%rdx), %rax
	addq	%rax, 32(%rsi)
	movq	32(%rdx), %r10
	movq	24(%rdx), %r9
	addq	%r10, %r9
	andq	%r9, %r12
	subq	%r12, %rbx
	testq	%r12, %r12
	cmoveq	%r12, %rbx
	xorl	%ecx, %ecx
	movq	%rdi, %r8
	movb	$1, %al
	addq	%rbx, %r8
	jb	.LBB39_22
	xorl	%ecx, %ecx
	addq	%r8, %r10
	jae	.LBB39_24
.LBB39_22:
	xorl	%r11d, %r11d
	xorl	%r8d, %r8d
	jmp	.LBB39_27
.LBB39_24:
	xorl	%ecx, %ecx
	movl	$0, %r11d
	movl	$0, %r8d
	cmpq	40(%rdx), %r10
	ja	.LBB39_27
	testq	%rdi, %rdi
	js	.LBB39_29
	addq	%rbx, %r9
	movq	%r10, 32(%rdx)
	xorl	%ecx, %ecx
	xorl	%eax, %eax
	movq	%rdi, %r11
	movq	%r9, %r8
	jmp	.LBB39_27
.LBB39_7:
	testq	%rdi, %rdi
	js	.LBB39_29
	addq	%rdx, %r8
	movq	%r10, 32(%rax)
	xorl	%eax, %eax
	movq	%rdi, %r11
.LBB39_27:
	movq	16(%rsi), %rdx
	movq	32(%rdx), %rdx
	subq	%rcx, %rdx
	addq	%rdx, 24(%rsi)
	movq	%r8, (%r15)
	movq	%r11, 8(%r15)
.LBB39_20:
	vmovaps	96(%rsp), %xmm6
	addq	$112, %rsp
	popq	%rbx
	popq	%rdi
	popq	%rsi
	popq	%r12
	popq	%r13
	popq	%r14
	popq	%r15
	retq
.LBB39_29:
	movq	%rdi, 32(%rsp)
	leaq	".Lggv$runtime::alloc_from_memory_block$1"(%rip), %rcx
	movl	$92, %edx
	movl	$49, %r8d
	xorl	%r9d, %r9d
	callq	"runtime::multi_pointer_slice_handle_error"
.LBB39_28:
	vmovups	".Lggv$runtime::arena_alloc$1"(%rip), %xmm0
	vmovaps	%xmm0, 48(%rsp)
	movq	32(%r14), %rax
	testq	%rax, %rax
	leaq	"runtime::default_assertion_failure_proc"(%rip), %r10
	cmovneq	%rax, %r10
	leaq	".Lggv$runtime::assert.internal-0$1"(%rip), %rcx
	leaq	48(%rsp), %rdx
	movq	%r9, %r8
	movq	%r14, %r9
	callq	*%r10
.LBB39_15:
	vmovups	".Lggv$runtime::memory_block_alloc$1"(%rip), %xmm0
	vmovaps	%xmm0, 48(%rsp)
	movq	32(%r14), %rax
	testq	%rax, %rax
	leaq	"runtime::default_assertion_failure_proc"(%rip), %r10
	cmovneq	%rax, %r10
	leaq	".Lggv$runtime::assert.internal-0$1"(%rip), %rcx
	leaq	".Lscl$[memory_block_alloc1638]"(%rip), %r8
	jmp	.LBB39_16
.LBB39_18:
	vmovups	".Lggv$runtime::memory_block_alloc$2"(%rip), %xmm0
	vmovaps	%xmm0, 48(%rsp)
	movq	32(%r14), %rax
	testq	%rax, %rax
	leaq	"runtime::default_assertion_failure_proc"(%rip), %r10
	cmovneq	%rax, %r10
	leaq	".Lggv$runtime::assert.internal-0$1"(%rip), %rcx
	leaq	".Lscl$[memory_block_alloc1664]"(%rip), %r8
.LBB39_16:
	leaq	48(%rsp), %rdx
	movq	%r14, %r9
	callq	*%r10
	int3
	.seh_endproc

	.def	"runtime::print_byte";
	.scl	3;
	.type	32;
	.endef
	.p2align	4
"runtime::print_byte":
.seh_proc "runtime::print_byte"
	pushq	%rsi
	.seh_pushreg %rsi
	subq	$64, %rsp
	.seh_stackalloc 64
	.seh_endprologue
	movb	%cl, 48(%rsp)
	movl	$-12, %ecx
	callq	GetStdHandle
	movq	%rax, %rsi
	movq	%rax, %rcx
	movl	$1, %edx
	xorl	%r8d, %r8d
	callq	SetHandleInformation
	movl	$0, 60(%rsp)
	movq	$0, 32(%rsp)
	leaq	48(%rsp), %rdx
	leaq	60(%rsp), %r9
	movq	%rsi, %rcx
	movl	$1, %r8d
	callq	WriteFile
	movl	%eax, %ecx
	movl	60(%rsp), %eax
	testq	%rax, %rax
	je	.LBB40_2
	testl	%ecx, %ecx
	jne	.LBB40_3
.LBB40_2:
	callq	GetLastError
	xorl	%eax, %eax
.LBB40_3:
	addq	$64, %rsp
	popq	%rsi
	retq
	.seh_endproc

	.def	"strconv::format_digits";
	.scl	3;
	.type	32;
	.endef
	.p2align	4
"strconv::format_digits":
.seh_proc "strconv::format_digits"
	pushq	%r15
	.seh_pushreg %r15
	pushq	%r14
	.seh_pushreg %r14
	pushq	%r13
	.seh_pushreg %r13
	pushq	%r12
	.seh_pushreg %r12
	pushq	%rsi
	.seh_pushreg %rsi
	pushq	%rdi
	.seh_pushreg %rdi
	pushq	%rbp
	.seh_pushreg %rbp
	pushq	%rbx
	.seh_pushreg %rbx
	subq	$152, %rsp
	.seh_stackalloc 152
	.seh_endprologue
	movq	%rcx, %rbp
	movzbl	272(%rsp), %r15d
	vmovups	(%rdx), %xmm0
	vmovaps	%xmm0, 80(%rsp)
	movq	80(%rsp), %rdi
	movq	88(%rsp), %r12
	movl	%r15d, %eax
	addl	$-69, %eax
	cmpl	$34, %eax
	ja	.LBB41_101
	movq	256(%rsp), %r13
	movabsq	$4294967297, %rcx
	btq	%rax, %rcx
	jb	.LBB41_46
	movabsq	$8589934594, %rcx
	btq	%rax, %rcx
	jb	.LBB41_7
	movabsq	$17179869188, %rcx
	btq	%rax, %rcx
	jae	.LBB41_101
	movq	16(%r13), %rax
	movq	24(%r13), %rcx
	cmpq	%rcx, %rax
	movq	%rax, %r10
	movq	264(%rsp), %rdx
	cmovlq	%rdx, %r10
	cmpq	%rax, %rdx
	cmovleq	%rdx, %r10
	testb	%r8b, %r8b
	movl	$6, %edx
	cmoveq	%r10, %rdx
	leaq	-1(%rcx), %r10
	cmpq	$-4, %r10
	jl	.LBB41_6
	cmpq	%rdx, %r10
	jge	.LBB41_6
	movq	264(%rsp), %rdx
	cmpq	%rcx, %rdx
	cmovleq	%rdx, %rax
	subq	%rcx, %rax
	movq	%rax, %rcx
	sarq	$63, %rcx
	andnq	%rax, %rcx, %rax
	vxorps	%xmm0, %xmm0, %xmm0
	vmovaps	%xmm0, 112(%rsp)
	movq	%r13, 32(%rsp)
	movq	%rax, 40(%rsp)
	movb	$102, 48(%rsp)
	leaq	112(%rsp), %rcx
	leaq	80(%rsp), %rdx
	callq	"strconv::format_digits"
	vmovaps	112(%rsp), %xmm0
	vmovups	%xmm0, (%rbp)
	jmp	.LBB41_99
.LBB41_7:
	addb	%r9b, %r9b
	addb	$43, %r9b
	movw	$0, 64(%rsp)
	movb	$0, 66(%rsp)
	movb	%r9b, 64(%rsp)
	testq	%r12, %r12
	js	.LBB41_105
	setne	%al
	movzbl	%al, %r14d
	je	.LBB41_10
	leaq	64(%rsp), %rdx
	movq	%rdi, %rcx
	movq	%r14, %r8
	callq	memcpy
.LBB41_10:
	movq	24(%r13), %rax
	testq	%rax, %rax
	movq	%rbp, 72(%rsp)
	jle	.LBB41_23
	movq	8(%r13), %rcx
	movq	16(%r13), %rdx
	cmpq	%rax, %rdx
	movq	%rax, %rsi
	cmovlq	%rdx, %rsi
	testq	%rcx, %rcx
	js	.LBB41_106
	testq	%rdx, %rdx
	js	.LBB41_106
	cmpq	%rcx, %rsi
	jg	.LBB41_106
	movq	%r12, %rbx
	subq	%r14, %rbx
	cmpq	%rsi, %rbx
	cmovgeq	%rsi, %rbx
	testq	%rbx, %rbx
	jle	.LBB41_16
	movq	(%r13), %rdx
	leaq	(%rdi,%r14), %rcx
	movq	%rbx, %r8
	callq	memmove
	movq	24(%r13), %rax
.LBB41_16:
	addq	%r14, %rbx
	cmpq	%rax, %rsi
	jge	.LBB41_26
	movl	$1, %ebp
	leaq	64(%rsp), %r14
	jmp	.LBB41_18
	.p2align	4
.LBB41_22:
	addq	%r15, %rbx
	incq	%rsi
	cmpq	%rax, %rsi
	jge	.LBB41_26
.LBB41_18:
	movb	$48, 64(%rsp)
	testq	%rbx, %rbx
	js	.LBB41_87
	movq	%r12, %r15
	subq	%rbx, %r15
	jl	.LBB41_87
	testq	%r15, %r15
	cmovgq	%rbp, %r15
	jle	.LBB41_22
	leaq	(%rdi,%rbx), %rcx
	movq	%r14, %rdx
	movq	%r15, %r8
	callq	memcpy
	movq	24(%r13), %rax
	jmp	.LBB41_22
.LBB41_46:
	addb	%r9b, %r9b
	addb	$43, %r9b
	movb	%r9b, 64(%rsp)
	testq	%r12, %r12
	js	.LBB41_105
	setne	%al
	movzbl	%al, %ebx
	je	.LBB41_49
	leaq	64(%rsp), %rdx
	movq	%rdi, %rcx
	movq	%rbx, %r8
	callq	memcpy
.LBB41_49:
	cmpq	$0, 16(%r13)
	je	.LBB41_50
	cmpq	$0, 8(%r13)
	je	.LBB41_108
	movq	(%r13), %rax
	movzbl	(%rax), %eax
	jmp	.LBB41_53
.LBB41_6:
	movq	264(%rsp), %rcx
	cmpq	%rax, %rcx
	cmovlq	%rcx, %rax
	decq	%rax
	leal	-2(%r15), %ecx
	vxorps	%xmm0, %xmm0, %xmm0
	vmovaps	%xmm0, 128(%rsp)
	movb	%cl, 48(%rsp)
	movq	%rax, 40(%rsp)
	movq	%r13, 32(%rsp)
	leaq	128(%rsp), %rcx
	leaq	80(%rsp), %rdx
	callq	"strconv::format_digits"
	vmovaps	128(%rsp), %xmm0
	vmovups	%xmm0, (%rbp)
	jmp	.LBB41_99
.LBB41_101:
	movb	$37, 64(%rsp)
	movb	%r15b, 65(%rsp)
	testq	%r12, %r12
	js	.LBB41_105
	cmpq	$2, %r12
	movl	$2, %ebx
	cmovbq	%r12, %rbx
	testq	%r12, %r12
	je	.LBB41_104
	leaq	64(%rsp), %rdx
	movq	%rdi, %rcx
	movq	%rbx, %r8
	callq	memcpy
	jmp	.LBB41_104
.LBB41_23:
	movb	$48, 64(%rsp)
	movq	%r12, %rax
	subq	%r14, %rax
	movl	$1, %ebx
	testq	%rax, %rax
	cmovleq	%rax, %rbx
	jle	.LBB41_25
	leaq	(%rdi,%r14), %rcx
	leaq	64(%rsp), %rdx
	movq	%rbx, %r8
	callq	memcpy
.LBB41_25:
	addq	%r14, %rbx
.LBB41_26:
	cmpq	$0, 264(%rsp)
	jle	.LBB41_41
	movb	$46, 64(%rsp)
	testq	%rbx, %rbx
	js	.LBB41_87
	movq	%r12, %r14
	subq	%rbx, %r14
	jl	.LBB41_87
	movl	$1, %esi
	testq	%r14, %r14
	cmovgq	%rsi, %r14
	jle	.LBB41_31
	leaq	(%rdi,%rbx), %rcx
	leaq	64(%rsp), %rdx
	movq	%r14, %r8
	callq	memcpy
.LBB41_31:
	addq	%r14, %rbx
	xorl	%ebp, %ebp
	leaq	64(%rsp), %r14
	jmp	.LBB41_32
	.p2align	4
.LBB41_40:
	addq	%r15, %rbx
	incq	%rbp
	cmpq	%rbp, 264(%rsp)
	je	.LBB41_41
.LBB41_32:
	movq	24(%r13), %rax
	movq	%rbp, %r9
	addq	%rax, %r9
	movb	$48, %cl
	js	.LBB41_36
	cmpq	16(%r13), %r9
	jge	.LBB41_36
	movq	8(%r13), %rcx
	cmpq	%rcx, %r9
	jae	.LBB41_107
	addq	(%r13), %rax
	movzbl	(%rbp,%rax), %ecx
.LBB41_36:
	movb	%cl, 64(%rsp)
	testq	%rbx, %rbx
	js	.LBB41_87
	movq	%r12, %r15
	subq	%rbx, %r15
	jl	.LBB41_87
	testq	%r15, %r15
	cmovgq	%rsi, %r15
	jle	.LBB41_40
	leaq	(%rdi,%rbx), %rcx
	movq	%r14, %rdx
	movq	%r15, %r8
	callq	memcpy
	jmp	.LBB41_40
.LBB41_41:
	testq	%rbx, %rbx
	js	.LBB41_43
	cmpq	%r12, %rbx
	jg	.LBB41_43
	movq	72(%rsp), %rbp
.LBB41_104:
	movq	%rdi, (%rbp)
	movq	%rbx, 8(%rbp)
	jmp	.LBB41_99
.LBB41_50:
	movb	$48, %al
.LBB41_53:
	movb	%al, 64(%rsp)
	movq	%r12, %rax
	subq	%rbx, %rax
	movl	$1, %r14d
	testq	%rax, %rax
	cmovleq	%rax, %r14
	jle	.LBB41_55
	leaq	(%rdi,%rbx), %rcx
	leaq	64(%rsp), %rdx
	movq	%r14, %r8
	callq	memcpy
.LBB41_55:
	addq	%rbx, %r14
	cmpq	$0, 264(%rsp)
	movq	%rbp, 72(%rsp)
	movq	%r15, 104(%rsp)
	jle	.LBB41_56
	movb	$46, 64(%rsp)
	testq	%r14, %r14
	js	.LBB41_109
	movq	%r12, %rbx
	subq	%r14, %rbx
	movl	$1, %eax
	testq	%rbx, %rbx
	cmovgq	%rax, %rbx
	jle	.LBB41_60
	leaq	(%rdi,%r14), %rcx
	leaq	64(%rsp), %rdx
	movq	%rbx, %r8
	callq	memcpy
.LBB41_60:
	addq	%r14, %rbx
	movq	264(%rsp), %rax
	leaq	1(%rax), %rsi
	movq	16(%r13), %rax
	cmpq	%rsi, %rax
	cmovlq	%rax, %rsi
	cmpq	$2, %rsi
	jl	.LBB41_61
	movq	8(%r13), %rax
	cmpq	%rax, %rsi
	jg	.LBB41_110
	testq	%rbx, %rbx
	js	.LBB41_87
	leaq	-1(%rsi), %rax
	movq	%r12, %r14
	subq	%rbx, %r14
	cmpq	%rax, %r14
	cmovgeq	%rax, %r14
	testq	%r14, %r14
	jle	.LBB41_66
	movq	(%r13), %rdx
	incq	%rdx
	leaq	(%rdi,%rbx), %rcx
	movq	%r14, %r8
	callq	memmove
.LBB41_66:
	addq	%r14, %rbx
	cmpq	264(%rsp), %rsi
	ja	.LBB41_74
	jmp	.LBB41_68
.LBB41_56:
	movq	%r14, %rbx
	jmp	.LBB41_74
.LBB41_61:
	movl	$1, %esi
	cmpq	264(%rsp), %rsi
	jbe	.LBB41_68
.LBB41_74:
	movq	104(%rsp), %rax
	movb	%al, 64(%rsp)
	testq	%rbx, %rbx
	js	.LBB41_87
	movq	%r12, %rax
	subq	%rbx, %rax
	jl	.LBB41_87
	movl	$1, %r15d
	testq	%rax, %rax
	cmovleq	%rax, %r15
	movq	72(%rsp), %rbp
	jle	.LBB41_78
	leaq	(%rdi,%rbx), %rcx
	leaq	64(%rsp), %rdx
	movq	%r15, %r8
	callq	memcpy
.LBB41_78:
	movq	16(%r13), %rax
	movq	24(%r13), %rcx
	decq	%rcx
	testq	%rax, %rax
	cmoveq	%rax, %rcx
	movq	%rcx, %rax
	shrq	$63, %rax
	addb	%al, %al
	addb	$43, %al
	movq	%rcx, %r14
	negq	%r14
	cmovsq	%rcx, %r14
	addq	%rbx, %r15
	movb	%al, 64(%rsp)
	js	.LBB41_111
	movq	%r12, %rax
	subq	%r15, %rax
	jl	.LBB41_111
	movl	$1, %ebx
	testq	%rax, %rax
	cmovleq	%rax, %rbx
	jle	.LBB41_82
	leaq	(%rdi,%r15), %rcx
	leaq	64(%rsp), %rdx
	movq	%rbx, %r8
	callq	memcpy
.LBB41_82:
	addq	%r15, %rbx
	cmpq	$10, %r14
	jge	.LBB41_83
	addb	$48, %r14b
	movb	$48, 64(%rsp)
	jmp	.LBB41_85
.LBB41_83:
	cmpq	$100, %r14
	jae	.LBB41_90
	imull	$205, %r14d, %eax
	movzwl	%ax, %eax
	shrl	$11, %eax
	movl	%eax, %ecx
	orb	$48, %cl
	addl	%eax, %eax
	leal	(%rax,%rax,4), %eax
	subb	%al, %r14b
	orb	$48, %r14b
	movb	%cl, 64(%rsp)
.LBB41_85:
	movb	%r14b, 65(%rsp)
	testq	%rbx, %rbx
	js	.LBB41_87
	movq	%r12, %rax
	subq	%rbx, %rax
	jl	.LBB41_87
	cmpq	$2, %rax
	movl	$2, %r14d
	jmp	.LBB41_93
.LBB41_68:
	movl	$1, %ebp
	leaq	64(%rsp), %r14
	jmp	.LBB41_69
	.p2align	4
.LBB41_73:
	addq	%r15, %rbx
	incq	%rsi
	cmpq	264(%rsp), %rsi
	jg	.LBB41_74
.LBB41_69:
	movb	$48, 64(%rsp)
	testq	%rbx, %rbx
	js	.LBB41_87
	movq	%r12, %r15
	subq	%rbx, %r15
	jl	.LBB41_87
	testq	%r15, %r15
	cmovgq	%rbp, %r15
	jle	.LBB41_73
	leaq	(%rdi,%rbx), %rcx
	movq	%r14, %rdx
	movq	%r15, %r8
	callq	memcpy
	jmp	.LBB41_73
.LBB41_90:
	movq	%r14, %rdx
	shrq	$2, %rdx
	movabsq	$2951479051793528259, %rax
	mulxq	%rax, %rax, %rax
	shrl	$2, %eax
	addb	$48, %al
	movabsq	$-3689348814741910323, %rcx
	movq	%r14, %rdx
	mulxq	%rcx, %rcx, %rcx
	shrq	$3, %rcx
	movzbl	%cl, %edx
	imull	$205, %edx, %edx
	shrl	$10, %edx
	andl	$-2, %edx
	leal	(%rdx,%rdx,4), %edx
	movl	%ecx, %r8d
	subb	%dl, %r8b
	orb	$48, %r8b
	addl	%ecx, %ecx
	leal	(%rcx,%rcx,4), %ecx
	subl	%ecx, %r14d
	orb	$48, %r14b
	movb	%al, 64(%rsp)
	movb	%r8b, 65(%rsp)
	movb	%r14b, 66(%rsp)
	testq	%rbx, %rbx
	js	.LBB41_87
	movq	%r12, %rax
	subq	%rbx, %rax
	jl	.LBB41_87
	cmpq	$3, %rax
	movl	$3, %r14d
.LBB41_93:
	cmovlq	%rax, %r14
	testq	%rax, %rax
	jle	.LBB41_95
	leaq	(%rdi,%rbx), %rcx
	leaq	64(%rsp), %rdx
	movq	%r14, %r8
	callq	memcpy
.LBB41_95:
	addq	%rbx, %r14
	js	.LBB41_97
	cmpq	%r12, %r14
	jg	.LBB41_97
	movq	%rdi, (%rbp)
	movq	%r14, 8(%rbp)
.LBB41_99:
	movq	%rbp, %rax
	addq	$152, %rsp
	popq	%rbx
	popq	%rbp
	popq	%rdi
	popq	%rsi
	popq	%r12
	popq	%r13
	popq	%r14
	popq	%r15
	retq
.LBB41_87:
	movq	%r12, 40(%rsp)
	movq	%r12, 32(%rsp)
	leaq	".Lggv$strconv::format_digits.add_bytes-1$1"(%rip), %rcx
	movl	$146, %edx
	movl	$22, %r8d
	movq	%rbx, %r9
	callq	"runtime::slice_handle_error"
.LBB41_107:
	movq	%rcx, 32(%rsp)
	leaq	".Lggv$strconv::format_digits$2"(%rip), %rcx
	movl	$174, %edx
	movl	$22, %r8d
	callq	"runtime::bounds_check_error.handle_error-0"
.LBB41_105:
	movq	%r12, 40(%rsp)
	movq	%r12, 32(%rsp)
	leaq	".Lggv$strconv::format_digits.add_bytes-1$1"(%rip), %rcx
	movl	$146, %edx
	movl	$22, %r8d
	xorl	%r9d, %r9d
	callq	"runtime::slice_handle_error"
.LBB41_111:
	movq	%r12, 40(%rsp)
	movq	%r12, 32(%rsp)
	leaq	".Lggv$strconv::format_digits.add_bytes-1$1"(%rip), %rcx
	movl	$146, %edx
	movl	$22, %r8d
	movq	%r15, %r9
	callq	"runtime::slice_handle_error"
.LBB41_97:
	movq	%r12, 40(%rsp)
	movq	%r14, 32(%rsp)
	jmp	.LBB41_44
.LBB41_43:
	movq	%r12, 40(%rsp)
	movq	%rbx, 32(%rsp)
.LBB41_44:
	leaq	".Lggv$strconv::format_digits.to_bytes-0$1"(%rip), %rcx
	movl	$143, %edx
	movl	$13, %r8d
	xorl	%r9d, %r9d
	callq	"runtime::slice_handle_error"
.LBB41_108:
	movq	$0, 32(%rsp)
	leaq	".Lggv$strconv::format_digits$3"(%rip), %rcx
	movl	$186, %edx
	movl	$21, %r8d
	xorl	%r9d, %r9d
	callq	"runtime::bounds_check_error.handle_error-0"
.LBB41_106:
	movq	%rcx, 40(%rsp)
	movq	%rsi, 32(%rsp)
	leaq	".Lggv$strconv::format_digits$1"(%rip), %rcx
	movl	$159, %edx
	movl	$31, %r8d
	xorl	%r9d, %r9d
	callq	"runtime::slice_handle_error"
.LBB41_109:
	movq	%r12, 40(%rsp)
	movq	%r12, 32(%rsp)
	leaq	".Lggv$strconv::format_digits.add_bytes-1$1"(%rip), %rcx
	movl	$146, %edx
	movl	$22, %r8d
	movq	%r14, %r9
	callq	"runtime::slice_handle_error"
.LBB41_110:
	movq	%rax, 40(%rsp)
	movq	%rsi, 32(%rsp)
	leaq	".Lggv$strconv::format_digits$4"(%rip), %rcx
	movl	$1, %r9d
	movl	$195, %edx
	movl	$32, %r8d
	callq	"runtime::slice_handle_error"
	int3
	.seh_endproc

	.def	"runtime::print_encoded_rune";
	.scl	3;
	.type	32;
	.endef
	.p2align	4
"runtime::print_encoded_rune":
.seh_proc "runtime::print_encoded_rune"
	pushq	%rsi
	.seh_pushreg %rsi
	pushq	%rdi
	.seh_pushreg %rdi
	pushq	%rbx
	.seh_pushreg %rbx
	subq	$32, %rsp
	.seh_stackalloc 32
	.seh_endprologue
	movl	%ecx, %esi
	movb	$39, %cl
	callq	"runtime::print_byte"
	leal	-7(%rsi), %eax
	cmpl	$20, %eax
	ja	.LBB42_10
	leaq	.LJTI42_0(%rip), %rcx
	movslq	(%rcx,%rax,4), %rax
	addq	%rcx, %rax
	jmpq	*%rax
.LBB42_2:
	leaq	".Lggv$io::write_escaped_rune$9"(%rip), %rcx
	callq	"runtime::print_string"
	jmp	.LBB42_15
.LBB42_10:
	testl	%esi, %esi
	jle	.LBB42_11
	cmpl	$31, %esi
	ja	.LBB42_14
	movl	%esi, %edi
	shrl	$4, %edi
	andl	$15, %esi
	leaq	".Lggv$io::write_encoded_rune$9"(%rip), %rcx
	callq	"runtime::print_string"
	leaq	.Lcsbs$test$0(%rip), %rbx
	movzbl	(%rdi,%rbx), %ecx
	callq	"runtime::print_byte"
	movzbl	(%rsi,%rbx), %ecx
	callq	"runtime::print_byte"
	jmp	.LBB42_15
.LBB42_5:
	leaq	".Lggv$io::write_escaped_rune$12"(%rip), %rcx
	callq	"runtime::print_string"
	jmp	.LBB42_15
.LBB42_3:
	leaq	".Lggv$io::write_escaped_rune$10"(%rip), %rcx
	callq	"runtime::print_string"
	jmp	.LBB42_15
.LBB42_7:
	leaq	".Lggv$io::write_escaped_rune$14"(%rip), %rcx
	callq	"runtime::print_string"
	jmp	.LBB42_15
.LBB42_4:
	leaq	".Lggv$io::write_escaped_rune$11"(%rip), %rcx
	callq	"runtime::print_string"
	jmp	.LBB42_15
.LBB42_8:
	leaq	".Lggv$io::write_escaped_rune$15"(%rip), %rcx
	callq	"runtime::print_string"
	jmp	.LBB42_15
.LBB42_6:
	leaq	".Lggv$io::write_escaped_rune$13"(%rip), %rcx
	callq	"runtime::print_string"
	jmp	.LBB42_15
.LBB42_9:
	leaq	".Lggv$io::write_escaped_rune$16"(%rip), %rcx
	callq	"runtime::print_string"
	jmp	.LBB42_15
.LBB42_11:
	leaq	".Lggv$runtime::print_encoded_rune$9"(%rip), %rcx
	callq	"runtime::print_string"
	jmp	.LBB42_15
.LBB42_14:
	movl	%esi, %ecx
	callq	"runtime::print_rune"
.LBB42_15:
	movb	$39, %cl
	addq	$32, %rsp
	popq	%rbx
	popq	%rdi
	popq	%rsi
	jmp	"runtime::print_byte"
	.section	.rdata,"dr"
	.p2align	2, 0x0
.LJTI42_0:
	.long	.LBB42_2-.LJTI42_0
	.long	.LBB42_3-.LJTI42_0
	.long	.LBB42_8-.LJTI42_0
	.long	.LBB42_6-.LJTI42_0
	.long	.LBB42_9-.LJTI42_0
	.long	.LBB42_5-.LJTI42_0
	.long	.LBB42_7-.LJTI42_0
	.long	.LBB42_10-.LJTI42_0
	.long	.LBB42_10-.LJTI42_0
	.long	.LBB42_10-.LJTI42_0
	.long	.LBB42_10-.LJTI42_0
	.long	.LBB42_10-.LJTI42_0
	.long	.LBB42_10-.LJTI42_0
	.long	.LBB42_10-.LJTI42_0
	.long	.LBB42_10-.LJTI42_0
	.long	.LBB42_10-.LJTI42_0
	.long	.LBB42_10-.LJTI42_0
	.long	.LBB42_10-.LJTI42_0
	.long	.LBB42_10-.LJTI42_0
	.long	.LBB42_10-.LJTI42_0
	.long	.LBB42_4-.LJTI42_0
	.text
	.seh_endproc

	.def	"io::write_encoded_rune";
	.scl	3;
	.type	32;
	.endef
	.p2align	4
"io::write_encoded_rune":
.seh_proc "io::write_encoded_rune"
	pushq	%r15
	.seh_pushreg %r15
	pushq	%r14
	.seh_pushreg %r14
	pushq	%r13
	.seh_pushreg %r13
	pushq	%r12
	.seh_pushreg %r12
	pushq	%rsi
	.seh_pushreg %rsi
	pushq	%rdi
	.seh_pushreg %rdi
	pushq	%rbp
	.seh_pushreg %rbp
	pushq	%rbx
	.seh_pushreg %rbx
	subq	$184, %rsp
	.seh_stackalloc 184
	.seh_endprologue
	movq	%r9, %rsi
	movl	%r8d, %ebx
	movl	%edx, %r14d
	movq	296(%rsp), %rdi
	movq	288(%rsp), %r12
	vmovups	(%rcx), %xmm0
	vmovaps	%xmm0, 112(%rsp)
	movq	$0, 88(%rsp)
	testb	%r8b, %r8b
	je	.LBB43_3
	movq	112(%rsp), %rax
	movq	120(%rsp), %rcx
	movb	$39, 87(%rsp)
	leaq	87(%rsp), %rdx
	movq	%rdx, 96(%rsp)
	movq	$1, 104(%rsp)
	testq	%rax, %rax
	je	.LBB43_9
	movq	$0, 72(%rsp)
	movq	%rdi, 48(%rsp)
	leaq	72(%rsp), %rdx
	movq	%rdx, 40(%rsp)
	movq	$0, 32(%rsp)
	leaq	96(%rsp), %r8
	movl	$4, %edx
	xorl	%r9d, %r9d
	callq	*%rax
	movq	72(%rsp), %r13
	movq	%r13, 88(%rsp)
	testl	%eax, %eax
	jne	.LBB43_33
	jmp	.LBB43_4
.LBB43_3:
	xorl	%r13d, %r13d
.LBB43_4:
	leal	-7(%r14), %eax
	cmpl	$20, %eax
	ja	.LBB43_10
	leaq	.LJTI43_0(%rip), %rcx
	movslq	(%rcx,%rax,4), %rax
	addq	%rcx, %rax
	jmpq	*%rax
.LBB43_6:
	movq	112(%rsp), %rax
	movq	120(%rsp), %rcx
	vmovups	".Lggv$io::write_escaped_rune$9"(%rip), %xmm0
	jmp	.LBB43_7
.LBB43_9:
	movl	$-1, %eax
	xorl	%r13d, %r13d
	jmp	.LBB43_33
.LBB43_10:
	cmpl	$31, %r14d
	jg	.LBB43_30
	movq	112(%rsp), %rbp
	movq	120(%rsp), %r15
	vmovups	".Lggv$io::write_encoded_rune$9"(%rip), %xmm0
	vmovaps	%xmm0, 96(%rsp)
	testq	%rbp, %rbp
	je	.LBB43_8
	movq	$0, 72(%rsp)
	movq	%rdi, 48(%rsp)
	leaq	72(%rsp), %rax
	movq	%rax, 40(%rsp)
	movq	$0, 32(%rsp)
	leaq	96(%rsp), %r8
	movl	$4, %edx
	movq	%r15, %rcx
	xorl	%r9d, %r9d
	callq	*%rbp
	addq	72(%rsp), %r13
	movq	%r13, 88(%rsp)
	testl	%eax, %eax
	jne	.LBB43_33
	movw	$0, 142(%rsp)
	leaq	142(%rsp), %rax
	movq	%rax, 160(%rsp)
	movq	$2, 168(%rsp)
	movslq	%r14d, %r8
	vxorps	%xmm0, %xmm0, %xmm0
	vmovaps	%xmm0, 144(%rsp)
	movq	%rdi, 64(%rsp)
	leaq	"strconv::digits"(%rip), %rax
	movq	%rax, 48(%rsp)
	movb	$0, 56(%rsp)
	movq	$64, 40(%rsp)
	movb	$1, 32(%rsp)
	leaq	144(%rsp), %rcx
	leaq	160(%rsp), %rdx
	movl	$16, %r9d
	callq	"strconv::write_bits"
	movq	144(%rsp), %rcx
	movq	152(%rsp), %r14
	cmpq	$2, %r14
	je	.LBB43_36
	cmpq	$1, %r14
	je	.LBB43_34
	testq	%r14, %r14
	jne	.LBB43_26
	vmovups	".Lggv$io::write_encoded_rune$10"(%rip), %xmm0
	vmovaps	%xmm0, 96(%rsp)
	movq	$0, 72(%rsp)
	movq	%rdi, 48(%rsp)
	leaq	72(%rsp), %rax
	movq	%rax, 40(%rsp)
	movq	$0, 32(%rsp)
	leaq	96(%rsp), %r8
	movl	$4, %edx
	movq	%r15, %rcx
	xorl	%r9d, %r9d
	callq	*%rbp
	jmp	.LBB43_25
.LBB43_17:
	movq	112(%rsp), %rax
	movq	120(%rsp), %rcx
	vmovups	".Lggv$io::write_escaped_rune$12"(%rip), %xmm0
	jmp	.LBB43_7
.LBB43_18:
	movq	112(%rsp), %rax
	movq	120(%rsp), %rcx
	vmovups	".Lggv$io::write_escaped_rune$10"(%rip), %xmm0
	jmp	.LBB43_7
.LBB43_19:
	movq	112(%rsp), %rax
	movq	120(%rsp), %rcx
	vmovups	".Lggv$io::write_escaped_rune$14"(%rip), %xmm0
	jmp	.LBB43_7
.LBB43_20:
	movq	112(%rsp), %rax
	movq	120(%rsp), %rcx
	vmovups	".Lggv$io::write_escaped_rune$11"(%rip), %xmm0
	jmp	.LBB43_7
.LBB43_21:
	movq	112(%rsp), %rax
	movq	120(%rsp), %rcx
	vmovups	".Lggv$io::write_escaped_rune$15"(%rip), %xmm0
	jmp	.LBB43_7
.LBB43_22:
	movq	112(%rsp), %rax
	movq	120(%rsp), %rcx
	vmovups	".Lggv$io::write_escaped_rune$13"(%rip), %xmm0
	jmp	.LBB43_7
.LBB43_23:
	movq	112(%rsp), %rax
	movq	120(%rsp), %rcx
	vmovups	".Lggv$io::write_escaped_rune$16"(%rip), %xmm0
.LBB43_7:
	vmovaps	%xmm0, 96(%rsp)
	testq	%rax, %rax
	je	.LBB43_8
	movq	$0, 72(%rsp)
	movq	%rdi, 48(%rsp)
	leaq	72(%rsp), %rdx
	movq	%rdx, 40(%rsp)
	movq	$0, 32(%rsp)
	leaq	96(%rsp), %r8
	movl	$4, %edx
	xorl	%r9d, %r9d
	callq	*%rax
.LBB43_25:
	addq	72(%rsp), %r13
	movq	%r13, 88(%rsp)
	testl	%eax, %eax
	jne	.LBB43_33
.LBB43_26:
	testb	%bl, %bl
	je	.LBB43_29
	movq	112(%rsp), %rax
	movq	120(%rsp), %rcx
	movb	$39, 87(%rsp)
	leaq	87(%rsp), %rdx
	movq	%rdx, 96(%rsp)
	movq	$1, 104(%rsp)
	testq	%rax, %rax
	je	.LBB43_31
	movq	$0, 72(%rsp)
	movq	%rdi, 48(%rsp)
	leaq	72(%rsp), %rdx
	movq	%rdx, 40(%rsp)
	movq	$0, 32(%rsp)
	leaq	96(%rsp), %r8
	movl	$4, %edx
	xorl	%r9d, %r9d
	callq	*%rax
	movq	88(%rsp), %r13
	addq	72(%rsp), %r13
	jmp	.LBB43_33
.LBB43_8:
	movl	$-1, %eax
	jmp	.LBB43_33
.LBB43_29:
	xorl	%eax, %eax
	jmp	.LBB43_32
.LBB43_30:
	movq	%rdi, 32(%rsp)
	leaq	112(%rsp), %rcx
	leaq	88(%rsp), %r8
	leaq	176(%rsp), %r9
	movl	%r14d, %edx
	callq	"io::write_rune"
	testl	%eax, %eax
	jne	.LBB43_32
	jmp	.LBB43_26
.LBB43_31:
	movl	$-1, %eax
.LBB43_32:
	movq	88(%rsp), %r13
.LBB43_33:
	movq	%r13, (%r12)
	addq	%r13, (%rsi)
	addq	$184, %rsp
	popq	%rbx
	popq	%rbp
	popq	%rdi
	popq	%rsi
	popq	%r12
	popq	%r13
	popq	%r14
	popq	%r15
	retq
.LBB43_34:
	movq	%rcx, %r13
	leaq	112(%rsp), %rcx
	leaq	88(%rsp), %r8
	movb	$48, %dl
	movq	%rdi, %r9
	callq	"io::write_byte"
	movq	%r13, %rcx
	testl	%eax, %eax
	jne	.LBB43_32
.LBB43_36:
	movq	%rcx, 96(%rsp)
	movq	%r14, 104(%rsp)
	movq	$0, 72(%rsp)
	movq	%rdi, 48(%rsp)
	leaq	72(%rsp), %rax
	movq	%rax, 40(%rsp)
	movq	$0, 32(%rsp)
	leaq	96(%rsp), %r8
	movl	$4, %edx
	movq	%r15, %rcx
	xorl	%r9d, %r9d
	callq	*%rbp
	movq	88(%rsp), %r13
	jmp	.LBB43_25
	.section	.rdata,"dr"
	.p2align	2, 0x0
.LJTI43_0:
	.long	.LBB43_6-.LJTI43_0
	.long	.LBB43_18-.LJTI43_0
	.long	.LBB43_21-.LJTI43_0
	.long	.LBB43_22-.LJTI43_0
	.long	.LBB43_23-.LJTI43_0
	.long	.LBB43_17-.LJTI43_0
	.long	.LBB43_19-.LJTI43_0
	.long	.LBB43_10-.LJTI43_0
	.long	.LBB43_10-.LJTI43_0
	.long	.LBB43_10-.LJTI43_0
	.long	.LBB43_10-.LJTI43_0
	.long	.LBB43_10-.LJTI43_0
	.long	.LBB43_10-.LJTI43_0
	.long	.LBB43_10-.LJTI43_0
	.long	.LBB43_10-.LJTI43_0
	.long	.LBB43_10-.LJTI43_0
	.long	.LBB43_10-.LJTI43_0
	.long	.LBB43_10-.LJTI43_0
	.long	.LBB43_10-.LJTI43_0
	.long	.LBB43_10-.LJTI43_0
	.long	.LBB43_20-.LJTI43_0
	.text
	.seh_endproc

	.def	"runtime::mem_alloc";
	.scl	3;
	.type	32;
	.endef
	.p2align	4
"runtime::mem_alloc":
.seh_proc "runtime::mem_alloc"
	pushq	%rsi
	.seh_pushreg %rsi
	pushq	%rdi
	.seh_pushreg %rdi
	subq	$120, %rsp
	.seh_stackalloc 120
	.seh_endprologue
	movq	184(%rsp), %rax
	testq	%rdx, %rdx
	jle	.LBB44_6
	movq	%rdx, %r10
	movq	%rcx, %r11
	xorl	%ecx, %ecx
	popcntq	%rdx, %rcx
	cmpl	$2, %ecx
	jae	.LBB44_6
	movq	176(%rsp), %rsi
	movq	(%r8), %rdi
	testq	%r11, %r11
	sete	%cl
	testq	%rdi, %rdi
	sete	%dl
	orb	%cl, %dl
	cmpb	$1, %dl
	jne	.LBB44_5
	xorl	%ecx, %ecx
	xorl	%edx, %edx
	xorl	%eax, %eax
	jmp	.LBB44_4
.LBB44_5:
	movq	8(%r8), %rcx
	vxorps	%xmm0, %xmm0, %xmm0
	vmovaps	%xmm0, 80(%rsp)
	movq	%rax, 64(%rsp)
	leaq	80(%rsp), %rax
	movq	%rax, 56(%rsp)
	movq	%r9, 48(%rsp)
	vmovups	%xmm0, 32(%rsp)
	xorl	%edx, %edx
	movq	%r11, %r8
	movq	%r10, %r9
	callq	*%rdi
	movq	80(%rsp), %rcx
	movq	88(%rsp), %rdx
.LBB44_4:
	movq	%rcx, (%rsi)
	movq	%rdx, 8(%rsi)
	addq	$120, %rsp
	popq	%rdi
	popq	%rsi
	retq
.LBB44_6:
	vmovups	".Lggv$runtime::mem_resize$1"(%rip), %xmm0
	vmovaps	%xmm0, 96(%rsp)
	movq	32(%rax), %rcx
	testq	%rcx, %rcx
	leaq	"runtime::default_assertion_failure_proc"(%rip), %r10
	cmovneq	%rcx, %r10
	leaq	".Lggv$runtime::assert.internal-0$1"(%rip), %rcx
	leaq	96(%rsp), %rdx
	movq	%r9, %r8
	movq	%rax, %r9
	callq	*%r10
	int3
	.seh_endproc

	.def	"mem::tracking_allocator_bad_free_callback_panic";
	.scl	3;
	.type	32;
	.endef
	.p2align	4
"mem::tracking_allocator_bad_free_callback_panic":
.seh_proc "mem::tracking_allocator_bad_free_callback_panic"
	pushq	%rsi
	.seh_pushreg %rsi
	subq	$32, %rsp
	.seh_stackalloc 32
	.seh_endprologue
	movq	%r8, %rcx
	movq	%rdx, %rsi
	callq	"runtime::print_caller_location"
	leaq	".Lggv$mem::tracking_allocator_bad_free_callback_panic$1"(%rip), %rcx
	callq	"runtime::print_string"
	movq	%rsi, %rcx
	callq	"runtime::print_uintptr"
	leaq	".Lggv$mem::tracking_allocator_bad_free_callback_panic$2"(%rip), %rcx
	callq	"runtime::print_string"
	ud2
	.seh_endproc

	.def	"runtime::mem_alloc_non_zeroed";
	.scl	3;
	.type	32;
	.endef
	.p2align	4
"runtime::mem_alloc_non_zeroed":
.seh_proc "runtime::mem_alloc_non_zeroed"
	pushq	%rsi
	.seh_pushreg %rsi
	subq	$96, %rsp
	.seh_stackalloc 96
	.seh_endprologue
	movq	%r9, %rsi
	movq	%rcx, %rax
	movq	(%rdx), %r10
	testq	%rcx, %rcx
	sete	%cl
	testq	%r10, %r10
	sete	%r9b
	orb	%cl, %r9b
	cmpb	$1, %r9b
	jne	.LBB46_3
	xorl	%ecx, %ecx
	xorl	%edx, %edx
	xorl	%eax, %eax
	jmp	.LBB46_2
.LBB46_3:
	movq	144(%rsp), %r9
	movq	8(%rdx), %rcx
	vxorps	%xmm0, %xmm0, %xmm0
	vmovaps	%xmm0, 80(%rsp)
	movq	%r9, 64(%rsp)
	leaq	80(%rsp), %rdx
	movq	%rdx, 56(%rsp)
	movq	%r8, 48(%rsp)
	vmovups	%xmm0, 32(%rsp)
	movl	$64, %r9d
	movb	$6, %dl
	movq	%rax, %r8
	callq	*%r10
	movq	80(%rsp), %rcx
	movq	88(%rsp), %rdx
.LBB46_2:
	movq	%rcx, (%rsi)
	movq	%rdx, 8(%rsi)
	addq	$96, %rsp
	popq	%rsi
	retq
	.seh_endproc

	.def	"strconv_decimal::assign";
	.scl	3;
	.type	32;
	.endef
	.p2align	4
"strconv_decimal::assign":
.seh_proc "strconv_decimal::assign"
	pushq	%rsi
	.seh_pushreg %rsi
	pushq	%rdi
	.seh_pushreg %rdi
	pushq	%rbx
	.seh_pushreg %rbx
	subq	$112, %rsp
	.seh_stackalloc 112
	.seh_endprologue
	vxorps	%xmm0, %xmm0, %xmm0
	vmovups	%ymm0, 80(%rsp)
	vmovups	%ymm0, 48(%rsp)
	testq	%rdx, %rdx
	je	.LBB47_7
	movq	%rdx, %rax
	xorl	%r8d, %r8d
	movabsq	$-3689348814741910323, %r9
	movabsq	$2951479051793528259, %r10
	movabsq	$2361183241434822607, %r11
	movabsq	$3777893186295716171, %rsi
	.p2align	4
.LBB47_2:
	cmpq	$64, %r8
	je	.LBB47_21
	movq	%rax, %rdx
	mulxq	%r9, %rdi, %rdi
	shrq	$3, %rdi
	imull	$246, %edi, %edx
	addl	%eax, %edx
	addb	$48, %dl
	movb	%dl, 48(%rsp,%r8)
	cmpq	$10, %rax
	jb	.LBB47_8
	movq	%rax, %rdx
	shrq	$2, %rdx
	mulxq	%r10, %rbx, %rbx
	shrq	$2, %rbx
	imull	$246, %ebx, %edx
	addl	%edx, %edi
	addb	$48, %dil
	movb	%dil, 49(%rsp,%r8)
	cmpq	$100, %rax
	jb	.LBB47_9
	movq	%rax, %rdx
	shrq	$3, %rdx
	mulxq	%r11, %rdi, %rdi
	shrq	$4, %rdi
	imull	$246, %edi, %edx
	addl	%edx, %ebx
	addb	$48, %bl
	movb	%bl, 50(%rsp,%r8)
	cmpq	$1000, %rax
	jb	.LBB47_10
	movq	%rax, %rdx
	mulxq	%rsi, %rdx, %rdx
	shrq	$11, %rdx
	imull	$246, %edx, %ebx
	addl	%ebx, %edi
	addb	$48, %dil
	movb	%dil, 51(%rsp,%r8)
	addq	$4, %r8
	cmpq	$10000, %rax
	movq	%rdx, %rax
	jae	.LBB47_2
	jmp	.LBB47_11
.LBB47_7:
	vxorps	%xmm0, %xmm0, %xmm0
	vmovups	%xmm0, 384(%rcx)
	addq	$392, %rcx
	movq	%rcx, %rdx
	jmp	.LBB47_19
.LBB47_8:
	incq	%r8
	jmp	.LBB47_11
.LBB47_9:
	addq	$2, %r8
	jmp	.LBB47_11
.LBB47_10:
	addq	$3, %r8
.LBB47_11:
	movq	$0, 384(%rcx)
	incq	%r8
	xorl	%r9d, %r9d
	.p2align	4
.LBB47_12:
	cmpq	$384, %r9
	jae	.LBB47_22
	movzbl	46(%rsp,%r8), %eax
	movb	%al, (%rcx,%r9)
	movq	384(%rcx), %rax
	leaq	1(%rax), %r9
	movq	%r9, 384(%rcx)
	decq	%r8
	cmpq	$1, %r8
	jg	.LBB47_12
	leaq	392(%rcx), %rdx
	movq	%r9, 392(%rcx)
	movabsq	$9223372036854775806, %r8
	cmpq	%r8, %rax
	ja	.LBB47_18
	.p2align	4
.LBB47_15:
	cmpq	$385, %r9
	jae	.LBB47_23
	cmpb	$48, (%rcx,%rax)
	jne	.LBB47_20
	movq	%rax, 384(%rcx)
	leaq	-1(%rax), %r8
	incq	%rax
	cmpq	$1, %rax
	movq	%r8, %rax
	ja	.LBB47_15
	jmp	.LBB47_19
.LBB47_18:
	testq	%r9, %r9
	jne	.LBB47_20
.LBB47_19:
	movq	$0, (%rdx)
.LBB47_20:
	addq	$112, %rsp
	popq	%rbx
	popq	%rdi
	popq	%rsi
	vzeroupper
	retq
.LBB47_22:
	movq	$384, 32(%rsp)
	leaq	".Lggv$strconv_decimal::assign$2"(%rip), %rcx
	movl	$187, %edx
	movl	$12, %r8d
	vzeroupper
	callq	"runtime::bounds_check_error.handle_error-0"
.LBB47_21:
	movq	$64, 32(%rsp)
	leaq	".Lggv$strconv_decimal::assign$1"(%rip), %rcx
	movl	$64, %r9d
	movl	$180, %edx
	movl	$7, %r8d
	vzeroupper
	callq	"runtime::bounds_check_error.handle_error-0"
.LBB47_23:
	movq	$384, 32(%rsp)
	leaq	".Lggv$strconv_decimal::trim$1"(%rip), %rcx
	movl	$158, %edx
	movl	$30, %r8d
	movq	%rax, %r9
	vzeroupper
	callq	"runtime::bounds_check_error.handle_error-0"
	int3
	.seh_endproc

	.def	"runtime::print_rune";
	.scl	3;
	.type	32;
	.endef
	.p2align	4
"runtime::print_rune":
.seh_proc "runtime::print_rune"
	pushq	%r14
	.seh_pushreg %r14
	pushq	%rsi
	.seh_pushreg %rsi
	pushq	%rdi
	.seh_pushreg %rdi
	pushq	%rbp
	.seh_pushreg %rbp
	pushq	%rbx
	.seh_pushreg %rbx
	subq	$48, %rsp
	.seh_stackalloc 48
	.seh_endprologue
	cmpl	$127, %ecx
	ja	.LBB48_1
	addq	$48, %rsp
	popq	%rbx
	popq	%rbp
	popq	%rdi
	popq	%rsi
	popq	%r14
	jmp	"runtime::print_byte"
.LBB48_1:
	cmpl	$2047, %ecx
	ja	.LBB48_3
	movl	%ecx, %edx
	shrl	$6, %edx
	orb	$-64, %dl
	movl	$2, %ebx
	xorl	%eax, %eax
	xorl	%r8d, %r8d
	jmp	.LBB48_6
.LBB48_3:
	movl	%ecx, %eax
	andl	$2095104, %eax
	cmpl	$55296, %eax
	movl	$65533, %edx
	movl	%ecx, %eax
	cmovel	%edx, %eax
	cmpl	$1114112, %ecx
	cmovael	%edx, %eax
	movl	%eax, %edx
	cmpl	$65535, %ecx
	ja	.LBB48_5
	shrl	$12, %edx
	orb	$-32, %dl
	movl	%eax, %ecx
	shrl	$6, %ecx
	andb	$63, %al
	orb	$-128, %al
	movl	$3, %ebx
	xorl	%r8d, %r8d
	jmp	.LBB48_6
.LBB48_5:
	shrl	$18, %edx
	orb	$-16, %dl
	movl	%eax, %ecx
	shrl	$12, %ecx
	movl	%eax, %r9d
	shrl	$6, %r9d
	andb	$63, %r9b
	orb	$-128, %r9b
	andb	$63, %al
	movl	%eax, %r8d
	orb	$-128, %r8b
	movl	$4, %ebx
	movl	%r9d, %eax
.LBB48_6:
	andb	$63, %cl
	orb	$-128, %cl
	movb	%dl, 40(%rsp)
	movb	%cl, 41(%rsp)
	movb	%al, 42(%rsp)
	movb	%r8b, 43(%rsp)
	movl	$-12, %ecx
	callq	GetStdHandle
	movq	%rax, %rsi
	xorl	%r14d, %r14d
	movq	%rax, %rcx
	movl	$1, %edx
	xorl	%r8d, %r8d
	callq	SetHandleInformation
	movl	$0, 44(%rsp)
	movl	$1073741824, %ebp
	leaq	44(%rsp), %rdi
	.p2align	4
.LBB48_8:
	movl	%ebx, %r8d
	subl	%r14d, %r8d
	cmpl	$1073741824, %r8d
	cmovgel	%ebp, %r8d
	leaq	(%rsp,%r14), %rdx
	addq	$40, %rdx
	movq	$0, 32(%rsp)
	movq	%rsi, %rcx
	movq	%rdi, %r9
	callq	WriteFile
	movl	44(%rsp), %ecx
	testq	%rcx, %rcx
	je	.LBB48_10
	testl	%eax, %eax
	je	.LBB48_10
	addq	%rcx, %r14
	cmpq	%rbx, %r14
	jl	.LBB48_8
	jmp	.LBB48_11
.LBB48_10:
	callq	GetLastError
.LBB48_11:
	nop
	addq	$48, %rsp
	popq	%rbx
	popq	%rbp
	popq	%rdi
	popq	%rsi
	popq	%r14
	retq
	.seh_endproc

	.def	"runtime::print_u64";
	.scl	3;
	.type	32;
	.endef
	.p2align	4
"runtime::print_u64":
.seh_proc "runtime::print_u64"
	pushq	%r15
	.seh_pushreg %r15
	pushq	%r14
	.seh_pushreg %r14
	pushq	%rsi
	.seh_pushreg %rsi
	pushq	%rdi
	.seh_pushreg %rdi
	pushq	%rbp
	.seh_pushreg %rbp
	pushq	%rbx
	.seh_pushreg %rbx
	subq	$184, %rsp
	.seh_stackalloc 184
	.seh_endprologue
	vxorps	%xmm0, %xmm0, %xmm0
	vmovups	%ymm0, 144(%rsp)
	vmovups	%ymm0, 112(%rsp)
	vmovups	%ymm0, 80(%rsp)
	vmovups	%ymm0, 48(%rsp)
	movb	$0, 176(%rsp)
	cmpq	$10, %rcx
	jb	.LBB49_11
	movl	$1, %r14d
	leaq	176(%rsp), %rbx
	leaq	.Lcsbs$test$0(%rip), %rax
	movabsq	$-3689348814741910323, %r8
	.p2align	4
.LBB49_2:
	movq	%rcx, %rdx
	mulxq	%r8, %rcx, %rcx
	shrq	$3, %rcx
	leaq	(%rcx,%rcx), %r9
	leaq	(%r9,%r9,4), %r9
	movq	%rdx, %r10
	subq	%r9, %r10
	movzbl	(%rax,%r10), %r9d
	movb	%r9b, (%rbx)
	incq	%r14
	decq	%rbx
	cmpq	$99, %rdx
	ja	.LBB49_2
	movzbl	(%rcx,%rax), %eax
	movb	%al, (%rbx)
	testq	%r14, %r14
	jne	.LBB49_4
	jmp	.LBB49_10
.LBB49_11:
	leaq	176(%rsp), %rbx
	leaq	.Lcsbs$test$0(%rip), %rax
	movzbl	(%rcx,%rax), %eax
	movb	%al, 176(%rsp)
	movl	$1, %r14d
.LBB49_4:
	movl	$-12, %ecx
	vzeroupper
	callq	GetStdHandle
	movq	%rax, %rsi
	movq	%rax, %rcx
	movl	$1, %edx
	xorl	%r8d, %r8d
	callq	SetHandleInformation
	movl	$0, 44(%rsp)
	testq	%r14, %r14
	jle	.LBB49_10
	xorl	%r15d, %r15d
	movl	$1073741824, %ebp
	leaq	44(%rsp), %rdi
	.p2align	4
.LBB49_7:
	movl	%r14d, %r8d
	subl	%r15d, %r8d
	cmpl	$1073741824, %r8d
	cmovgel	%ebp, %r8d
	leaq	(%rbx,%r15), %rdx
	movq	$0, 32(%rsp)
	movq	%rsi, %rcx
	movq	%rdi, %r9
	callq	WriteFile
	movl	44(%rsp), %ecx
	testq	%rcx, %rcx
	je	.LBB49_9
	testl	%eax, %eax
	je	.LBB49_9
	addq	%rcx, %r15
	cmpq	%r14, %r15
	jl	.LBB49_7
	jmp	.LBB49_10
.LBB49_9:
	callq	GetLastError
.LBB49_10:
	nop
	addq	$184, %rsp
	popq	%rbx
	popq	%rbp
	popq	%rdi
	popq	%rsi
	popq	%r14
	popq	%r15
	vzeroupper
	retq
	.seh_endproc

	.def	"runtime::mem_free";
	.scl	3;
	.type	32;
	.endef
	.p2align	4
"runtime::mem_free":
.seh_proc "runtime::mem_free"
	subq	$104, %rsp
	.seh_stackalloc 104
	.seh_endprologue
	movq	(%rdx), %r10
	testq	%rcx, %rcx
	sete	%al
	testq	%r10, %r10
	sete	%r11b
	orb	%al, %r11b
	cmpb	$1, %r11b
	je	.LBB50_2
	movq	8(%rdx), %rax
	vxorps	%xmm0, %xmm0, %xmm0
	vmovaps	%xmm0, 80(%rsp)
	movq	%r9, 64(%rsp)
	leaq	80(%rsp), %rdx
	movq	%rdx, 56(%rsp)
	movq	%r8, 48(%rsp)
	movq	%rcx, 32(%rsp)
	movq	$0, 40(%rsp)
	movq	%rax, %rcx
	movb	$1, %dl
	xorl	%r8d, %r8d
	xorl	%r9d, %r9d
	callq	*%r10
.LBB50_2:
	nop
	addq	$104, %rsp
	retq
	.seh_endproc

	.def	"strconv_decimal::shift_right";
	.scl	3;
	.type	32;
	.endef
	.p2align	4
"strconv_decimal::shift_right":
.seh_proc "strconv_decimal::shift_right"
	pushq	%rsi
	.seh_pushreg %rsi
	pushq	%rdi
	.seh_pushreg %rdi
	subq	$40, %rsp
	.seh_stackalloc 40
	.seh_endprologue
	movq	384(%rcx), %rax
	movq	%rax, %r8
	sarq	$63, %r8
	andnq	%rax, %r8, %r9
	movq	%rax, %r11
	negq	%r11
	movq	%r9, %rsi
	negq	%rsi
	movl	$3, %r10d
	xorl	%r8d, %r8d
.LBB51_1:
	leaq	(%rsi,%r10), %rdi
	cmpq	$3, %rdi
	je	.LBB51_2
	cmpq	$387, %r10
	je	.LBB51_39
	movzbl	-3(%rcx,%r10), %edi
	leaq	(%r8,%r8,4), %r8
	leaq	(%rdi,%r8,2), %r8
	addq	$-48, %r8
	shrxq	%rdx, %r8, %rdi
	testq	%rdi, %rdi
	jne	.LBB51_14
	leaq	(%r11,%r10), %rdi
	incq	%rdi
	cmpq	$3, %rdi
	je	.LBB51_2
	movzbl	-2(%rcx,%r10), %edi
	leaq	(%r8,%r8,4), %r8
	leaq	(%rdi,%r8,2), %r8
	addq	$-48, %r8
	shrxq	%rdx, %r8, %rdi
	testq	%rdi, %rdi
	jne	.LBB51_15
	leaq	(%r11,%r10), %rdi
	addq	$2, %rdi
	cmpq	$3, %rdi
	je	.LBB51_2
	movzbl	-1(%rcx,%r10), %edi
	leaq	(%r8,%r8,4), %r8
	leaq	(%rdi,%r8,2), %r8
	addq	$-48, %r8
	shrxq	%rdx, %r8, %rdi
	testq	%rdi, %rdi
	jne	.LBB51_16
	cmpq	%r10, %rax
	je	.LBB51_2
	movzbl	(%rcx,%r10), %edi
	leaq	(%r8,%r8,4), %r8
	leaq	(%rdi,%r8,2), %r8
	addq	$-48, %r8
	shrxq	%rdx, %r8, %rdi
	addq	$4, %r10
	testq	%rdi, %rdi
	je	.LBB51_1
	addq	$-3, %r10
	jmp	.LBB51_16
.LBB51_2:
	testq	%r8, %r8
	je	.LBB51_38
	.p2align	4
.LBB51_3:
	shrxq	%rdx, %r8, %r10
	testq	%r10, %r10
	jne	.LBB51_17
	addq	%r8, %r8
	leaq	(%r8,%r8,4), %r8
	incq	%r9
	jmp	.LBB51_3
.LBB51_38:
	movq	$0, 384(%rcx)
	jmp	.LBB51_37
.LBB51_14:
	addq	$-2, %r10
	jmp	.LBB51_16
.LBB51_15:
	decq	%r10
.LBB51_16:
	movq	%r10, %r9
.LBB51_17:
	movq	392(%rcx), %r10
	subq	%r9, %r10
	incq	%r10
	movq	%r10, 392(%rcx)
	movq	$-1, %r10
	shlxq	%rdx, %r10, %r10
	notq	%r10
	cmpq	%rax, %r9
	jge	.LBB51_18
	xorl	%eax, %eax
	.p2align	4
.LBB51_24:
	cmpq	$384, %r9
	jae	.LBB51_40
	shrxq	%rdx, %r8, %r11
	andq	%r10, %r8
	movzbl	(%rcx,%r9), %esi
	addb	$48, %r11b
	movb	%r11b, (%rcx,%rax)
	incq	%rax
	leaq	(%r8,%r8,4), %r8
	leaq	(%rsi,%r8,2), %r8
	addq	$-48, %r8
	incq	%r9
	cmpq	384(%rcx), %r9
	jl	.LBB51_24
	testq	%r8, %r8
	jne	.LBB51_20
	jmp	.LBB51_31
.LBB51_18:
	xorl	%eax, %eax
	testq	%r8, %r8
	jne	.LBB51_20
.LBB51_31:
	movq	%rax, 384(%rcx)
	testq	%rax, %rax
	jne	.LBB51_32
	jmp	.LBB51_36
	.p2align	4
.LBB51_29:
	andq	%r10, %r8
	leaq	(%r8,%r8), %r9
	leaq	(%r9,%r9,4), %r9
	testq	%r8, %r8
	movq	%r9, %r8
	je	.LBB51_30
.LBB51_20:
	shrxq	%rdx, %r8, %r9
	cmpq	$383, %rax
	jg	.LBB51_27
	ja	.LBB51_22
	addb	$48, %r9b
	movb	%r9b, (%rcx,%rax)
	incq	%rax
	jmp	.LBB51_29
	.p2align	4
.LBB51_27:
	testq	%r9, %r9
	je	.LBB51_29
	movb	$1, 401(%rcx)
	jmp	.LBB51_29
.LBB51_30:
	movq	%rax, 384(%rcx)
.LBB51_32:
	leaq	-1(%rax), %r9
	.p2align	4
.LBB51_33:
	cmpq	$385, %rax
	jae	.LBB51_41
	cmpb	$48, (%rcx,%r9)
	jne	.LBB51_37
	movq	%r9, 384(%rcx)
	leaq	-1(%r9), %rdx
	incq	%r9
	cmpq	$1, %r9
	movq	%rdx, %r9
	ja	.LBB51_33
.LBB51_36:
	movq	$0, 392(%rcx)
.LBB51_37:
	addq	$40, %rsp
	popq	%rdi
	popq	%rsi
	retq
.LBB51_40:
	movq	$384, 32(%rsp)
	leaq	".Lggv$strconv_decimal::shift_right$2"(%rip), %rcx
	movl	$228, %edx
	movl	$22, %r8d
	callq	"runtime::bounds_check_error.handle_error-0"
.LBB51_41:
	movq	$384, 32(%rsp)
	leaq	".Lggv$strconv_decimal::trim$1"(%rip), %rcx
	movl	$158, %edx
	movl	$30, %r8d
	callq	"runtime::bounds_check_error.handle_error-0"
.LBB51_22:
	movq	$384, 32(%rsp)
	leaq	".Lggv$strconv_decimal::shift_right$4"(%rip), %rcx
	movl	$240, %edx
	movl	$13, %r8d
	movq	%rax, %r9
	callq	"runtime::bounds_check_error.handle_error-0"
.LBB51_39:
	movq	$384, 32(%rsp)
	leaq	".Lggv$strconv_decimal::shift_right$1"(%rip), %rcx
	movl	$384, %r9d
	movl	$220, %edx
	movl	$22, %r8d
	callq	"runtime::bounds_check_error.handle_error-0"
	int3
	.seh_endproc

	.def	"runtime::[random_generator_chacha8.odin]::chacha8rand_refill";
	.scl	3;
	.type	32;
	.endef
	.globl	__ymm@0000000700000006000000050000000400000003000000020000000100000000
	.section	.rdata,"dr",discard,__ymm@0000000700000006000000050000000400000003000000020000000100000000
	.p2align	5, 0x0
__ymm@0000000700000006000000050000000400000003000000020000000100000000:
	.long	0
	.long	1
	.long	2
	.long	3
	.long	4
	.long	5
	.long	6
	.long	7
	.globl	__real@6b206574
	.section	.rdata,"dr",discard,__real@6b206574
	.p2align	2, 0x0
__real@6b206574:
	.long	1797285236
	.globl	__real@79622d32
	.section	.rdata,"dr",discard,__real@79622d32
	.p2align	2, 0x0
__real@79622d32:
	.long	2036477234
	.globl	__real@3320646e
	.section	.rdata,"dr",discard,__real@3320646e
	.p2align	2, 0x0
__real@3320646e:
	.long	857760878
	.globl	__real@61707865
	.section	.rdata,"dr",discard,__real@61707865
	.p2align	2, 0x0
__real@61707865:
	.long	1634760805
	.globl	__ymm@1d1c1f1e19181b1a15141716111013120d0c0f0e09080b0a0504070601000302
	.section	.rdata,"dr",discard,__ymm@1d1c1f1e19181b1a15141716111013120d0c0f0e09080b0a0504070601000302
	.p2align	5, 0x0
__ymm@1d1c1f1e19181b1a15141716111013120d0c0f0e09080b0a0504070601000302:
	.byte	2
	.byte	3
	.byte	0
	.byte	1
	.byte	6
	.byte	7
	.byte	4
	.byte	5
	.byte	10
	.byte	11
	.byte	8
	.byte	9
	.byte	14
	.byte	15
	.byte	12
	.byte	13
	.byte	18
	.byte	19
	.byte	16
	.byte	17
	.byte	22
	.byte	23
	.byte	20
	.byte	21
	.byte	26
	.byte	27
	.byte	24
	.byte	25
	.byte	30
	.byte	31
	.byte	28
	.byte	29
	.globl	__ymm@1e1d1c1f1a19181b16151417121110130e0d0c0f0a09080b0605040702010003
	.section	.rdata,"dr",discard,__ymm@1e1d1c1f1a19181b16151417121110130e0d0c0f0a09080b0605040702010003
	.p2align	5, 0x0
__ymm@1e1d1c1f1a19181b16151417121110130e0d0c0f0a09080b0605040702010003:
	.byte	3
	.byte	0
	.byte	1
	.byte	2
	.byte	7
	.byte	4
	.byte	5
	.byte	6
	.byte	11
	.byte	8
	.byte	9
	.byte	10
	.byte	15
	.byte	12
	.byte	13
	.byte	14
	.byte	19
	.byte	16
	.byte	17
	.byte	18
	.byte	23
	.byte	20
	.byte	21
	.byte	22
	.byte	27
	.byte	24
	.byte	25
	.byte	26
	.byte	31
	.byte	28
	.byte	29
	.byte	30
	.globl	__real@00000008
	.section	.rdata,"dr",discard,__real@00000008
	.p2align	2, 0x0
__real@00000008:
	.long	8
	.globl	__real@0706050403020100
	.section	.rdata,"dr",discard,__real@0706050403020100
	.p2align	3, 0x0
__real@0706050403020100:
	.byte	0
	.byte	1
	.byte	2
	.byte	3
	.byte	4
	.byte	5
	.byte	6
	.byte	7
	.text
	.p2align	4
"runtime::[random_generator_chacha8.odin]::chacha8rand_refill":
.seh_proc "runtime::[random_generator_chacha8.odin]::chacha8rand_refill"
	subq	$920, %rsp
	.seh_stackalloc 920
	vmovdqa	%xmm15, 896(%rsp)
	.seh_savexmm %xmm15, 896
	vmovaps	%xmm14, 880(%rsp)
	.seh_savexmm %xmm14, 880
	vmovaps	%xmm13, 864(%rsp)
	.seh_savexmm %xmm13, 864
	vmovdqa	%xmm12, 848(%rsp)
	.seh_savexmm %xmm12, 848
	vmovdqa	%xmm11, 832(%rsp)
	.seh_savexmm %xmm11, 832
	vmovaps	%xmm10, 816(%rsp)
	.seh_savexmm %xmm10, 816
	vmovaps	%xmm9, 800(%rsp)
	.seh_savexmm %xmm9, 800
	vmovaps	%xmm8, 784(%rsp)
	.seh_savexmm %xmm8, 784
	vmovaps	%xmm7, 768(%rsp)
	.seh_savexmm %xmm7, 768
	vmovaps	%xmm6, 752(%rsp)
	.seh_savexmm %xmm6, 752
	.seh_endprologue
	cmpb	$1, 1032(%rcx)
	jne	.LBB52_6
	vpbroadcastd	992(%rcx), %ymm10
	vpbroadcastd	996(%rcx), %ymm4
	vpbroadcastd	1000(%rcx), %ymm14
	vpbroadcastd	1004(%rcx), %ymm5
	vpbroadcastd	1008(%rcx), %ymm9
	vpbroadcastd	1012(%rcx), %ymm13
	vpbroadcastd	1016(%rcx), %ymm6
	vpbroadcastd	1020(%rcx), %ymm7
	movb	$1, %al
	vpmovsxbd	__real@0706050403020100(%rip), %ymm8
	vbroadcastss	__real@6b206574(%rip), %ymm0
	vmovups	%ymm0, 560(%rsp)
	vbroadcastss	__real@79622d32(%rip), %ymm0
	vmovups	%ymm0, 528(%rsp)
	vbroadcastss	__real@3320646e(%rip), %ymm0
	vmovups	%ymm0, 496(%rsp)
	vbroadcastss	__real@61707865(%rip), %ymm0
	vmovups	%ymm0, 464(%rsp)
	vpbroadcastd	__real@00000008(%rip), %ymm0
	vmovdqu	%ymm0, 432(%rsp)
	movq	%rcx, %rdx
	vmovdqu	%ymm10, 400(%rsp)
	vmovdqu	%ymm4, 368(%rsp)
	vmovdqu	%ymm14, 336(%rsp)
	vmovdqu	%ymm5, 304(%rsp)
	vmovdqu	%ymm9, 272(%rsp)
	vmovdqu	%ymm13, 240(%rsp)
	vmovdqu	%ymm6, 624(%rsp)
	vmovdqu	%ymm7, 592(%rsp)
	.p2align	4
.LBB52_2:
	vpxor	%xmm2, %xmm2, %xmm2
	movl	$10, %r8d
	vmovdqu	464(%rsp), %ymm12
	vmovdqu	496(%rsp), %ymm15
	vmovdqu	528(%rsp), %ymm0
	vmovups	560(%rsp), %ymm1
	vmovdqa	%ymm14, %ymm3
	vmovdqa	%ymm6, %ymm14
	vmovdqu	%ymm7, 160(%rsp)
	vmovdqu	%ymm8, 656(%rsp)
	vpxor	%xmm11, %xmm11, %xmm11
	vpxor	%xmm6, %xmm6, %xmm6
	vmovdqu	%ymm6, 192(%rsp)
	.p2align	4
.LBB52_3:
	vmovups	%ymm1, 32(%rsp)
	vpaddd	%ymm12, %ymm10, %ymm12
	vpxor	%ymm12, %ymm8, %ymm8
	vmovdqa	__ymm@1d1c1f1e19181b1a15141716111013120d0c0f0e09080b0a0504070601000302(%rip), %ymm6
	vpshufb	%ymm6, %ymm8, %ymm8
	vmovdqa	%ymm0, %ymm1
	vmovdqa	%ymm6, %ymm0
	vpaddd	%ymm9, %ymm8, %ymm9
	vpxor	%ymm10, %ymm9, %ymm10
	vpsrld	$20, %ymm10, %ymm6
	vpslld	$12, %ymm10, %ymm10
	vpor	%ymm6, %ymm10, %ymm6
	vpaddd	%ymm6, %ymm12, %ymm12
	vmovdqa	__ymm@1e1d1c1f1a19181b16151417121110130e0d0c0f0a09080b0605040702010003(%rip), %ymm7
	vpshufb	%ymm7, %ymm8, %ymm8
	vpshufb	%ymm7, %ymm12, %ymm10
	vpxor	%ymm8, %ymm10, %ymm8
	vpaddd	%ymm9, %ymm8, %ymm9
	vmovdqu	%ymm9, 96(%rsp)
	vpxor	%ymm6, %ymm9, %ymm6
	vpsrld	$25, %ymm6, %ymm10
	vpslld	$7, %ymm6, %ymm6
	vpor	%ymm6, %ymm10, %ymm6
	vmovdqu	%ymm6, 128(%rsp)
	vpaddd	%ymm4, %ymm15, %ymm6
	vpxor	%ymm6, %ymm2, %ymm2
	vpshufb	%ymm0, %ymm2, %ymm2
	vmovdqa	%ymm0, %ymm15
	vpaddd	%ymm2, %ymm13, %ymm13
	vpxor	%ymm4, %ymm13, %ymm4
	vpsrld	$20, %ymm4, %ymm10
	vpslld	$12, %ymm4, %ymm4
	vpor	%ymm4, %ymm10, %ymm4
	vpaddd	%ymm6, %ymm4, %ymm10
	vmovdqa	%ymm7, %ymm9
	vpshufb	%ymm7, %ymm2, %ymm2
	vpshufb	%ymm7, %ymm10, %ymm6
	vpxor	%ymm2, %ymm6, %ymm2
	vpaddd	%ymm2, %ymm13, %ymm6
	vmovdqu	%ymm6, 64(%rsp)
	vpxor	%ymm4, %ymm6, %ymm4
	vpsrld	$25, %ymm4, %ymm6
	vpslld	$7, %ymm4, %ymm4
	vpor	%ymm6, %ymm4, %ymm4
	vpaddd	%ymm1, %ymm3, %ymm0
	vpxor	%ymm0, %ymm11, %ymm6
	vmovdqa	%ymm15, %ymm13
	vpshufb	%ymm15, %ymm6, %ymm6
	vpaddd	%ymm6, %ymm14, %ymm15
	vpxor	%ymm3, %ymm15, %ymm3
	vpsrld	$20, %ymm3, %ymm11
	vpslld	$12, %ymm3, %ymm3
	vpor	%ymm3, %ymm11, %ymm3
	vpaddd	%ymm0, %ymm3, %ymm0
	vpshufb	%ymm7, %ymm6, %ymm6
	vpshufb	%ymm7, %ymm0, %ymm11
	vpxor	%ymm6, %ymm11, %ymm11
	vpaddd	%ymm15, %ymm11, %ymm6
	vpxor	%ymm3, %ymm6, %ymm3
	vpsrld	$25, %ymm3, %ymm15
	vpslld	$7, %ymm3, %ymm3
	vpor	%ymm3, %ymm15, %ymm3
	vpaddd	32(%rsp), %ymm5, %ymm1
	vpxor	192(%rsp), %ymm1, %ymm15
	vpshufb	%ymm13, %ymm15, %ymm15
	vpaddd	160(%rsp), %ymm15, %ymm7
	vpxor	%ymm5, %ymm7, %ymm5
	vpsrld	$20, %ymm5, %ymm14
	vpslld	$12, %ymm5, %ymm5
	vpor	%ymm5, %ymm14, %ymm5
	vpaddd	%ymm1, %ymm5, %ymm1
	vpshufb	%ymm9, %ymm15, %ymm14
	vpshufb	%ymm9, %ymm1, %ymm15
	vpxor	%ymm14, %ymm15, %ymm14
	vpaddd	%ymm7, %ymm14, %ymm7
	vpxor	%ymm5, %ymm7, %ymm5
	vpsrld	$25, %ymm5, %ymm15
	vpslld	$7, %ymm5, %ymm5
	vpor	%ymm5, %ymm15, %ymm5
	vpaddd	%ymm4, %ymm12, %ymm12
	vpshufb	%ymm13, %ymm14, %ymm14
	vpshufb	%ymm13, %ymm12, %ymm15
	vpxor	%ymm14, %ymm15, %ymm14
	vpaddd	%ymm6, %ymm14, %ymm6
	vpxor	%ymm4, %ymm6, %ymm4
	vpsrld	$20, %ymm4, %ymm15
	vpslld	$12, %ymm4, %ymm4
	vpor	%ymm4, %ymm15, %ymm4
	vpaddd	%ymm4, %ymm12, %ymm12
	vmovdqu	%ymm12, 32(%rsp)
	vpshufb	%ymm9, %ymm14, %ymm14
	vpshufb	%ymm9, %ymm12, %ymm15
	vpxor	%ymm14, %ymm15, %ymm14
	vmovdqu	%ymm14, 192(%rsp)
	vpaddd	%ymm6, %ymm14, %ymm6
	vmovdqu	%ymm6, 720(%rsp)
	vpxor	%ymm4, %ymm6, %ymm4
	vpsrld	$25, %ymm4, %ymm6
	vpslld	$7, %ymm4, %ymm4
	vpor	%ymm6, %ymm4, %ymm4
	vmovdqu	%ymm4, 688(%rsp)
	vpaddd	%ymm3, %ymm10, %ymm6
	vpshufb	%ymm13, %ymm8, %ymm8
	vpshufb	%ymm13, %ymm6, %ymm10
	vpxor	%ymm8, %ymm10, %ymm8
	vpaddd	%ymm7, %ymm8, %ymm7
	vpxor	%ymm3, %ymm7, %ymm3
	vpsrld	$20, %ymm3, %ymm10
	vpslld	$12, %ymm3, %ymm3
	vpor	%ymm3, %ymm10, %ymm3
	vpaddd	%ymm6, %ymm3, %ymm12
	vpshufb	%ymm9, %ymm8, %ymm6
	vpshufb	%ymm9, %ymm12, %ymm8
	vmovdqa	%ymm9, %ymm15
	vpxor	%ymm6, %ymm8, %ymm8
	vpaddd	%ymm7, %ymm8, %ymm6
	vmovdqu	%ymm6, 160(%rsp)
	vpxor	%ymm3, %ymm6, %ymm3
	vpsrld	$25, %ymm3, %ymm6
	vpslld	$7, %ymm3, %ymm3
	vpor	%ymm6, %ymm3, %ymm3
	vpaddd	%ymm0, %ymm5, %ymm0
	vpshufb	%ymm13, %ymm2, %ymm2
	vpshufb	%ymm13, %ymm0, %ymm6
	vpxor	%ymm2, %ymm6, %ymm2
	vpaddd	96(%rsp), %ymm2, %ymm6
	vpxor	%ymm5, %ymm6, %ymm5
	vpsrld	$20, %ymm5, %ymm9
	vpslld	$12, %ymm5, %ymm5
	vpor	%ymm5, %ymm9, %ymm5
	vpaddd	%ymm0, %ymm5, %ymm0
	vpshufb	%ymm15, %ymm2, %ymm2
	vpshufb	%ymm15, %ymm0, %ymm9
	vpxor	%ymm2, %ymm9, %ymm2
	vpaddd	%ymm6, %ymm2, %ymm9
	vpxor	%ymm5, %ymm9, %ymm5
	vpsrld	$25, %ymm5, %ymm6
	vpslld	$7, %ymm5, %ymm5
	vpor	%ymm6, %ymm5, %ymm5
	vmovdqu	128(%rsp), %ymm7
	vpaddd	%ymm1, %ymm7, %ymm1
	vpshufb	%ymm13, %ymm11, %ymm6
	vpshufb	%ymm13, %ymm1, %ymm10
	vpxor	%ymm6, %ymm10, %ymm6
	vpaddd	64(%rsp), %ymm6, %ymm10
	vpxor	%ymm7, %ymm10, %ymm11
	vpsrld	$20, %ymm11, %ymm13
	vpslld	$12, %ymm11, %ymm11
	vpor	%ymm13, %ymm11, %ymm14
	vpaddd	%ymm1, %ymm14, %ymm1
	vpshufb	%ymm15, %ymm6, %ymm6
	vpshufb	%ymm15, %ymm1, %ymm11
	vmovdqa	%ymm12, %ymm15
	vmovdqu	688(%rsp), %ymm4
	vpxor	%ymm6, %ymm11, %ymm11
	vpaddd	%ymm10, %ymm11, %ymm13
	vpxor	%ymm14, %ymm13, %ymm6
	vmovdqu	720(%rsp), %ymm14
	vmovdqu	32(%rsp), %ymm12
	vpsrld	$25, %ymm6, %ymm10
	vpslld	$7, %ymm6, %ymm6
	vpor	%ymm6, %ymm10, %ymm10
	addq	$-2, %r8
	cmpq	$2, %r8
	ja	.LBB52_3
	vinserti128	$1, %xmm15, %ymm12, %ymm6
	vmovdqu	%ymm6, (%rdx)
	vinserti128	$1, %xmm1, %ymm0, %ymm6
	vmovdqu	%ymm6, 32(%rdx)
	vpaddd	400(%rsp), %ymm10, %ymm6
	vmovdqu	%ymm6, 96(%rsp)
	vpaddd	368(%rsp), %ymm4, %ymm4
	vmovdqu	%ymm4, 128(%rsp)
	vinserti128	$1, %xmm4, %ymm6, %ymm10
	vmovdqu	%ymm10, 64(%rdx)
	vpaddd	336(%rsp), %ymm3, %ymm3
	vmovdqu	%ymm3, 64(%rsp)
	vpaddd	304(%rsp), %ymm5, %ymm5
	vinserti128	$1, %xmm5, %ymm3, %ymm10
	vmovdqu	%ymm10, 96(%rdx)
	vpaddd	272(%rsp), %ymm9, %ymm9
	vpaddd	240(%rsp), %ymm13, %ymm10
	vinserti128	$1, %xmm10, %ymm9, %ymm13
	vmovdqu	%ymm13, 128(%rdx)
	vmovdqu	624(%rsp), %ymm6
	vpaddd	%ymm6, %ymm14, %ymm13
	vmovdqu	592(%rsp), %ymm4
	vpaddd	160(%rsp), %ymm4, %ymm7
	vinserti128	$1, %xmm7, %ymm13, %ymm14
	vmovdqu	%ymm14, 160(%rdx)
	vinserti128	$1, %xmm2, %ymm8, %ymm14
	vmovdqu	%ymm14, 192(%rdx)
	vmovdqu	192(%rsp), %ymm3
	vinserti128	$1, %xmm3, %ymm11, %ymm14
	vmovdqu	%ymm14, 224(%rdx)
	vperm2i128	$49, %ymm15, %ymm12, %ymm12
	vmovdqu	%ymm12, 256(%rdx)
	vperm2i128	$49, %ymm1, %ymm0, %ymm0
	vmovdqu	%ymm0, 288(%rdx)
	vmovups	96(%rsp), %ymm0
	vperm2f128	$49, 128(%rsp), %ymm0, %ymm0
	vmovups	%ymm0, 320(%rdx)
	vperm2i128	$19, 64(%rsp), %ymm5, %ymm0
	vmovdqu	304(%rsp), %ymm5
	vmovdqu	336(%rsp), %ymm14
	vmovdqu	%ymm0, 352(%rdx)
	vperm2i128	$49, %ymm10, %ymm9, %ymm0
	vmovdqu	272(%rsp), %ymm9
	vmovdqu	400(%rsp), %ymm10
	vmovdqu	%ymm0, 384(%rdx)
	vperm2i128	$49, %ymm7, %ymm13, %ymm0
	vmovdqa	%ymm4, %ymm7
	vmovdqu	368(%rsp), %ymm4
	vmovdqu	240(%rsp), %ymm13
	vmovdqu	%ymm0, 416(%rdx)
	vperm2i128	$49, %ymm2, %ymm8, %ymm0
	vmovdqu	%ymm0, 448(%rdx)
	vperm2i128	$49, %ymm3, %ymm11, %ymm0
	vmovdqu	%ymm0, 480(%rdx)
	vmovdqu	656(%rsp), %ymm8
	vpaddd	432(%rsp), %ymm8, %ymm8
	addq	$512, %rdx
	testb	$1, %al
	movl	$0, %eax
	jne	.LBB52_2
	movq	$0, 1024(%rcx)
	vmovaps	752(%rsp), %xmm6
	vmovaps	768(%rsp), %xmm7
	vmovaps	784(%rsp), %xmm8
	vmovaps	800(%rsp), %xmm9
	vmovaps	816(%rsp), %xmm10
	vmovaps	832(%rsp), %xmm11
	vmovaps	848(%rsp), %xmm12
	vmovaps	864(%rsp), %xmm13
	vmovaps	880(%rsp), %xmm14
	vmovaps	896(%rsp), %xmm15
	addq	$920, %rsp
	vzeroupper
	retq
.LBB52_6:
	movq	%rdx, %r9
	vmovups	".Lggv$runtime::[random_generator_chacha8.odin]::chacha8rand_refill$1"(%rip), %xmm0
	vmovaps	%xmm0, 224(%rsp)
	movq	32(%rdx), %rax
	testq	%rax, %rax
	leaq	"runtime::default_assertion_failure_proc"(%rip), %r10
	cmovneq	%rax, %r10
	leaq	".Lggv$runtime::assert.internal-0$1"(%rip), %rcx
	leaq	".Lscl$[chacha8rand_refill4587]"(%rip), %r8
	leaq	224(%rsp), %rdx
	callq	*%r10
	int3
	.seh_endproc

	.def	"io::write_escaped_rune";
	.scl	3;
	.type	32;
	.endef
	.p2align	4
"io::write_escaped_rune":
.seh_proc "io::write_escaped_rune"
	pushq	%r15
	.seh_pushreg %r15
	pushq	%r14
	.seh_pushreg %r14
	pushq	%r13
	.seh_pushreg %r13
	pushq	%r12
	.seh_pushreg %r12
	pushq	%rsi
	.seh_pushreg %rsi
	pushq	%rdi
	.seh_pushreg %rdi
	pushq	%rbx
	.seh_pushreg %rbx
	subq	$128, %rsp
	.seh_stackalloc 128
	.seh_endprologue
	movq	%r9, %rsi
	movl	%edx, %ebx
	vmovups	(%rcx), %xmm0
	vmovaps	%xmm0, 80(%rsp)
	movq	224(%rsp), %rdi
	movq	$0, 56(%rsp)
	movzbl	%r8b, %eax
	cmpl	%eax, %edx
	sete	%al
	cmpl	$92, %edx
	sete	%cl
	orb	%al, %cl
	je	.LBB53_5
	movq	80(%rsp), %r15
	movq	88(%rsp), %r14
	movb	$92, 79(%rsp)
	leaq	79(%rsp), %r12
	movq	%r12, 96(%rsp)
	movq	$1, 104(%rsp)
	testq	%r15, %r15
	je	.LBB53_2
	movq	$0, 64(%rsp)
	movq	%rdi, 48(%rsp)
	leaq	64(%rsp), %r13
	movq	%r13, 40(%rsp)
	movq	$0, 32(%rsp)
	leaq	96(%rsp), %r8
	movl	$4, %edx
	movq	%r14, %rcx
	xorl	%r9d, %r9d
	callq	*%r15
	movq	56(%rsp), %rcx
	addq	64(%rsp), %rcx
	movq	%rcx, 56(%rsp)
	testl	%eax, %eax
	jne	.LBB53_40
	movb	%bl, 79(%rsp)
	movq	%r12, 96(%rsp)
	movq	$1, 104(%rsp)
	movq	$0, 64(%rsp)
	movq	%rdi, 48(%rsp)
	movq	%r13, 40(%rsp)
	movq	$0, 32(%rsp)
	leaq	96(%rsp), %r8
	movl	$4, %edx
	movq	%r14, %rcx
	xorl	%r9d, %r9d
	callq	*%r15
	movq	56(%rsp), %rcx
	addq	64(%rsp), %rcx
	jmp	.LBB53_40
.LBB53_5:
	cmpl	$255, %ebx
	jg	.LBB53_9
	leal	-32(%rbx), %eax
	cmpl	$95, %eax
	jb	.LBB53_8
	cmpl	$161, %ebx
	setl	%al
	cmpl	$173, %ebx
	sete	%cl
	orb	%al, %cl
	je	.LBB53_8
.LBB53_9:
	leal	-7(%rbx), %eax
	cmpl	$20, %eax
	ja	.LBB53_22
	leaq	.LJTI53_0(%rip), %rcx
	movslq	(%rcx,%rax,4), %rax
	addq	%rcx, %rax
	jmpq	*%rax
.LBB53_11:
	movq	80(%rsp), %rax
	movq	88(%rsp), %rcx
	vmovups	".Lggv$io::write_escaped_rune$9"(%rip), %xmm0
	jmp	.LBB53_12
.LBB53_8:
	movq	%rdi, 40(%rsp)
	leaq	120(%rsp), %rax
	movq	%rax, 32(%rsp)
	leaq	80(%rsp), %rcx
	leaq	56(%rsp), %r9
	movl	%ebx, %edx
	xorl	%r8d, %r8d
	callq	"io::write_encoded_rune"
	jmp	.LBB53_39
.LBB53_22:
	cmpl	$32, %ebx
	jge	.LBB53_23
	leaq	80(%rsp), %rcx
	leaq	56(%rsp), %r8
	movb	$92, %dl
	movq	%rdi, %r9
	callq	"io::write_byte"
	testl	%eax, %eax
	jne	.LBB53_39
	leaq	80(%rsp), %rcx
	leaq	56(%rsp), %r8
	movb	$120, %dl
	movq	%rdi, %r9
	callq	"io::write_byte"
	testl	%eax, %eax
	jne	.LBB53_39
	movzbl	%bl, %ebx
	movl	%ebx, %eax
	shrl	$4, %eax
	leaq	.Lcsbs$test$3e(%rip), %r14
.LBB53_35:
	movzbl	(%rax,%r14), %edx
	leaq	80(%rsp), %rcx
	leaq	56(%rsp), %r8
	movq	%rdi, %r9
	callq	"io::write_byte"
	testl	%eax, %eax
	jne	.LBB53_39
	andl	$15, %ebx
	movzbl	(%rbx,%r14), %edx
.LBB53_37:
	leaq	80(%rsp), %rcx
	leaq	56(%rsp), %r8
	movq	%rdi, %r9
	callq	"io::write_byte"
	testl	%eax, %eax
	jne	.LBB53_39
	jmp	.LBB53_14
.LBB53_17:
	movq	80(%rsp), %rax
	movq	88(%rsp), %rcx
	vmovups	".Lggv$io::write_escaped_rune$12"(%rip), %xmm0
	jmp	.LBB53_12
.LBB53_15:
	movq	80(%rsp), %rax
	movq	88(%rsp), %rcx
	vmovups	".Lggv$io::write_escaped_rune$10"(%rip), %xmm0
	jmp	.LBB53_12
.LBB53_19:
	movq	80(%rsp), %rax
	movq	88(%rsp), %rcx
	vmovups	".Lggv$io::write_escaped_rune$14"(%rip), %xmm0
	jmp	.LBB53_12
.LBB53_16:
	movq	80(%rsp), %rax
	movq	88(%rsp), %rcx
	vmovups	".Lggv$io::write_escaped_rune$11"(%rip), %xmm0
	jmp	.LBB53_12
.LBB53_20:
	movq	80(%rsp), %rax
	movq	88(%rsp), %rcx
	vmovups	".Lggv$io::write_escaped_rune$15"(%rip), %xmm0
	jmp	.LBB53_12
.LBB53_18:
	movq	80(%rsp), %rax
	movq	88(%rsp), %rcx
	vmovups	".Lggv$io::write_escaped_rune$13"(%rip), %xmm0
	jmp	.LBB53_12
.LBB53_21:
	movq	80(%rsp), %rax
	movq	88(%rsp), %rcx
	vmovups	".Lggv$io::write_escaped_rune$16"(%rip), %xmm0
.LBB53_12:
	vmovaps	%xmm0, 96(%rsp)
	testq	%rax, %rax
	je	.LBB53_2
	movq	$0, 64(%rsp)
	movq	%rdi, 48(%rsp)
	leaq	64(%rsp), %rdx
	movq	%rdx, 40(%rsp)
	movq	$0, 32(%rsp)
	leaq	96(%rsp), %r8
	movl	$4, %edx
	xorl	%r9d, %r9d
	callq	*%rax
	movq	56(%rsp), %rcx
	addq	64(%rsp), %rcx
	movq	%rcx, 56(%rsp)
	testl	%eax, %eax
	jne	.LBB53_40
.LBB53_14:
	xorl	%eax, %eax
.LBB53_39:
	movq	56(%rsp), %rcx
	jmp	.LBB53_40
.LBB53_2:
	movl	$-1, %eax
	xorl	%ecx, %ecx
.LBB53_40:
	movq	%rcx, (%rsi)
	addq	$128, %rsp
	popq	%rbx
	popq	%rdi
	popq	%rsi
	popq	%r12
	popq	%r13
	popq	%r14
	popq	%r15
	retq
.LBB53_23:
	movl	$65533, %r14d
	cmpl	$1114111, %ebx
	ja	.LBB53_26
	cmpl	$65535, %ebx
	ja	.LBB53_38
	movl	%ebx, %r14d
.LBB53_26:
	leaq	80(%rsp), %rcx
	leaq	56(%rsp), %r8
	movb	$92, %dl
	movq	%rdi, %r9
	callq	"io::write_byte"
	testl	%eax, %eax
	jne	.LBB53_39
	leaq	80(%rsp), %rcx
	leaq	56(%rsp), %r8
	movb	$117, %dl
	movq	%rdi, %r9
	callq	"io::write_byte"
	testl	%eax, %eax
	jne	.LBB53_39
	movl	%r14d, %eax
	shrl	$12, %eax
	leaq	.Lcsbs$test$3e(%rip), %rbx
	movzbl	(%rax,%rbx), %edx
	leaq	80(%rsp), %rcx
	leaq	56(%rsp), %r8
	movq	%rdi, %r9
	callq	"io::write_byte"
	testl	%eax, %eax
	jne	.LBB53_39
	movl	%r14d, %eax
	shrl	$8, %eax
	andl	$15, %eax
	movzbl	(%rax,%rbx), %edx
	leaq	80(%rsp), %rcx
	leaq	56(%rsp), %r8
	movq	%rdi, %r9
	callq	"io::write_byte"
	testl	%eax, %eax
	jne	.LBB53_39
	movl	%r14d, %eax
	shrl	$4, %eax
	andl	$15, %eax
	movzbl	(%rax,%rbx), %edx
	leaq	80(%rsp), %rcx
	leaq	56(%rsp), %r8
	movq	%rdi, %r9
	callq	"io::write_byte"
	testl	%eax, %eax
	jne	.LBB53_39
	andl	$15, %r14d
	movzbl	(%r14,%rbx), %edx
	jmp	.LBB53_37
.LBB53_38:
	leaq	80(%rsp), %rcx
	leaq	56(%rsp), %r8
	movb	$92, %dl
	movq	%rdi, %r9
	callq	"io::write_byte"
	testl	%eax, %eax
	jne	.LBB53_39
	leaq	80(%rsp), %rcx
	leaq	56(%rsp), %r8
	movb	$85, %dl
	movq	%rdi, %r9
	callq	"io::write_byte"
	testl	%eax, %eax
	jne	.LBB53_39
	leaq	80(%rsp), %rcx
	leaq	56(%rsp), %r8
	movb	$48, %dl
	movq	%rdi, %r9
	callq	"io::write_byte"
	testl	%eax, %eax
	jne	.LBB53_39
	leaq	80(%rsp), %rcx
	leaq	56(%rsp), %r8
	movb	$48, %dl
	movq	%rdi, %r9
	callq	"io::write_byte"
	testl	%eax, %eax
	jne	.LBB53_39
	movl	%ebx, %eax
	shrl	$20, %eax
	leaq	.Lcsbs$test$3e(%rip), %r14
	movzbl	(%rax,%r14), %edx
	leaq	80(%rsp), %rcx
	leaq	56(%rsp), %r8
	movq	%rdi, %r9
	callq	"io::write_byte"
	testl	%eax, %eax
	jne	.LBB53_39
	movl	%ebx, %eax
	shrl	$16, %eax
	andl	$15, %eax
	movzbl	(%rax,%r14), %edx
	leaq	80(%rsp), %rcx
	leaq	56(%rsp), %r8
	movq	%rdi, %r9
	callq	"io::write_byte"
	testl	%eax, %eax
	jne	.LBB53_39
	movl	%ebx, %eax
	shrl	$12, %eax
	andl	$15, %eax
	movzbl	(%rax,%r14), %edx
	leaq	80(%rsp), %rcx
	leaq	56(%rsp), %r8
	movq	%rdi, %r9
	callq	"io::write_byte"
	testl	%eax, %eax
	jne	.LBB53_39
	movl	%ebx, %eax
	shrl	$8, %eax
	andl	$15, %eax
	movzbl	(%rax,%r14), %edx
	leaq	80(%rsp), %rcx
	leaq	56(%rsp), %r8
	movq	%rdi, %r9
	callq	"io::write_byte"
	testl	%eax, %eax
	jne	.LBB53_39
	movl	%ebx, %eax
	shrl	$4, %eax
	andl	$15, %eax
	jmp	.LBB53_35
	.section	.rdata,"dr"
	.p2align	2, 0x0
.LJTI53_0:
	.long	.LBB53_11-.LJTI53_0
	.long	.LBB53_15-.LJTI53_0
	.long	.LBB53_20-.LJTI53_0
	.long	.LBB53_18-.LJTI53_0
	.long	.LBB53_21-.LJTI53_0
	.long	.LBB53_17-.LJTI53_0
	.long	.LBB53_19-.LJTI53_0
	.long	.LBB53_22-.LJTI53_0
	.long	.LBB53_22-.LJTI53_0
	.long	.LBB53_22-.LJTI53_0
	.long	.LBB53_22-.LJTI53_0
	.long	.LBB53_22-.LJTI53_0
	.long	.LBB53_22-.LJTI53_0
	.long	.LBB53_22-.LJTI53_0
	.long	.LBB53_22-.LJTI53_0
	.long	.LBB53_22-.LJTI53_0
	.long	.LBB53_22-.LJTI53_0
	.long	.LBB53_22-.LJTI53_0
	.long	.LBB53_22-.LJTI53_0
	.long	.LBB53_22-.LJTI53_0
	.long	.LBB53_16-.LJTI53_0
	.text
	.seh_endproc

	.def	"runtime::print_i64";
	.scl	3;
	.type	32;
	.endef
	.p2align	4
"runtime::print_i64":
.seh_proc "runtime::print_i64"
	pushq	%r15
	.seh_pushreg %r15
	pushq	%r14
	.seh_pushreg %r14
	pushq	%rsi
	.seh_pushreg %rsi
	pushq	%rdi
	.seh_pushreg %rdi
	pushq	%rbp
	.seh_pushreg %rbp
	pushq	%rbx
	.seh_pushreg %rbx
	subq	$184, %rsp
	.seh_stackalloc 184
	.seh_endprologue
	movq	%rcx, %rdx
	negq	%rdx
	cmovsq	%rcx, %rdx
	vxorps	%xmm0, %xmm0, %xmm0
	vmovups	%ymm0, 144(%rsp)
	vmovups	%ymm0, 112(%rsp)
	vmovups	%ymm0, 80(%rsp)
	vmovups	%ymm0, 48(%rsp)
	movb	$0, 176(%rsp)
	movl	$129, %edi
	leaq	.Lcsbs$test$0(%rip), %r9
	cmpq	$10, %rdx
	jl	.LBB54_1
	movl	$129, %r10d
	movabsq	$-3689348814741910323, %rax
	.p2align	4
.LBB54_3:
	mulxq	%rax, %r8, %r8
	leaq	-1(%r10), %rdi
	shrq	$3, %r8
	leaq	(%r8,%r8), %r11
	leaq	(%r11,%r11,4), %r11
	movq	%rdx, %rsi
	subq	%r11, %rsi
	movzbl	(%r9,%rsi), %r11d
	movb	%r11b, 47(%rsp,%r10)
	movq	%rdi, %r10
	cmpq	$99, %rdx
	movq	%r8, %rdx
	ja	.LBB54_3
	jmp	.LBB54_4
.LBB54_1:
	movq	%rdx, %r8
.LBB54_4:
	movabsq	$7378697629483820647, %rdx
	movq	%r8, %rax
	imulq	%rdx
	movq	%rdx, %rax
	shrq	$63, %rax
	sarq	$2, %rdx
	addq	%rax, %rdx
	addq	%rdx, %rdx
	leaq	(%rdx,%rdx,4), %rax
	subq	%rax, %r8
	movzbl	(%r9,%r8), %eax
	movb	%al, 47(%rsp,%rdi)
	testq	%rcx, %rcx
	js	.LBB54_6
	decq	%rdi
	jmp	.LBB54_7
.LBB54_6:
	movb	$45, 46(%rsp,%rdi)
	addq	$-2, %rdi
.LBB54_7:
	movq	%rdi, %rbx
	subq	$129, %rbx
	je	.LBB54_14
	negq	%rbx
	movl	$-12, %ecx
	vzeroupper
	callq	GetStdHandle
	movq	%rax, %rsi
	movq	%rax, %rcx
	movl	$1, %edx
	xorl	%r8d, %r8d
	callq	SetHandleInformation
	movl	$0, 44(%rsp)
	testq	%rbx, %rbx
	jle	.LBB54_14
	leaq	(%rsp,%rdi), %r14
	addq	$48, %r14
	xorl	%r15d, %r15d
	movl	$1073741824, %ebp
	leaq	44(%rsp), %rdi
	.p2align	4
.LBB54_11:
	movl	%ebx, %r8d
	subl	%r15d, %r8d
	cmpl	$1073741824, %r8d
	cmovgel	%ebp, %r8d
	leaq	(%r14,%r15), %rdx
	movq	$0, 32(%rsp)
	movq	%rsi, %rcx
	movq	%rdi, %r9
	callq	WriteFile
	movl	44(%rsp), %ecx
	testq	%rcx, %rcx
	je	.LBB54_13
	testl	%eax, %eax
	je	.LBB54_13
	addq	%rcx, %r15
	cmpq	%rbx, %r15
	jl	.LBB54_11
	jmp	.LBB54_14
.LBB54_13:
	callq	GetLastError
.LBB54_14:
	nop
	addq	$184, %rsp
	popq	%rbx
	popq	%rbp
	popq	%rdi
	popq	%rsi
	popq	%r14
	popq	%r15
	vzeroupper
	retq
	.seh_endproc

	.def	"runtime::mem_free_with_size";
	.scl	3;
	.type	32;
	.endef
	.p2align	4
"runtime::mem_free_with_size":
.seh_proc "runtime::mem_free_with_size"
	subq	$104, %rsp
	.seh_stackalloc 104
	.seh_endprologue
	movq	(%r8), %r10
	testq	%rcx, %rcx
	sete	%al
	testq	%r10, %r10
	sete	%r11b
	orb	%al, %r11b
	cmpb	$1, %r11b
	jne	.LBB55_3
	xorl	%eax, %eax
	addq	$104, %rsp
	retq
.LBB55_3:
	movq	144(%rsp), %r11
	movq	8(%r8), %rax
	vxorps	%xmm0, %xmm0, %xmm0
	vmovaps	%xmm0, 80(%rsp)
	movq	%r11, 64(%rsp)
	leaq	80(%rsp), %r8
	movq	%r8, 56(%rsp)
	movq	%r9, 48(%rsp)
	movq	%rdx, 40(%rsp)
	movq	%rcx, 32(%rsp)
	movq	%rax, %rcx
	movb	$1, %dl
	xorl	%r8d, %r8d
	xorl	%r9d, %r9d
	callq	*%r10
	nop
	addq	$104, %rsp
	retq
	.seh_endproc

	.def	"text_edit::undo_check";
	.scl	3;
	.type	32;
	.endef
	.p2align	4
"text_edit::undo_check":
.seh_proc "text_edit::undo_check"
	pushq	%r15
	.seh_pushreg %r15
	pushq	%r14
	.seh_pushreg %r14
	pushq	%r13
	.seh_pushreg %r13
	pushq	%r12
	.seh_pushreg %r12
	pushq	%rsi
	.seh_pushreg %rsi
	pushq	%rdi
	.seh_pushreg %rdi
	pushq	%rbx
	.seh_pushreg %rbx
	subq	$96, %rsp
	.seh_stackalloc 96
	.seh_endprologue
	movq	%rdx, %rdi
	movq	%rcx, %rsi
	movq	104(%rcx), %rax
	testq	%rax, %rax
	jle	.LBB56_3
	leaq	136(%rsi), %rbx
	leaq	".Lscl$[undo_clear4538]"(%rip), %r14
	.p2align	4
.LBB56_2:
	movq	96(%rsi), %rcx
	movq	-8(%rcx,%rax,8), %rcx
	decq	%rax
	movq	%rax, 104(%rsi)
	movq	%rbx, %rdx
	movq	%r14, %r8
	movq	%rdi, %r9
	callq	"runtime::mem_free"
	movq	104(%rsi), %rax
	testq	%rax, %rax
	jg	.LBB56_2
.LBB56_3:
	movq	160(%rsi), %rax
	subq	168(%rsi), %rax
	cmpq	176(%rsi), %rax
	jle	.LBB56_9
	movq	32(%rsi), %rax
	testq	%rax, %rax
	je	.LBB56_9
	movq	(%rax), %r14
	movq	8(%rax), %rbx
	vmovups	136(%rsi), %xmm0
	vmovaps	%xmm0, 64(%rsp)
	leaq	24(%rbx), %rcx
	vxorps	%xmm0, %xmm0, %xmm0
	vmovaps	%xmm0, 80(%rsp)
	movq	%rdi, 40(%rsp)
	leaq	80(%rsp), %r12
	movq	%r12, 32(%rsp)
	leaq	".Lscl$[undo_state_push3653]"(%rip), %r9
	leaq	64(%rsp), %r8
	movl	$8, %edx
	callq	"runtime::mem_alloc"
	testb	%al, %al
	jne	.LBB56_9
	leaq	56(%rsi), %r15
	movq	80(%rsp), %r13
	vmovups	(%rsi), %xmm0
	vmovups	%xmm0, (%r13)
	movq	%rbx, 16(%r13)
	testq	%rbx, %rbx
	jle	.LBB56_8
	leaq	24(%r13), %rcx
	movq	%r14, %rdx
	movq	%rbx, %r8
	callq	memmove
.LBB56_8:
	movq	%r13, 64(%rsp)
	movq	%rdi, 48(%rsp)
	movq	%r12, 40(%rsp)
	leaq	".Lscl$[undo_state_push3878]"(%rip), %rax
	movq	%rax, 32(%rsp)
	leaq	64(%rsp), %r9
	movl	$8, %edx
	movl	$8, %r8d
	movq	%r15, %rcx
	callq	"runtime::_append_elem"
.LBB56_9:
	movq	160(%rsi), %rax
	movq	%rax, 168(%rsi)
	addq	$96, %rsp
	popq	%rbx
	popq	%rdi
	popq	%rsi
	popq	%r12
	popq	%r13
	popq	%r14
	popq	%r15
	retq
	.seh_endproc

	.def	"main::log_lcms_error";
	.scl	3;
	.type	32;
	.endef
	.p2align	4
"main::log_lcms_error":
.seh_proc "main::log_lcms_error"
	pushq	%rsi
	.seh_pushreg %rsi
	pushq	%rdi
	.seh_pushreg %rdi
	pushq	%rbx
	.seh_pushreg %rbx
	subq	$1232, %rsp
	.seh_stackalloc 1232
	.seh_endprologue
	movq	%r9, %rsi
	vxorps	%xmm0, %xmm0, %xmm0
	vmovups	%ymm0, 64(%rsp)
	movl	%edx, 52(%rsp)
	leaq	52(%rsp), %rax
	movq	%rax, 64(%rsp)
	movabsq	$-8057256799169418489, %rax
	movq	%rax, 72(%rsp)
	movq	%r8, 56(%rsp)
	leaq	56(%rsp), %rax
	movq	%rax, 80(%rsp)
	movabsq	$-2911560155841719882, %rax
	movq	%rax, 88(%rsp)
	leaq	64(%rsp), %rax
	movq	%rax, 120(%rsp)
	movq	$2, 128(%rsp)
	movq	"os::stdout"(%rip), %rbx
	leaq	208(%rsp), %rdi
	movl	$1024, %r8d
	movq	%rdi, %rcx
	xorl	%edx, %edx
	vzeroupper
	callq	memset
	vxorps	%xmm0, %xmm0, %xmm0
	vmovups	%xmm0, 192(%rsp)
	leaq	"os::[stream.odin]::_file_stream_proc"(%rip), %rax
	movq	%rax, 168(%rsp)
	movq	%rbx, 176(%rsp)
	movq	$0, 184(%rsp)
	vmovups	%xmm0, 152(%rsp)
	movq	%rdi, 136(%rsp)
	movq	$1024, 144(%rsp)
	leaq	"bufio::_writer_proc"(%rip), %rax
	movq	%rax, 104(%rsp)
	leaq	136(%rsp), %rdi
	movq	%rdi, 112(%rsp)
	movq	%rsi, 32(%rsp)
	leaq	".Lggv$main::log_lcms_error$1"(%rip), %rdx
	leaq	104(%rsp), %rcx
	leaq	120(%rsp), %r8
	movb	$1, %r9b
	callq	"fmt::wprintf"
	movq	%rdi, %rcx
	movq	%rsi, %rdx
	callq	"bufio::writer_flush"
	nop
	addq	$1232, %rsp
	popq	%rbx
	popq	%rdi
	popq	%rsi
	retq
	.seh_endproc

	.def	"text_edit::input_text";
	.scl	3;
	.type	32;
	.endef
	.p2align	4
"text_edit::input_text":
.seh_proc "text_edit::input_text"
	pushq	%r15
	.seh_pushreg %r15
	pushq	%r14
	.seh_pushreg %r14
	pushq	%r13
	.seh_pushreg %r13
	pushq	%r12
	.seh_pushreg %r12
	pushq	%rsi
	.seh_pushreg %rsi
	pushq	%rdi
	.seh_pushreg %rdi
	pushq	%rbx
	.seh_pushreg %rbx
	subq	$64, %rsp
	.seh_stackalloc 64
	.seh_endprologue
	movq	8(%rdx), %r14
	testq	%r14, %r14
	je	.LBB58_11
	movq	%r8, %r12
	movq	%rcx, %rsi
	movq	(%rdx), %rdi
	movq	(%rcx), %rbx
	cmpq	8(%rcx), %rbx
	je	.LBB58_3
	movq	%rsi, %rcx
	movq	%r12, %rdx
	callq	"text_edit::selection_delete"
	movq	(%rsi), %rbx
.LBB58_3:
	movq	%rsi, %rcx
	movq	%r12, %rdx
	callq	"text_edit::undo_check"
	movq	32(%rsi), %r15
	testq	%r15, %r15
	je	.LBB58_16
	testq	%rbx, %rbx
	js	.LBB58_31
	movq	8(%r15), %rdx
	cmpq	%rbx, %rdx
	cmovleq	%rbx, %rdx
	addq	%r14, %rdx
	movq	%r12, 32(%rsp)
	leaq	".Lscl$[insert6105]"(%rip), %r9
	movq	%r15, %rcx
	movb	$1, %r8b
	callq	"runtime::_resize_dynamic_array"
	testb	%al, %al
	je	.LBB58_17
	movq	32(%rsi), %r15
	movq	8(%r15), %rdx
	movq	16(%r15), %r13
	subq	%rdx, %r13
	cmpq	%r14, %r13
	jge	.LBB58_32
	jae	.LBB58_10
	.p2align	4
.LBB58_8:
	cmpb	$-65, (%rdi,%r13)
	jg	.LBB58_12
	decq	%r13
	cmpq	%r14, %r13
	jb	.LBB58_8
.LBB58_10:
	movq	%r14, 32(%rsp)
	leaq	".Lggv$text_edit::insert$2"(%rip), %rcx
	movl	$239, %edx
	movl	$34, %r8d
	movq	%r13, %r9
	callq	"runtime::bounds_check_error.handle_error-0"
.LBB58_11:
	xorl	%r14d, %r14d
	jmp	.LBB58_28
.LBB58_12:
	testq	%r13, %r13
	js	.LBB58_30
	cmpq	%r14, %r13
	jg	.LBB58_30
	testq	%r15, %r15
	sete	%al
	testq	%r13, %r13
	sete	%cl
	orb	%al, %cl
	jne	.LBB58_16
	cmpq	%rbx, %rdx
	cmovleq	%rbx, %rdx
	addq	%r13, %rdx
	movq	%r12, 32(%rsp)
	leaq	".Lscl$[insert6298]"(%rip), %r9
	movq	%r15, %rcx
	movb	$1, %r8b
	callq	"runtime::_resize_dynamic_array"
	testb	%al, %al
	je	.LBB58_22
.LBB58_16:
	xorl	%r14d, %r14d
	jmp	.LBB58_27
.LBB58_17:
	leaq	(%rbx,%r14), %rcx
	movq	8(%r15), %r8
	movq	%r8, %rax
	subq	%rcx, %rax
	subq	%rbx, %r8
	cmpq	%r8, %rax
	cmovgeq	%r8, %rax
	testq	%rax, %rax
	jle	.LBB58_19
	movq	(%r15), %r8
	leaq	(%r8,%rbx), %rdx
	addq	%r8, %rcx
	movq	%rax, %r8
	callq	memmove
	movq	8(%r15), %r8
	subq	%rbx, %r8
.LBB58_19:
	cmpq	%r14, %r8
	cmovgeq	%r14, %r8
	testq	%r8, %r8
	jg	.LBB58_26
	jmp	.LBB58_27
.LBB58_22:
	movq	8(%r15), %r8
	subq	%rbx, %r8
	movq	%r8, %rax
	subq	%r13, %rax
	cmpq	%r8, %rax
	cmovgeq	%r8, %rax
	testq	%rax, %rax
	jle	.LBB58_24
	movq	(%r15), %rdx
	addq	%rbx, %rdx
	leaq	(%rdx,%r13), %rcx
	movq	%rax, %r8
	callq	memmove
	movq	8(%r15), %r8
	subq	%rbx, %r8
.LBB58_24:
	testq	%r8, %r8
	jle	.LBB58_29
	cmpq	%r13, %r8
	cmovaeq	%r13, %r8
	movq	%r13, %r14
.LBB58_26:
	addq	(%r15), %rbx
	movq	%rbx, %rcx
	movq	%rdi, %rdx
	callq	memmove
.LBB58_27:
	movq	(%rsi), %rax
	addq	%r14, %rax
	movq	%rax, (%rsi)
	movq	%rax, 8(%rsi)
.LBB58_28:
	movq	%r14, %rax
	addq	$64, %rsp
	popq	%rbx
	popq	%rdi
	popq	%rsi
	popq	%r12
	popq	%r13
	popq	%r14
	popq	%r15
	retq
.LBB58_29:
	movq	%r13, %r14
	jmp	.LBB58_27
.LBB58_30:
	movq	%r14, 40(%rsp)
	movq	%r13, 32(%rsp)
	leaq	".Lggv$text_edit::insert$3"(%rip), %rcx
	movl	$242, %edx
	movl	$51, %r8d
	xorl	%r9d, %r9d
	callq	"runtime::slice_handle_error"
.LBB58_31:
	vmovups	".Lggv$runtime::inject_at_elem_string:proc(array:^[dynamic]u8,index:int,arg:string,loc:runtime::Source_Code_Location)->(ok:bool,err:runtime::Allocator_Error)$1"(%rip), %xmm0
	vmovaps	%xmm0, 48(%rsp)
	movq	32(%r12), %rax
	testq	%rax, %rax
	leaq	"runtime::default_assertion_failure_proc"(%rip), %r10
	cmovneq	%rax, %r10
	leaq	".Lggv$runtime::ensure.internal-0$1"(%rip), %rcx
	leaq	".Lscl$[insert6105]"(%rip), %r8
	jmp	.LBB58_33
.LBB58_32:
	vmovups	".Lggv$text_edit::insert$1"(%rip), %xmm0
	vmovaps	%xmm0, 48(%rsp)
	movq	32(%r12), %rax
	testq	%rax, %rax
	leaq	"runtime::default_assertion_failure_proc"(%rip), %r10
	cmovneq	%rax, %r10
	leaq	".Lggv$runtime::assert.internal-0$1"(%rip), %rcx
	leaq	".Lscl$[insert6201]"(%rip), %r8
.LBB58_33:
	leaq	48(%rsp), %rdx
	movq	%r12, %r9
	callq	*%r10
	int3
	.seh_endproc

	.def	"runtime::print_uintptr";
	.scl	3;
	.type	32;
	.endef
	.p2align	4
"runtime::print_uintptr":
	jmp	"runtime::print_u64"

	.def	"strings::[builder.odin]::_builder_stream_proc";
	.scl	3;
	.type	32;
	.endef
	.p2align	4
"strings::[builder.odin]::_builder_stream_proc":
.seh_proc "strings::[builder.odin]::_builder_stream_proc"
	pushq	%r14
	.seh_pushreg %r14
	pushq	%rsi
	.seh_pushreg %rsi
	pushq	%rdi
	.seh_pushreg %rdi
	pushq	%rbx
	.seh_pushreg %rbx
	subq	$56, %rsp
	.seh_stackalloc 56
	.seh_endprologue
	movq	136(%rsp), %rbx
	addq	$-4, %rdx
	cmpq	$5, %rdx
	ja	.LBB60_7
	movq	144(%rsp), %r9
	xorl	%eax, %eax
	leaq	.LJTI60_0(%rip), %r10
	movslq	(%r10,%rdx,4), %rdx
	addq	%r10, %rdx
	jmpq	*%rdx
.LBB60_3:
	movq	(%r8), %rdx
	movq	8(%r8), %rsi
	movq	8(%rcx), %r14
	movq	%r9, 32(%rsp)
	leaq	48(%rsp), %r9
	movq	%rcx, %rdi
	movq	%rsi, %r8
	callq	"runtime::_append_elems"
	movq	8(%rdi), %rcx
	subq	%r14, %rcx
	xorl	%eax, %eax
	cmpq	%rsi, %rcx
	setl	%al
	jmp	.LBB60_4
.LBB60_6:
	movq	(%rcx), %rax
	movq	16(%rcx), %rdx
	leaq	24(%rcx), %r8
	movq	%r9, 32(%rsp)
	leaq	".Lscl$[builder_destroy6206]"(%rip), %r9
	movq	%rcx, %rsi
	movq	%rax, %rcx
	callq	"runtime::mem_free_with_size"
	vxorps	%xmm0, %xmm0, %xmm0
	vmovups	%ymm0, (%rsi)
	movq	$0, 32(%rsi)
	xorl	%ecx, %ecx
	xorl	%eax, %eax
	jmp	.LBB60_4
.LBB60_5:
	movq	8(%rcx), %rcx
	jmp	.LBB60_4
.LBB60_2:
	movl	$912, %ecx
	jmp	.LBB60_4
.LBB60_7:
	movl	$-1, %eax
	xorl	%ecx, %ecx
.LBB60_4:
	movq	%rcx, (%rbx)
	addq	$56, %rsp
	popq	%rbx
	popq	%rdi
	popq	%rsi
	popq	%r14
	vzeroupper
	retq
	.section	.rdata,"dr"
	.p2align	2, 0x0
.LJTI60_0:
	.long	.LBB60_3-.LJTI60_0
	.long	.LBB60_7-.LJTI60_0
	.long	.LBB60_7-.LJTI60_0
	.long	.LBB60_5-.LJTI60_0
	.long	.LBB60_6-.LJTI60_0
	.long	.LBB60_2-.LJTI60_0
	.text
	.seh_endproc

	.def	"runtime::print_caller_location";
	.scl	3;
	.type	32;
	.endef
	.p2align	4
"runtime::print_caller_location":
.seh_proc "runtime::print_caller_location"
	pushq	%rsi
	.seh_pushreg %rsi
	subq	$32, %rsp
	.seh_stackalloc 32
	.seh_endprologue
	movq	%rcx, %rsi
	callq	"runtime::print_string"
	movb	$40, %cl
	callq	"runtime::print_byte"
	movslq	16(%rsi), %rcx
	callq	"runtime::print_u64"
	cmpl	$0, 20(%rsi)
	je	.LBB61_2
	movb	$58, %cl
	callq	"runtime::print_byte"
	movslq	20(%rsi), %rcx
	callq	"runtime::print_u64"
.LBB61_2:
	movb	$41, %cl
	addq	$32, %rsp
	popq	%rsi
	jmp	"runtime::print_byte"
	.seh_endproc

	.def	"runtime::mem_free_all";
	.scl	3;
	.type	32;
	.endef
	.p2align	4
"runtime::mem_free_all":
.seh_proc "runtime::mem_free_all"
	subq	$104, %rsp
	.seh_stackalloc 104
	.seh_endprologue
	movq	(%rcx), %rax
	testq	%rax, %rax
	je	.LBB62_2
	movq	8(%rcx), %rcx
	vxorps	%xmm0, %xmm0, %xmm0
	vmovaps	%xmm0, 80(%rsp)
	movq	%rdx, 64(%rsp)
	leaq	80(%rsp), %rdx
	movq	%rdx, 56(%rsp)
	leaq	".Lscl$[main41480]"(%rip), %rdx
	movq	%rdx, 48(%rsp)
	vmovups	%xmm0, 32(%rsp)
	movb	$2, %dl
	xorl	%r8d, %r8d
	xorl	%r9d, %r9d
	callq	*%rax
.LBB62_2:
	nop
	addq	$104, %rsp
	retq
	.seh_endproc

	.def	"bufio::_writer_proc";
	.scl	3;
	.type	32;
	.endef
	.p2align	4
"bufio::_writer_proc":
.seh_proc "bufio::_writer_proc"
	pushq	%r15
	.seh_pushreg %r15
	pushq	%r14
	.seh_pushreg %r14
	pushq	%r13
	.seh_pushreg %r13
	pushq	%r12
	.seh_pushreg %r12
	pushq	%rsi
	.seh_pushreg %rsi
	pushq	%rdi
	.seh_pushreg %rdi
	pushq	%rbp
	.seh_pushreg %rbp
	pushq	%rbx
	.seh_pushreg %rbx
	subq	$88, %rsp
	.seh_stackalloc 88
	.seh_endprologue
	decq	%rdx
	cmpq	$8, %rdx
	ja	.LBB63_21
	movq	%rcx, %rsi
	movq	208(%rsp), %rbx
	leaq	.LJTI63_0(%rip), %rax
	movslq	(%rax,%rdx,4), %rcx
	addq	%rax, %rcx
	jmpq	*%rcx
.LBB63_2:
	movq	%rsi, %rcx
	movq	%rbx, %rdx
	callq	"bufio::writer_flush"
	xorl	%r13d, %r13d
	jmp	.LBB63_30
.LBB63_3:
	movq	(%rsi), %rcx
	movq	8(%rsi), %rdx
	vmovups	16(%rsi), %xmm0
	vmovaps	%xmm0, 64(%rsp)
	movq	%rbx, 32(%rsp)
	leaq	".Lscl$[writer_destroy987]"(%rip), %r9
	leaq	64(%rsp), %r8
	callq	"runtime::mem_free_with_size"
	vxorps	%xmm0, %xmm0, %xmm0
	vmovups	%ymm0, 32(%rsi)
	vmovups	%ymm0, (%rsi)
	movq	$0, 64(%rsi)
	xorl	%r13d, %r13d
	jmp	.LBB63_29
.LBB63_4:
	movq	(%r8), %rdi
	movq	8(%r8), %r12
	movq	8(%rsi), %rcx
	movq	48(%rsi), %r9
	movq	%rcx, %r15
	subq	%r9, %r15
	xorl	%r13d, %r13d
	cmpq	%r15, %r12
	jle	.LBB63_23
	leaq	64(%rsp), %r14
	movq	%r12, %rbp
	.p2align	4
.LBB63_6:
	cmpl	$0, 56(%rsi)
	jne	.LBB63_22
	testq	%r9, %r9
	je	.LBB63_13
	js	.LBB63_32
	cmpq	%rcx, %r9
	jg	.LBB63_32
	testq	%r15, %r15
	jle	.LBB63_12
	addq	(%rsi), %r9
	movq	%r9, %rcx
	movq	%rdi, %rdx
	movq	%r15, %r8
	callq	memmove
	movq	48(%rsi), %r9
.LBB63_12:
	addq	%r15, %r9
	movq	%r9, 48(%rsi)
	movq	%rsi, %rcx
	movq	%rbx, %rdx
	callq	"bufio::writer_flush"
	testq	%r15, %r15
	jns	.LBB63_16
	jmp	.LBB63_19
	.p2align	4
.LBB63_13:
	movq	32(%rsi), %rax
	movq	40(%rsi), %rcx
	movq	%rdi, 64(%rsp)
	movq	%rbp, 72(%rsp)
	testq	%rax, %rax
	je	.LBB63_18
	movq	$0, 56(%rsp)
	movq	%rbx, 48(%rsp)
	leaq	56(%rsp), %rdx
	movq	%rdx, 40(%rsp)
	movq	$0, 32(%rsp)
	movl	$4, %edx
	movq	%r14, %r8
	xorl	%r9d, %r9d
	callq	*%rax
	movq	56(%rsp), %r15
	movl	%eax, 56(%rsi)
	testq	%r15, %r15
	sets	%cl
	testl	%eax, %eax
	sete	%al
	andb	%cl, %al
	cmpb	$1, %al
	je	.LBB63_31
	testq	%r15, %r15
	js	.LBB63_19
.LBB63_16:
	movq	%rbp, %r12
	subq	%r15, %r12
	jl	.LBB63_19
	addq	%r15, %r13
	addq	%r15, %rdi
	movq	8(%rsi), %rcx
	movq	48(%rsi), %r9
	movq	%rcx, %r15
	subq	%r9, %r15
	movq	%r12, %rbp
	cmpq	%r15, %r12
	jg	.LBB63_6
	jmp	.LBB63_23
.LBB63_18:
	movl	$-1, 56(%rsi)
	xorl	%r15d, %r15d
	testq	%r15, %r15
	jns	.LBB63_16
.LBB63_19:
	movq	%rbp, 40(%rsp)
	movq	%rbp, 32(%rsp)
	leaq	".Lggv$bufio::writer_write$2"(%rip), %rcx
	movl	$110, %edx
	movl	$8, %r8d
	movq	%r15, %r9
	callq	"runtime::slice_handle_error"
.LBB63_20:
	xorl	%eax, %eax
	movl	$786, %r13d
	jmp	.LBB63_30
.LBB63_21:
	movl	$-1, %eax
	xorl	%r13d, %r13d
	jmp	.LBB63_30
.LBB63_22:
	movq	%rbp, %r12
.LBB63_23:
	movl	56(%rsi), %eax
	testl	%eax, %eax
	jne	.LBB63_30
	testq	%r9, %r9
	js	.LBB63_33
	movq	%rcx, %rax
	subq	%r9, %rax
	jl	.LBB63_33
	cmpq	%r12, %rax
	cmovlq	%rax, %r12
	testq	%r12, %r12
	jle	.LBB63_28
	addq	(%rsi), %r9
	movq	%r9, %rcx
	movq	%rdi, %rdx
	movq	%r12, %r8
	callq	memmove
	movq	48(%rsi), %r9
.LBB63_28:
	addq	%r12, %r9
	movq	%r9, 48(%rsi)
	addq	%r12, %r13
.LBB63_29:
	xorl	%eax, %eax
.LBB63_30:
	movq	200(%rsp), %rcx
	movq	%r13, (%rcx)
	addq	$88, %rsp
	popq	%rbx
	popq	%rbp
	popq	%rdi
	popq	%rsi
	popq	%r12
	popq	%r13
	popq	%r14
	popq	%r15
	vzeroupper
	retq
.LBB63_31:
	movl	$11, 56(%rsi)
	movl	$11, %eax
	jmp	.LBB63_30
.LBB63_32:
	movq	%rcx, 40(%rsp)
	movq	%rcx, 32(%rsp)
	leaq	".Lggv$bufio::writer_write$1"(%rip), %rcx
	movl	$105, %edx
	movl	$18, %r8d
	callq	"runtime::slice_handle_error"
.LBB63_33:
	movq	%rcx, 40(%rsp)
	movq	%rcx, 32(%rsp)
	leaq	".Lggv$bufio::writer_write$3"(%rip), %rcx
	movl	$115, %edx
	movl	$17, %r8d
	callq	"runtime::slice_handle_error"
	int3
	.section	.rdata,"dr"
	.p2align	2, 0x0
.LJTI63_0:
	.long	.LBB63_2-.LJTI63_0
	.long	.LBB63_21-.LJTI63_0
	.long	.LBB63_21-.LJTI63_0
	.long	.LBB63_4-.LJTI63_0
	.long	.LBB63_21-.LJTI63_0
	.long	.LBB63_21-.LJTI63_0
	.long	.LBB63_21-.LJTI63_0
	.long	.LBB63_3-.LJTI63_0
	.long	.LBB63_20-.LJTI63_0
	.text
	.seh_endproc

	.def	"runtime::_mem_resize";
	.scl	3;
	.type	32;
	.endef
	.p2align	4
"runtime::_mem_resize":
.seh_proc "runtime::_mem_resize"
	pushq	%r15
	.seh_pushreg %r15
	pushq	%r14
	.seh_pushreg %r14
	pushq	%r13
	.seh_pushreg %r13
	pushq	%r12
	.seh_pushreg %r12
	pushq	%rsi
	.seh_pushreg %rsi
	pushq	%rdi
	.seh_pushreg %rdi
	pushq	%rbp
	.seh_pushreg %rbp
	pushq	%rbx
	.seh_pushreg %rbx
	subq	$264, %rsp
	.seh_stackalloc 264
	vmovaps	%xmm6, 240(%rsp)
	.seh_savexmm %xmm6, 240
	.seh_endprologue
	movq	400(%rsp), %rbx
	movq	384(%rsp), %rsi
	blsrq	%r9, %rax
	jne	.LBB64_28
	movq	392(%rsp), %r13
	movq	368(%rsp), %rax
	movq	(%rax), %rbp
	testq	%rbp, %rbp
	je	.LBB64_2
	movq	8(%rax), %rdi
	testq	%r8, %r8
	je	.LBB64_4
	movzbl	376(%rsp), %eax
	testq	%rcx, %rcx
	je	.LBB64_7
	cmpq	%r8, %rdx
	jne	.LBB64_14
	leaq	-1(%r9), %r10
	testq	%rcx, %r10
	je	.LBB64_12
.LBB64_14:
	testb	%al, %al
	movq	%rcx, 72(%rsp)
	movq	%rdx, 120(%rsp)
	vxorps	%xmm6, %xmm6, %xmm6
	je	.LBB64_17
	vmovaps	%xmm6, 96(%rsp)
	movq	%rbx, 64(%rsp)
	leaq	96(%rsp), %rax
	movq	%rax, 56(%rsp)
	movq	%rsi, 48(%rsp)
	movq	%rdx, 40(%rsp)
	movq	%rcx, 32(%rsp)
	movq	%rdi, %rcx
	movb	$3, %dl
	movq	%r8, %r15
	movq	%r9, %r12
	callq	*%rbp
	cmpb	$4, %al
	jne	.LBB64_16
	vmovaps	%xmm6, 192(%rsp)
	movq	%rbx, 64(%rsp)
	leaq	192(%rsp), %r14
	movq	%r14, 56(%rsp)
	movq	%rsi, 48(%rsp)
	vmovups	%xmm6, 32(%rsp)
	movq	%rdi, %rcx
	xorl	%edx, %edx
	jmp	.LBB64_21
.LBB64_4:
	testq	%rcx, %rcx
	je	.LBB64_2
	vxorps	%xmm6, %xmm6, %xmm6
	vmovaps	%xmm6, 208(%rsp)
	movq	%rbx, 64(%rsp)
	leaq	208(%rsp), %rax
	movq	%rax, 56(%rsp)
	movq	%rsi, 48(%rsp)
	movq	%rdx, 40(%rsp)
	movq	%rcx, 32(%rsp)
	movq	%rdi, %rcx
	movb	$1, %dl
	xorl	%r8d, %r8d
	xorl	%r9d, %r9d
	callq	*%rbp
	vmovups	%xmm6, (%r13)
	jmp	.LBB64_23
.LBB64_2:
	vxorps	%xmm0, %xmm0, %xmm0
	vmovups	%xmm0, (%r13)
	xorl	%eax, %eax
	jmp	.LBB64_23
.LBB64_7:
	vxorps	%xmm0, %xmm0, %xmm0
	testb	%al, %al
	je	.LBB64_9
	vmovaps	%xmm0, 144(%rsp)
	movq	%rbx, 64(%rsp)
	leaq	144(%rsp), %rax
	movq	%rax, 56(%rsp)
	movq	%rsi, 48(%rsp)
	vmovups	%xmm0, 32(%rsp)
	movq	%rdi, %rcx
	xorl	%edx, %edx
	callq	*%rbp
	vmovaps	144(%rsp), %xmm0
	vmovups	%xmm0, (%r13)
	jmp	.LBB64_23
.LBB64_17:
	vmovaps	%xmm6, 80(%rsp)
	movq	%rbx, 64(%rsp)
	leaq	80(%rsp), %rax
	movq	%rax, 56(%rsp)
	movq	%rsi, 48(%rsp)
	movq	%rdx, 40(%rsp)
	movq	%rcx, 32(%rsp)
	movq	%rdi, %rcx
	movb	$7, %dl
	movq	%r8, %r15
	movq	%r9, %r12
	callq	*%rbp
	cmpb	$4, %al
	jne	.LBB64_18
	vmovaps	%xmm6, 176(%rsp)
	movq	%rbx, 64(%rsp)
	leaq	176(%rsp), %r14
	movq	%r14, 56(%rsp)
	movq	%rsi, 48(%rsp)
	vmovups	%xmm6, 32(%rsp)
	movq	%rdi, %rcx
	movb	$6, %dl
.LBB64_21:
	movq	%r15, %r8
	movq	%r12, %r9
	callq	*%rbp
	movq	(%r14), %r15
	movq	8(%r14), %r12
	testb	%al, %al
	movq	120(%rsp), %rdx
	jne	.LBB64_22
	testq	%rdx, %rdx
	js	.LBB64_30
	cmpq	%rdx, %r12
	movq	%rdx, %r8
	cmovlq	%r12, %r8
	testq	%r8, %r8
	jle	.LBB64_27
	movq	%r15, %rcx
	movq	%rdx, %r14
	movq	72(%rsp), %rdx
	callq	memmove
	movq	%r14, %rdx
.LBB64_27:
	vxorps	%xmm0, %xmm0, %xmm0
	vmovaps	%xmm0, 160(%rsp)
	movq	%rbx, 64(%rsp)
	leaq	160(%rsp), %rax
	movq	%rax, 56(%rsp)
	movq	%rsi, 48(%rsp)
	movq	%rdx, 40(%rsp)
	movq	72(%rsp), %rax
	movq	%rax, 32(%rsp)
	movq	%rdi, %rcx
	movb	$1, %dl
	xorl	%r8d, %r8d
	xorl	%r9d, %r9d
	callq	*%rbp
	jmp	.LBB64_22
.LBB64_9:
	vmovaps	%xmm0, 128(%rsp)
	movq	%rbx, 64(%rsp)
	leaq	128(%rsp), %rax
	movq	%rax, 56(%rsp)
	movq	%rsi, 48(%rsp)
	vmovups	%xmm0, 32(%rsp)
	movq	%rdi, %rcx
	movb	$6, %dl
	callq	*%rbp
	vmovaps	128(%rsp), %xmm0
	vmovups	%xmm0, (%r13)
	jmp	.LBB64_23
.LBB64_16:
	movq	96(%rsp), %r15
	movq	104(%rsp), %r12
	jmp	.LBB64_22
.LBB64_18:
	movq	80(%rsp), %r15
	movq	88(%rsp), %r12
.LBB64_22:
	movq	%r15, (%r13)
	movq	%r12, 8(%r13)
.LBB64_23:
	vmovaps	240(%rsp), %xmm6
	addq	$264, %rsp
	popq	%rbx
	popq	%rbp
	popq	%rdi
	popq	%rsi
	popq	%r12
	popq	%r13
	popq	%r14
	popq	%r15
	retq
.LBB64_12:
	testq	%r8, %r8
	js	.LBB64_29
	movq	%rcx, (%r13)
	movq	%r8, 8(%r13)
	xorl	%eax, %eax
	jmp	.LBB64_23
.LBB64_29:
	movq	%r8, 32(%rsp)
	leaq	".Lggv$runtime::_mem_resize$2"(%rip), %rcx
	movl	$200, %edx
	movl	$24, %r8d
	xorl	%r9d, %r9d
	callq	"runtime::multi_pointer_slice_handle_error"
.LBB64_30:
	movq	%rdx, 32(%rsp)
	leaq	".Lggv$runtime::_mem_resize$3"(%rip), %rcx
	movl	$218, %edx
	movl	$28, %r8d
	xorl	%r9d, %r9d
	callq	"runtime::multi_pointer_slice_handle_error"
.LBB64_28:
	vmovups	".Lggv$runtime::mem_resize$1"(%rip), %xmm0
	vmovaps	%xmm0, 224(%rsp)
	movq	32(%rbx), %rax
	testq	%rax, %rax
	leaq	"runtime::default_assertion_failure_proc"(%rip), %r10
	cmovneq	%rax, %r10
	leaq	".Lggv$runtime::assert.internal-0$1"(%rip), %rcx
	leaq	224(%rsp), %rdx
	movq	%rsi, %r8
	movq	%rbx, %r9
	callq	*%r10
	int3
	.seh_endproc

	.def	"mem::tracking_allocator_proc";
	.scl	3;
	.type	32;
	.endef
	.globl	__real@0000000000000001
	.section	.rdata,"dr",discard,__real@0000000000000001
	.p2align	3, 0x0
__real@0000000000000001:
	.quad	1
	.globl	__xmm@00000000000000010000000000000000
	.section	.rdata,"dr",discard,__xmm@00000000000000010000000000000000
	.p2align	4, 0x0
__xmm@00000000000000010000000000000000:
	.zero	8
	.quad	1
	.section	.rdata,"dr"
.LCPI65_2:
	.zero	2,1
	.text
	.p2align	4
"mem::tracking_allocator_proc":
.seh_proc "mem::tracking_allocator_proc"
	pushq	%r15
	.seh_pushreg %r15
	pushq	%r14
	.seh_pushreg %r14
	pushq	%r13
	.seh_pushreg %r13
	pushq	%r12
	.seh_pushreg %r12
	pushq	%rsi
	.seh_pushreg %rsi
	pushq	%rdi
	.seh_pushreg %rdi
	pushq	%rbp
	.seh_pushreg %rbp
	pushq	%rbx
	.seh_pushreg %rbx
	subq	$408, %rsp
	.seh_stackalloc 408
	vmovaps	%xmm6, 384(%rsp)
	.seh_savexmm %xmm6, 384
	.seh_endprologue
	movq	%r9, 136(%rsp)
	movq	%r8, 128(%rsp)
	movl	%edx, %ebp
	movq	%rcx, %rdi
	movq	544(%rsp), %r15
	movq	536(%rsp), %rsi
	movq	512(%rsp), %rbx
	leaq	96(%rcx), %r13
	movq	%r13, %rcx
	callq	AcquireSRWLockExclusive
	movzbl	%bpl, %r12d
	cmpb	$1, %r12b
	je	.LBB65_15
	cmpl	$5, %r12d
	jne	.LBB65_26
	testq	%rbx, %rbx
	je	.LBB65_14
	movq	(%rbx), %rax
	testq	%rax, %rax
	je	.LBB65_14
	movq	%rsi, %r12
	movq	%rax, %r8
	shrq	$56, %r8
	movq	%rax, %r9
	shrq	$48, %r9
	movq	%rax, %r10
	shrq	$40, %r10
	movq	%rax, %r11
	shrq	$32, %r11
	movl	%eax, %esi
	shrl	$24, %esi
	movl	%eax, %ebp
	shrl	$16, %ebp
	movq	16(%rdi), %rdx
	movq	%rdx, %rcx
	andq	$-64, %rcx
	movabsq	$-7046029254386353131, %rbx
	addq	%rcx, %rbx
	movq	%rbx, %r14
	shrq	$30, %r14
	xorq	%rbx, %r14
	movabsq	$-4658895280553007687, %rbx
	imulq	%r14, %rbx
	movq	%rbx, %r14
	shrq	$27, %r14
	xorq	%rbx, %r14
	movabsq	$-7723592293110705685, %rbx
	imulq	%r14, %rbx
	movq	%rbx, %r14
	shrq	$31, %r14
	xorq	%rbx, %r14
	movabsq	$-3750763034362895579, %rbx
	addq	%r14, %rbx
	movzbl	%al, %r15d
	xorq	%rbx, %r15
	movabsq	$1099511628211, %r14
	imulq	%r14, %r15
	movzbl	%ah, %ebx
	xorq	%r15, %rbx
	imulq	%r14, %rbx
	movzbl	%bpl, %r15d
	xorq	%rbx, %r15
	imulq	%r14, %r15
	xorq	%rsi, %r15
	imulq	%r14, %r15
	movzbl	%r11b, %r11d
	xorq	%r15, %r11
	imulq	%r14, %r11
	movzbl	%r10b, %r10d
	xorq	%r11, %r10
	imulq	%r14, %r10
	movzbl	%r9b, %r11d
	xorq	%r10, %r11
	imulq	%r14, %r11
	xorq	%r8, %r11
	imulq	%r14, %r11
	movb	$63, %r8b
	xorl	%r9d, %r9d
	bzhiq	%r8, %r11, %r8
	sete	%r10b
	cmpq	$0, 24(%rdi)
	je	.LBB65_13
	movb	%r10b, %r9b
	orq	%r9, %r8
	movl	$1, %r9d
	shlxq	%rdx, %r9, %r9
	testq	%rdx, %rdx
	cmoveq	%rdx, %r9
	leaq	-1(%r9), %r11
	movq	%r8, %rdx
	andq	%r11, %rdx
	leaq	(%rcx,%r9,8), %r10
	movq	%r9, %rsi
	shlq	$7, %rsi
	addq	%r10, %rsi
	movq	(%rsi,%rdx,8), %r14
	testq	%r14, %r14
	je	.LBB65_13
	subq	%rdx, %r9
	movq	$-1, %rdi
	jmp	.LBB65_8
	.p2align	4
.LBB65_7:
	incq	%rdx
	andq	%r11, %rdx
	movq	(%rsi,%rdx,8), %r14
	testq	%r14, %r14
	je	.LBB65_13
.LBB65_8:
	leaq	(%r9,%rdx), %rbx
	andq	%r11, %rbx
	incq	%rdi
	cmpq	%rbx, %rdi
	ja	.LBB65_13
	cmpq	%r8, %r14
	jne	.LBB65_7
	cmpq	%rax, (%rcx,%rdx,8)
	jne	.LBB65_7
	shlq	$7, %rdx
	addq	%r10, %rdx
	je	.LBB65_13
	vmovdqu	8(%rdx), %xmm0
	vpermq	$212, %ymm0, %ymm0
	vpbroadcastq	__real@0000000000000001(%rip), %ymm1
	vpunpcklqdq	%ymm1, %ymm0, %ymm0
	movq	512(%rsp), %rax
	vmovdqu	%ymm0, 8(%rax)
.LBB65_13:
	movq	512(%rsp), %rax
	movq	$0, (%rax)
	movq	%r12, %rsi
.LBB65_14:
	vpxor	%xmm0, %xmm0, %xmm0
	vmovdqu	%xmm0, (%rsi)
	movq	%r13, %rcx
	jmp	.LBB65_81
.LBB65_15:
	testq	%rbx, %rbx
	je	.LBB65_26
	movq	16(%rdi), %rcx
	movq	%rcx, %rax
	andq	$-64, %rax
	movabsq	$-7046029254386353131, %rdx
	addq	%rax, %rdx
	movq	%rdx, %r8
	shrq	$30, %r8
	xorq	%rdx, %r8
	movabsq	$-4658895280553007687, %rdx
	imulq	%r8, %rdx
	movq	%rdx, %r8
	shrq	$27, %r8
	xorq	%rdx, %r8
	movabsq	$-7723592293110705685, %rdx
	imulq	%r8, %rdx
	movq	%rdx, %r8
	shrq	$31, %r8
	xorq	%rdx, %r8
	movabsq	$-3750763034362895579, %rdx
	addq	%r8, %rdx
	movzbl	%bl, %r8d
	xorq	%rdx, %r8
	movabsq	$1099511628211, %rdx
	imulq	%rdx, %r8
	movzbl	%bh, %esi
	xorq	%r8, %rsi
	imulq	%rdx, %rsi
	movl	%ebx, %r8d
	shrl	$16, %r8d
	movzbl	%r8b, %r8d
	xorq	%rsi, %r8
	imulq	%rdx, %r8
	movl	%ebx, %r9d
	shrl	$24, %r9d
	xorq	%r8, %r9
	imulq	%rdx, %r9
	movq	%rbx, %r8
	shrq	$32, %r8
	movzbl	%r8b, %r8d
	xorq	%r9, %r8
	imulq	%rdx, %r8
	movq	%rbx, %r9
	shrq	$40, %r9
	movzbl	%r9b, %r9d
	xorq	%r8, %r9
	imulq	%rdx, %r9
	movq	%rbx, %r8
	shrq	$48, %r8
	movzbl	%r8b, %r8d
	xorq	%r9, %r8
	imulq	%rdx, %r8
	movq	%rbx, %r9
	shrq	$56, %r9
	xorq	%r8, %r9
	imulq	%rdx, %r9
	movb	$63, %dl
	xorl	%r8d, %r8d
	bzhiq	%rdx, %r9, %rdx
	sete	%r9b
	cmpq	$0, 24(%rdi)
	je	.LBB65_24
	movb	%r9b, %r8b
	orq	%r8, %rdx
	movl	$1, %r8d
	shlxq	%rcx, %r8, %r8
	testq	%rcx, %rcx
	cmoveq	%rcx, %r8
	leaq	-1(%r8), %r10
	movq	%rdx, %rcx
	andq	%r10, %rcx
	leaq	(%rax,%r8,8), %r9
	movq	%r8, %r11
	shlq	$7, %r11
	addq	%r9, %r11
	movq	(%r11,%rcx,8), %r14
	testq	%r14, %r14
	je	.LBB65_24
	subq	%rcx, %r8
	movq	$-1, %rsi
	jmp	.LBB65_20
	.p2align	4
.LBB65_19:
	incq	%rcx
	andq	%r10, %rcx
	movq	(%r11,%rcx,8), %r14
	testq	%r14, %r14
	je	.LBB65_24
.LBB65_20:
	leaq	(%r8,%rcx), %rbx
	andq	%r10, %rbx
	incq	%rsi
	cmpq	%rbx, %rsi
	movq	512(%rsp), %rbx
	ja	.LBB65_24
	cmpq	%rdx, %r14
	jne	.LBB65_19
	cmpq	%rbx, (%rax,%rcx,8)
	jne	.LBB65_19
	shlq	$7, %rcx
	addq	%r9, %rcx
	jne	.LBB65_26
.LBB65_24:
	movq	48(%rdi), %rax
	testq	%rax, %rax
	je	.LBB65_29
	movq	%rdi, %rcx
	movq	%rbx, %rdx
	movq	528(%rsp), %rsi
	movq	%rsi, %r8
	movq	%r15, %r9
	callq	*%rax
	xorl	%ebx, %ebx
	xorl	%eax, %eax
	jmp	.LBB65_30
.LBB65_26:
	movq	520(%rsp), %rax
	movq	(%rdi), %r10
	movq	8(%rdi), %rcx
	vxorps	%xmm6, %xmm6, %xmm6
	vmovaps	%xmm6, 176(%rsp)
	movq	%r15, 64(%rsp)
	leaq	176(%rsp), %rdx
	movq	%rdx, 56(%rsp)
	movq	528(%rsp), %rsi
	movq	%rsi, 48(%rsp)
	movq	%rax, 40(%rsp)
	movq	%rbx, 32(%rsp)
	movl	%ebp, %edx
	movq	128(%rsp), %r8
	movq	136(%rsp), %r9
	callq	*%r10
	testb	%al, %al
	je	.LBB65_28
	movl	%eax, %r15d
	movq	536(%rsp), %rax
	vmovups	%xmm6, (%rax)
	movq	%r13, %rcx
	callq	ReleaseSRWLockExclusive
	jmp	.LBB65_82
.LBB65_28:
	movq	176(%rsp), %rax
	movq	184(%rsp), %rbx
	jmp	.LBB65_30
.LBB65_29:
	xorl	%ebx, %ebx
	xorl	%eax, %eax
	movq	528(%rsp), %rsi
.LBB65_30:
	movq	%r13, 160(%rsp)
	movq	%rax, 96(%rsp)
	movq	%rax, 80(%rsp)
	cmpq	$0, 32(%rdi)
	jne	.LBB65_32
	movq	544(%rsp), %rax
	vmovdqu	(%rax), %xmm0
	vmovdqu	%xmm0, 32(%rdi)
.LBB65_32:
	cmpb	$7, %bpl
	ja	.LBB65_79
	leaq	16(%rdi), %r14
	movq	96(%rsp), %rdx
	movq	%rdx, %r13
	shrq	$8, %r13
	movq	%rdx, %r11
	shrq	$16, %r11
	movq	%rdx, %r10
	shrq	$24, %r10
	movq	%rdx, %r15
	shrq	$32, %r15
	movq	%rdx, %r9
	shrq	$40, %r9
	movq	%rdx, %r8
	shrq	$48, %r8
	shrq	$56, %rdx
	leaq	.LJTI65_0(%rip), %rax
	movslq	(%rax,%r12,4), %rcx
	addq	%rax, %rcx
	jmpq	*%rcx
.LBB65_34:
	movq	%rbx, 88(%rsp)
	movq	$0, 328(%rsp)
	movq	%r10, %r12
	movq	96(%rsp), %r10
	movq	%r10, 304(%rsp)
	movq	128(%rsp), %rax
	movq	%rax, 312(%rsp)
	movb	%bpl, 328(%rsp)
	movq	136(%rsp), %rax
	movq	%rax, 320(%rsp)
	vmovups	(%rsi), %xmm0
	vmovdqu	24(%rsi), %xmm1
	vmovups	%xmm0, 336(%rsp)
	movq	16(%rsi), %rax
	movq	%rax, 352(%rsp)
	vmovdqu	%xmm1, 360(%rsp)
	movq	(%r14), %rax
	andq	$-64, %rax
	movabsq	$-7046029254386353131, %rbx
	addq	%rbx, %rax
	movq	%rax, %rcx
	shrq	$30, %rcx
	xorq	%rax, %rcx
	movabsq	$-4658895280553007687, %rax
	imulq	%rax, %rcx
	movq	%rcx, %rax
	shrq	$27, %rax
	xorq	%rcx, %rax
	movabsq	$-7723592293110705685, %rcx
	imulq	%rcx, %rax
	movq	%rax, %rcx
	shrq	$31, %rcx
	xorq	%rax, %rcx
	movabsq	$-3750763034362895579, %rax
	addq	%rax, %rcx
	movzbl	%r10b, %eax
	xorq	%rcx, %rax
	movabsq	$1099511628211, %rsi
	imulq	%rsi, %rax
	movzbl	%r13b, %ecx
	xorq	%rax, %rcx
	imulq	%rsi, %rcx
	movzbl	%r11b, %eax
	xorq	%rcx, %rax
	imulq	%rsi, %rax
	movzbl	%r12b, %ecx
	xorq	%rax, %rcx
	imulq	%rsi, %rcx
	movzbl	%r15b, %eax
	xorq	%rcx, %rax
	imulq	%rsi, %rax
	movzbl	%r9b, %ecx
	xorq	%rax, %rcx
	imulq	%rsi, %rcx
	movzbl	%r8b, %eax
	xorq	%rcx, %rax
	imulq	%rsi, %rax
	xorq	%rdx, %rax
	imulq	%rsi, %rax
	movb	$63, %bpl
	xorl	%edx, %edx
	bzhiq	%rbp, %rax, %rax
	sete	%dl
	orq	%rax, %rdx
	movq	544(%rsp), %rax
	movq	%rax, 40(%rsp)
	leaq	".Lscl$[tracking_allocator_proc7433]"(%rip), %rax
	movq	%rax, 32(%rsp)
	leaq	80(%rsp), %r8
	leaq	304(%rsp), %r9
	movq	%r14, %rcx
	callq	"__$map_set-15135743658826049586"
	movq	(%r14), %rcx
	movq	%rcx, %rax
	andq	$-64, %rax
	addq	%rax, %rbx
	movq	%rbx, %rdx
	shrq	$30, %rdx
	xorq	%rbx, %rdx
	movabsq	$-4658895280553007687, %r8
	imulq	%r8, %rdx
	movq	%rdx, %r8
	shrq	$27, %r8
	xorq	%rdx, %r8
	movabsq	$-7723592293110705685, %rdx
	imulq	%rdx, %r8
	movq	%r8, %rdx
	shrq	$31, %rdx
	xorq	%r8, %rdx
	movabsq	$-3750763034362895579, %r8
	addq	%r8, %rdx
	movzbl	80(%rsp), %r8d
	xorq	%rdx, %r8
	imulq	%rsi, %r8
	movzbl	81(%rsp), %edx
	xorq	%r8, %rdx
	imulq	%rsi, %rdx
	movzbl	82(%rsp), %r8d
	xorq	%rdx, %r8
	imulq	%rsi, %r8
	movzbl	83(%rsp), %edx
	xorq	%r8, %rdx
	imulq	%rsi, %rdx
	movzbl	84(%rsp), %r8d
	xorq	%rdx, %r8
	imulq	%rsi, %r8
	movzbl	85(%rsp), %edx
	xorq	%r8, %rdx
	imulq	%rsi, %rdx
	movzbl	86(%rsp), %r8d
	xorq	%rdx, %r8
	imulq	%rsi, %r8
	movzbl	87(%rsp), %r9d
	xorq	%r8, %r9
	imulq	%rsi, %r9
	xorl	%edx, %edx
	bzhiq	%rbp, %r9, %r8
	sete	%dl
	orq	%r8, %rdx
	movq	80(%rsp), %r8
	movl	$1, %r9d
	shlxq	%rcx, %r9, %r10
	testq	%rcx, %rcx
	cmoveq	%rcx, %r10
	leaq	-1(%r10), %r11
	movq	%rdx, %rcx
	andq	%r11, %rcx
	leaq	(%rax,%r10,8), %r9
	shlq	$7, %r10
	addq	%r9, %r10
	jmp	.LBB65_36
	.p2align	4
.LBB65_35:
	incq	%rcx
	andq	%r11, %rcx
.LBB65_36:
	movq	(%r10,%rcx,8), %rsi
	cmpq	%rdx, %rsi
	jne	.LBB65_35
	cmpq	%r8, (%rax,%rcx,8)
	jne	.LBB65_35
	shlq	$7, %rcx
	vpmovsxbq	.LCPI65_2(%rip), %xmm0
	vpinsrq	$0, 8(%rcx,%r9), %xmm0, %xmm0
	vpaddq	112(%rdi), %xmm0, %xmm0
	vmovdqu	%xmm0, 112(%rdi)
	movq	152(%rdi), %rax
	addq	8(%rcx,%r9), %rax
	movq	%rax, 152(%rdi)
	cmpq	144(%rdi), %rax
	movq	88(%rsp), %rbx
	jg	.LBB65_78
	jmp	.LBB65_79
.LBB65_39:
	movq	%r13, 192(%rsp)
	movq	%r10, 200(%rsp)
	movq	%r9, 208(%rsp)
	movq	%r8, 216(%rsp)
	movq	%rdx, 152(%rsp)
	movq	%r14, 120(%rsp)
	movq	%rbx, 88(%rsp)
	cmpq	$0, 512(%rsp)
	je	.LBB65_52
	movq	16(%rdi), %r9
	movq	%r9, %r10
	andq	$-64, %r10
	movabsq	$-7046029254386353131, %rax
	addq	%r10, %rax
	movq	%rax, %rcx
	shrq	$30, %rcx
	xorq	%rax, %rcx
	movabsq	$-4658895280553007687, %rax
	imulq	%rax, %rcx
	movq	%rcx, %rax
	shrq	$27, %rax
	xorq	%rcx, %rax
	movabsq	$-7723592293110705685, %rcx
	imulq	%rcx, %rax
	movq	%rax, %rcx
	shrq	$31, %rcx
	xorq	%rax, %rcx
	movabsq	$-3750763034362895579, %rax
	addq	%rax, %rcx
	movq	512(%rsp), %rdx
	movzbl	%dl, %eax
	xorq	%rcx, %rax
	movabsq	$1099511628211, %r8
	imulq	%r8, %rax
	movzbl	%dh, %ecx
	xorq	%rax, %rcx
	imulq	%r8, %rcx
	movl	%edx, %eax
	shrl	$16, %eax
	movzbl	%al, %eax
	xorq	%rcx, %rax
	imulq	%r8, %rax
	movl	%edx, %ecx
	shrl	$24, %ecx
	xorq	%rax, %rcx
	imulq	%r8, %rcx
	movq	%rdx, %rax
	shrq	$32, %rax
	movzbl	%al, %eax
	xorq	%rcx, %rax
	imulq	%r8, %rax
	movq	%rdx, %rcx
	shrq	$40, %rcx
	movzbl	%cl, %ecx
	xorq	%rax, %rcx
	imulq	%r8, %rcx
	movq	%rdx, %rax
	shrq	$48, %rax
	movzbl	%al, %eax
	xorq	%rcx, %rax
	imulq	%r8, %rax
	movq	%rdx, %rcx
	shrq	$56, %rcx
	xorq	%rax, %rcx
	imulq	%r8, %rcx
	movb	$63, %dl
	xorl	%eax, %eax
	bzhiq	%rdx, %rcx, %rdx
	sete	%cl
	cmpq	$0, 24(%rdi)
	je	.LBB65_52
	movb	%cl, %al
	orq	%rax, %rdx
	movl	$1, %eax
	shlxq	%r9, %rax, %r14
	testq	%r9, %r9
	cmoveq	%r9, %r14
	leaq	-1(%r14), %r13
	movq	%rdx, %rsi
	andq	%r13, %rsi
	leaq	(%r10,%r14,8), %rax
	movq	%r14, %rcx
	shlq	$7, %rcx
	movq	%rax, 144(%rsp)
	addq	%rax, %rcx
	movq	(%rcx,%rsi,8), %rbx
	testq	%rbx, %rbx
	je	.LBB65_52
	subq	%rsi, %r14
	movq	$-1, %r8
	movq	%rbx, %rax
	movq	%rsi, %r12
	jmp	.LBB65_44
	.p2align	4
.LBB65_43:
	incq	%r12
	andq	%r13, %r12
	movq	(%rcx,%r12,8), %rax
	testq	%rax, %rax
	je	.LBB65_52
.LBB65_44:
	leaq	(%r14,%r12), %r9
	andq	%r13, %r9
	incq	%r8
	cmpq	%r9, %r8
	ja	.LBB65_52
	cmpq	%rdx, %rax
	jne	.LBB65_43
	movq	512(%rsp), %rax
	cmpq	%rax, (%r10,%r12,8)
	jne	.LBB65_43
	shlq	$7, %r12
	addq	144(%rsp), %r12
	jne	.LBB65_49
	jmp	.LBB65_52
.LBB65_48:
	incq	%rsi
	andq	%r13, %rsi
	movq	(%rcx,%rsi,8), %rbx
.LBB65_49:
	cmpq	%rdx, %rbx
	jne	.LBB65_48
	movq	512(%rsp), %rax
	cmpq	%rax, (%r10,%rsi,8)
	jne	.LBB65_48
	shlq	$7, %rsi
	vpmovsxbq	.LCPI65_2(%rip), %xmm0
	movq	144(%rsp), %rax
	vpinsrq	$0, 8(%rsi,%rax), %xmm0, %xmm0
	vpaddq	128(%rdi), %xmm0, %xmm0
	vmovdqu	%xmm0, 128(%rdi)
	movq	8(%rsi,%rax), %rax
	subq	%rax, 152(%rdi)
.LBB65_52:
	movq	512(%rsp), %rax
	movq	96(%rsp), %rsi
	cmpq	%rsi, %rax
	je	.LBB65_72
	movq	%rax, 112(%rsp)
	leaq	112(%rsp), %rdx
	leaq	168(%rsp), %r8
	leaq	104(%rsp), %r9
	movq	120(%rsp), %rbx
	movq	%rbx, %rcx
	callq	"runtime::map_erase_dynamic"
	movq	80(%rsp), %rsi
	movq	%rsi, %r11
	shrq	$8, %r11
	movq	%rsi, %r10
	shrq	$16, %r10
	movq	%rsi, %r15
	shrq	$24, %r15
	movq	%rsi, %rdx
	shrq	$32, %rdx
	movq	%rsi, %r9
	shrq	$40, %r9
	movq	%rsi, %r8
	shrq	$48, %r8
	movq	%rsi, %rax
	shrq	$56, %rax
	movq	%rax, 152(%rsp)
	jmp	.LBB65_73
.LBB65_54:
	movq	512(%rsp), %rax
	testq	%rax, %rax
	je	.LBB65_56
	movb	$127, (%rax)
.LBB65_56:
	vpxor	%xmm0, %xmm0, %xmm0
	movq	536(%rsp), %rax
	vmovdqu	%xmm0, (%rax)
	jmp	.LBB65_80
.LBB65_57:
	movq	%r14, %rbp
	movq	%rbx, 88(%rsp)
	movq	512(%rsp), %rbx
	testq	%rbx, %rbx
	je	.LBB65_67
	movq	16(%rdi), %rcx
	movq	%rcx, %rax
	andq	$-64, %rax
	movabsq	$-7046029254386353131, %rdx
	addq	%rax, %rdx
	movq	%rdx, %r8
	shrq	$30, %r8
	xorq	%rdx, %r8
	movabsq	$-4658895280553007687, %rdx
	imulq	%r8, %rdx
	movq	%rdx, %r8
	shrq	$27, %r8
	xorq	%rdx, %r8
	movabsq	$-7723592293110705685, %r9
	imulq	%r8, %r9
	movq	%r9, %rdx
	shrq	$31, %rdx
	xorq	%r9, %rdx
	movabsq	$-3750763034362895579, %r8
	addq	%rdx, %r8
	movzbl	%bl, %r9d
	xorq	%r8, %r9
	movabsq	$1099511628211, %r8
	imulq	%r8, %r9
	movzbl	%bh, %esi
	xorq	%r9, %rsi
	imulq	%r8, %rsi
	movl	%ebx, %r9d
	shrl	$16, %r9d
	movzbl	%r9b, %r9d
	xorq	%rsi, %r9
	imulq	%r8, %r9
	movl	%ebx, %r10d
	shrl	$24, %r10d
	xorq	%r9, %r10
	imulq	%r8, %r10
	movq	%rbx, %r9
	shrq	$32, %r9
	movzbl	%r9b, %r9d
	xorq	%r10, %r9
	imulq	%r8, %r9
	movq	%rbx, %r10
	shrq	$40, %r10
	movzbl	%r10b, %r10d
	xorq	%r9, %r10
	imulq	%r8, %r10
	movq	%rbx, %r9
	shrq	$48, %r9
	movzbl	%r9b, %r9d
	xorq	%r10, %r9
	imulq	%r8, %r9
	movq	%rbx, %r10
	shrq	$56, %r10
	xorq	%r9, %r10
	imulq	%r8, %r10
	movb	$63, %r8b
	xorl	%r9d, %r9d
	bzhiq	%r8, %r10, %r8
	sete	%r10b
	cmpq	$0, 24(%rdi)
	je	.LBB65_67
	movb	%r10b, %r9b
	orq	%r9, %r8
	movl	$1, %r9d
	shlxq	%rcx, %r9, %r9
	testq	%rcx, %rcx
	cmoveq	%rcx, %r9
	leaq	-1(%r9), %r11
	movq	%r8, %rcx
	andq	%r11, %rcx
	leaq	(%rax,%r9,8), %r10
	movq	%r9, %rsi
	shlq	$7, %rsi
	addq	%r10, %rsi
	movq	(%rsi,%rcx,8), %r12
	testq	%r12, %r12
	je	.LBB65_67
	subq	%rcx, %r9
	movq	$-1, %r14
	jmp	.LBB65_62
.LBB65_61:
	incq	%rcx
	andq	%r11, %rcx
	movq	(%rsi,%rcx,8), %r12
	testq	%r12, %r12
	je	.LBB65_67
.LBB65_62:
	leaq	(%r9,%rcx), %rbx
	andq	%r11, %rbx
	incq	%r14
	cmpq	%rbx, %r14
	movq	512(%rsp), %rbx
	ja	.LBB65_67
	cmpq	%r8, %r12
	jne	.LBB65_61
	cmpq	%rbx, (%rax,%rcx,8)
	jne	.LBB65_61
	shlq	$7, %rcx
	addq	%r10, %rcx
	je	.LBB65_67
	movq	%rbx, 224(%rsp)
	leaq	224(%rsp), %r14
	movq	%r14, %rcx
	callq	"__$hasher-11676279209103007012"
	movq	%rbp, %rcx
	movq	%rax, %rdx
	movq	%r14, %r8
	callq	"__$map_get-15135743658826049586"
	vpmovsxbq	.LCPI65_2(%rip), %xmm0
	vpinsrq	$0, 8(%rax), %xmm0, %xmm0
	vpaddq	128(%rdi), %xmm0, %xmm0
	vmovdqu	%xmm0, 128(%rdi)
	movq	8(%rax), %rax
	subq	%rax, 152(%rdi)
.LBB65_67:
	movq	%rbx, 112(%rsp)
	leaq	112(%rsp), %rdx
	leaq	168(%rsp), %r8
	leaq	104(%rsp), %r9
	movq	%rbp, %rcx
	callq	"runtime::map_erase_dynamic"
	movq	88(%rsp), %rbx
	jmp	.LBB65_79
.LBB65_68:
	cmpb	$0, 104(%rdi)
	je	.LBB65_79
	movq	(%r14), %rsi
	testq	%rsi, %rsi
	je	.LBB65_71
	movq	$0, 104(%rsp)
	leaq	376(%rsp), %rax
	movq	%rax, 40(%rsp)
	leaq	104(%rsp), %rax
	movq	%rax, 32(%rsp)
	leaq	.Lmap_info(%rip), %rdx
	leaq	112(%rsp), %r8
	leaq	168(%rsp), %r9
	movq	%r14, %rcx
	callq	"runtime::map_kvh_data_dynamic"
	movq	104(%rsp), %rcx
	movl	$8, %eax
	shlxq	%rsi, %rax, %r8
	xorl	%edx, %edx
	callq	memset
	movq	$0, 24(%rdi)
.LBB65_71:
	movq	$0, 152(%rdi)
	jmp	.LBB65_79
.LBB65_72:
	movq	120(%rsp), %rbx
	movq	216(%rsp), %r8
	movq	208(%rsp), %r9
	movq	%r15, %rdx
	movq	200(%rsp), %r15
	movq	%r11, %r10
	movq	192(%rsp), %r11
.LBB65_73:
	movq	$0, 256(%rsp)
	movq	%rsi, 232(%rsp)
	movq	128(%rsp), %rax
	movq	%rax, 240(%rsp)
	movb	%bpl, 256(%rsp)
	movq	136(%rsp), %rax
	movq	%rax, 248(%rsp)
	movq	528(%rsp), %rax
	vmovups	(%rax), %xmm0
	vmovdqu	24(%rax), %xmm1
	vmovups	%xmm0, 264(%rsp)
	movq	16(%rax), %rax
	movq	%rax, 280(%rsp)
	vmovdqu	%xmm1, 288(%rsp)
	movq	(%rbx), %rax
	andq	$-64, %rax
	movabsq	$-7046029254386353131, %rbx
	addq	%rbx, %rax
	movq	%rax, %rcx
	shrq	$30, %rcx
	xorq	%rax, %rcx
	movabsq	$-4658895280553007687, %rbp
	imulq	%rbp, %rcx
	movq	%rcx, %rax
	shrq	$27, %rax
	xorq	%rcx, %rax
	movabsq	$-7723592293110705685, %r13
	imulq	%r13, %rax
	movq	%rax, %rcx
	shrq	$31, %rcx
	xorq	%rax, %rcx
	movabsq	$-3750763034362895579, %r12
	addq	%r12, %rcx
	movzbl	%sil, %eax
	xorq	%rcx, %rax
	movabsq	$1099511628211, %r14
	imulq	%r14, %rax
	movzbl	%r11b, %ecx
	xorq	%rax, %rcx
	imulq	%r14, %rcx
	movzbl	%r10b, %eax
	xorq	%rcx, %rax
	imulq	%r14, %rax
	movzbl	%r15b, %ecx
	xorq	%rax, %rcx
	imulq	%r14, %rcx
	movzbl	%dl, %eax
	xorq	%rcx, %rax
	imulq	%r14, %rax
	movzbl	%r9b, %ecx
	xorq	%rax, %rcx
	imulq	%r14, %rcx
	movzbl	%r8b, %eax
	xorq	%rcx, %rax
	imulq	%r14, %rax
	xorq	152(%rsp), %rax
	imulq	%r14, %rax
	movb	$63, %r12b
	xorl	%edx, %edx
	bzhiq	%r12, %rax, %rax
	sete	%dl
	orq	%rax, %rdx
	movq	544(%rsp), %rax
	movq	%rax, 40(%rsp)
	leaq	".Lscl$[tracking_allocator_proc8236]"(%rip), %rax
	movq	%rax, 32(%rsp)
	leaq	80(%rsp), %r8
	leaq	232(%rsp), %r9
	movq	120(%rsp), %rsi
	movq	%rsi, %rcx
	callq	"__$map_set-15135743658826049586"
	movq	(%rsi), %rcx
	movq	%rcx, %rax
	andq	$-64, %rax
	addq	%rax, %rbx
	movq	%rbx, %rdx
	shrq	$30, %rdx
	xorq	%rbx, %rdx
	imulq	%rbp, %rdx
	movq	%rdx, %r8
	shrq	$27, %r8
	xorq	%rdx, %r8
	imulq	%r13, %r8
	movq	%r8, %rdx
	shrq	$31, %rdx
	xorq	%r8, %rdx
	movabsq	$-3750763034362895579, %r8
	addq	%r8, %rdx
	movzbl	80(%rsp), %r8d
	xorq	%rdx, %r8
	imulq	%r14, %r8
	movzbl	81(%rsp), %edx
	xorq	%r8, %rdx
	imulq	%r14, %rdx
	movzbl	82(%rsp), %r8d
	xorq	%rdx, %r8
	imulq	%r14, %r8
	movzbl	83(%rsp), %edx
	xorq	%r8, %rdx
	imulq	%r14, %rdx
	movzbl	84(%rsp), %r8d
	xorq	%rdx, %r8
	imulq	%r14, %r8
	movzbl	85(%rsp), %edx
	xorq	%r8, %rdx
	imulq	%r14, %rdx
	movzbl	86(%rsp), %r8d
	xorq	%rdx, %r8
	imulq	%r14, %r8
	movzbl	87(%rsp), %r9d
	xorq	%r8, %r9
	imulq	%r14, %r9
	xorl	%edx, %edx
	bzhiq	%r12, %r9, %r8
	sete	%dl
	orq	%r8, %rdx
	movq	80(%rsp), %r8
	movl	$1, %r9d
	shlxq	%rcx, %r9, %r10
	testq	%rcx, %rcx
	cmoveq	%rcx, %r10
	leaq	-1(%r10), %r11
	movq	%rdx, %rcx
	andq	%r11, %rcx
	leaq	(%rax,%r10,8), %r9
	shlq	$7, %r10
	addq	%r9, %r10
	movq	(%r10,%rcx,8), %rsi
	movq	88(%rsp), %rbx
	jmp	.LBB65_75
	.p2align	4
.LBB65_74:
	incq	%rcx
	andq	%r11, %rcx
	movq	(%r10,%rcx,8), %rsi
.LBB65_75:
	cmpq	%rdx, %rsi
	jne	.LBB65_74
	cmpq	%r8, (%rax,%rcx,8)
	jne	.LBB65_74
	shlq	$7, %rcx
	vpmovsxbq	.LCPI65_2(%rip), %xmm0
	vpinsrq	$0, 8(%rcx,%r9), %xmm0, %xmm0
	vpaddq	112(%rdi), %xmm0, %xmm0
	vmovdqu	%xmm0, 112(%rdi)
	movq	152(%rdi), %rax
	addq	8(%rcx,%r9), %rax
	movq	%rax, 152(%rdi)
	cmpq	144(%rdi), %rax
	jle	.LBB65_79
.LBB65_78:
	movq	%rax, 144(%rdi)
.LBB65_79:
	movq	536(%rsp), %rax
	movq	96(%rsp), %rcx
	movq	%rcx, (%rax)
	movq	%rbx, 8(%rax)
.LBB65_80:
	movq	160(%rsp), %rcx
.LBB65_81:
	vzeroupper
	callq	ReleaseSRWLockExclusive
	xorl	%r15d, %r15d
.LBB65_82:
	movl	%r15d, %eax
	vmovaps	384(%rsp), %xmm6
	addq	$408, %rsp
	popq	%rbx
	popq	%rbp
	popq	%rdi
	popq	%rsi
	popq	%r12
	popq	%r13
	popq	%r14
	popq	%r15
	retq
	.section	.rdata,"dr"
	.p2align	2, 0x0
.LJTI65_0:
	.long	.LBB65_34-.LJTI65_0
	.long	.LBB65_57-.LJTI65_0
	.long	.LBB65_68-.LJTI65_0
	.long	.LBB65_39-.LJTI65_0
	.long	.LBB65_54-.LJTI65_0
	.long	.LBB65_79-.LJTI65_0
	.long	.LBB65_34-.LJTI65_0
	.long	.LBB65_39-.LJTI65_0
	.text
	.seh_endproc

	.def	"runtime::print_typeid";
	.scl	3;
	.type	32;
	.endef
	.p2align	4
"runtime::print_typeid":
	testq	%rcx, %rcx
	je	.LBB66_22
	movabsq	$3466789489490658193, %rax
	movq	%rcx, %rdx
	mulxq	%rax, %rax, %rax
	subq	%rax, %rdx
	shrq	%rdx
	addq	%rax, %rdx
	shrq	$8, %rdx
	imulq	$431, %rdx, %rax
	movq	%rcx, %r10
	subq	%rax, %r10
	movl	$428, %edx
	leaq	.L__$type_info_data(%rip), %r8
	leaq	".L__$ti-0"(%rip), %r9
	jmp	.LBB66_2
	.p2align	4
.LBB66_21:
	addq	$-4, %rdx
.LBB66_2:
	movq	(%r8,%r10,8), %rax
	testq	%rax, %rax
	je	.LBB66_4
	cmpq	%rcx, 24(%rax)
	je	.LBB66_16
.LBB66_4:
	incq	%r10
	cmpq	$431, %r10
	jb	.LBB66_6
	xorl	%r10d, %r10d
.LBB66_6:
	movq	(%r8,%r10,8), %rax
	testq	%rax, %rax
	je	.LBB66_8
	cmpq	%rcx, 24(%rax)
	je	.LBB66_16
.LBB66_8:
	incq	%r10
	cmpq	$431, %r10
	jb	.LBB66_10
	xorl	%r10d, %r10d
.LBB66_10:
	movq	(%r8,%r10,8), %rax
	testq	%rax, %rax
	je	.LBB66_12
	cmpq	%rcx, 24(%rax)
	je	.LBB66_16
.LBB66_12:
	incq	%r10
	cmpq	$431, %r10
	jb	.LBB66_14
	xorl	%r10d, %r10d
.LBB66_14:
	testq	%rdx, %rdx
	je	.LBB66_15
	movq	(%r8,%r10,8), %rax
	testq	%rax, %rax
	je	.LBB66_19
	cmpq	%rcx, 24(%rax)
	je	.LBB66_16
.LBB66_19:
	incq	%r10
	cmpq	$431, %r10
	jb	.LBB66_21
	xorl	%r10d, %r10d
	jmp	.LBB66_21
.LBB66_22:
	leaq	".Lggv$fmt::fmt_union$8"(%rip), %rcx
	jmp	"runtime::print_string"
.LBB66_15:
	movq	%r9, %rax
.LBB66_16:
	movq	%rax, %rcx
	jmp	"runtime::print_type"

	.def	"main::render_brush";
	.scl	3;
	.type	32;
	.endef
	.globl	__real@400cc000
	.section	.rdata,"dr",discard,__real@400cc000
	.p2align	2, 0x0
__real@400cc000:
	.long	0x400cc000
	.globl	__real@40800000
	.section	.rdata,"dr",discard,__real@40800000
	.p2align	2, 0x0
__real@40800000:
	.long	0x40800000
	.globl	__real@3f000000
	.section	.rdata,"dr",discard,__real@3f000000
	.p2align	2, 0x0
__real@3f000000:
	.long	0x3f000000
	.globl	__real@bf000000
	.section	.rdata,"dr",discard,__real@bf000000
	.p2align	2, 0x0
__real@bf000000:
	.long	0xbf000000
	.globl	__real@3f800000
	.section	.rdata,"dr",discard,__real@3f800000
	.p2align	2, 0x0
__real@3f800000:
	.long	0x3f800000
	.globl	__real@bf800000
	.section	.rdata,"dr",discard,__real@bf800000
	.p2align	2, 0x0
__real@bf800000:
	.long	0xbf800000
	.globl	__real@40400000
	.section	.rdata,"dr",discard,__real@40400000
	.p2align	2, 0x0
__real@40400000:
	.long	0x40400000
	.globl	__real@3e800000
	.section	.rdata,"dr",discard,__real@3e800000
	.p2align	2, 0x0
__real@3e800000:
	.long	0x3e800000
	.section	.rdata,"dr"
	.p2align	1, 0x0
.LCPI67_8:
	.short	0x3c00
	.globl	__real@80000000
	.section	.rdata,"dr",discard,__real@80000000
	.p2align	2, 0x0
__real@80000000:
	.long	0x80000000
	.globl	__real@00000000
	.section	.rdata,"dr",discard,__real@00000000
	.p2align	2, 0x0
__real@00000000:
	.long	0x00000000
	.text
	.p2align	4
"main::render_brush":
.seh_proc "main::render_brush"
	pushq	%r15
	.seh_pushreg %r15
	pushq	%r14
	.seh_pushreg %r14
	pushq	%r13
	.seh_pushreg %r13
	pushq	%r12
	.seh_pushreg %r12
	pushq	%rsi
	.seh_pushreg %rsi
	pushq	%rdi
	.seh_pushreg %rdi
	pushq	%rbp
	.seh_pushreg %rbp
	pushq	%rbx
	.seh_pushreg %rbx
	subq	$344, %rsp
	.seh_stackalloc 344
	vmovaps	%xmm15, 320(%rsp)
	.seh_savexmm %xmm15, 320
	vmovaps	%xmm14, 304(%rsp)
	.seh_savexmm %xmm14, 304
	vmovaps	%xmm13, 288(%rsp)
	.seh_savexmm %xmm13, 288
	vmovaps	%xmm12, 272(%rsp)
	.seh_savexmm %xmm12, 272
	vmovaps	%xmm11, 256(%rsp)
	.seh_savexmm %xmm11, 256
	vmovdqa	%xmm10, 240(%rsp)
	.seh_savexmm %xmm10, 240
	vmovaps	%xmm9, 224(%rsp)
	.seh_savexmm %xmm9, 224
	vmovaps	%xmm8, 208(%rsp)
	.seh_savexmm %xmm8, 208
	vmovaps	%xmm7, 192(%rsp)
	.seh_savexmm %xmm7, 192
	vmovaps	%xmm6, 176(%rsp)
	.seh_savexmm %xmm6, 176
	.seh_endprologue
	movq	%r9, %rbx
	movq	%r8, %rdi
	movq	%rdx, %rsi
	movq	%rcx, %r14
	movq	448(%rsp), %rax
	movq	%rax, %r15
	shrq	$32, %r15
	vmovd	%eax, %xmm8
	vcvtph2ps	%xmm8, %xmm0
	vmovss	__real@400cc000(%rip), %xmm6
	vmovaps	%xmm6, %xmm1
	callq	powf
	vcvtps2ph	$4, %xmm0, %xmm7
	vpshuflw	$85, %xmm8, %xmm0
	vcvtph2ps	%xmm0, %xmm0
	vmovaps	%xmm6, %xmm1
	callq	powf
	vcvtps2ph	$4, %xmm0, %xmm9
	vmovd	%r15d, %xmm0
	vcvtph2ps	%xmm0, %xmm0
	vmovaps	%xmm6, %xmm1
	callq	powf
	vcvtps2ph	$4, %xmm0, %xmm6
	vcvtph2ps	%xmm7, %xmm1
	vcvtph2ps	%xmm9, %xmm2
	vcvtph2ps	%xmm6, %xmm3
	movl	$0, 32(%rsp)
	movq	%rsi, %rcx
	callq	SDL_ClearSurface
	cmpq	$3, %r14
	ja	.LBB67_38
	vmovd	%xmm7, %eax
	vpinsrw	$0, %eax, %xmm0, %xmm8
	vmovd	%xmm9, %eax
	vpinsrw	$0, %eax, %xmm0, %xmm9
	vmovd	%xmm6, %eax
	vpinsrw	$0, %eax, %xmm0, %xmm10
	leaq	.LJTI67_0(%rip), %rax
	movslq	(%rax,%r14,4), %rcx
	addq	%rax, %rcx
	jmpq	*%rcx
.LBB67_2:
	movslq	8(%rsi), %rax
	movl	%eax, %edx
	shrl	$31, %edx
	addl	%eax, %edx
	sarl	%edx
	movl	%edi, %r9d
	shrl	$31, %r9d
	addl	%edi, %r9d
	sarl	%r9d
	movl	%edx, %ecx
	subl	%r9d, %ecx
	movslq	%ecx, %r15
	movslq	12(%rsi), %rcx
	movl	%ecx, %ebp
	shrl	$31, %ebp
	addl	%ecx, %ebp
	sarl	%ebp
	movl	%ebx, %r11d
	shrl	$31, %r11d
	addl	%ebx, %r11d
	sarl	%r11d
	movl	%ebp, %r8d
	subl	%r11d, %r8d
	movslq	%r8d, %r12
	movq	%r12, %r8
	negq	%r8
	movq	%r8, %r10
	sarq	$63, %r10
	andnq	%r8, %r10, %r14
	subq	%r15, %rax
	cmpq	%rax, %rdi
	cmovlq	%rdi, %rax
	movq	%r12, 64(%rsp)
	subq	%r12, %rcx
	cmpq	%rcx, %rbx
	cmovlq	%rbx, %rcx
	cmpq	%rcx, %r14
	jge	.LBB67_38
	movq	24(%rsi), %r12
	movslq	%r9d, %r8
	movslq	%r11d, %r10
	movq	%r15, %r9
	negq	%r9
	movq	%r9, %r11
	sarq	$63, %r11
	andnq	%r9, %r11, %r9
	imulq	%rdi, %rbx
	leaq	3(%rbx), %r11
	testq	%rbx, %rbx
	cmovnsq	%rbx, %r11
	sarq	$2, %r11
	movq	%rax, %rdi
	subq	%r9, %rdi
	movq	%rdi, 48(%rsp)
	leaq	1(%r9), %rdi
	movq	%rdi, 80(%rsp)
	movq	%r9, %rdi
	subq	%r8, %rdi
	imulq	%rdi, %rdi
	movq	%rdi, 72(%rsp)
	movq	%r12, %rdi
	leaq	(%r12,%r9,8), %r12
	leaq	(%r12,%r15,8), %r15
	movq	%r8, %r12
	negq	%r12
	movslq	%ebp, %r13
	addq	%r14, %r13
	movq	%r10, 56(%rsp)
	subq	%r10, %r13
	shlq	$3, %r13
	movslq	%edx, %rbp
	shlq	$3, %rbp
	shlq	$3, %r8
	subq	%r8, %rbp
	addq	%rdi, %rbp
	xorl	%edx, %edx
	jmp	.LBB67_4
	.p2align	4
.LBB67_9:
	incq	%r14
	addq	$8, %r13
	cmpq	%rcx, %r14
	je	.LBB67_38
.LBB67_4:
	cmpq	%r9, %rax
	jle	.LBB67_9
	movq	%r14, %r8
	subq	56(%rsp), %r8
	imulq	%r8, %r8
	movq	%r9, %r10
	testb	$1, 48(%rsp)
	je	.LBB67_7
	movq	64(%rsp), %r10
	addq	%r14, %r10
	movq	72(%rsp), %rdi
	addq	%r8, %rdi
	cmpq	%r11, %rdi
	movl	$15360, %edi
	cmovgl	%edx, %edi
	movslq	8(%rsi), %rbx
	imulq	%r10, %rbx
	vpextrw	$0, %xmm8, (%r15,%rbx,8)
	vpextrw	$0, %xmm9, 2(%r15,%rbx,8)
	vpextrw	$0, %xmm10, 4(%r15,%rbx,8)
	movw	%di, 6(%r15,%rbx,8)
	movq	80(%rsp), %r10
.LBB67_7:
	cmpq	80(%rsp), %rax
	je	.LBB67_9
	.p2align	4
.LBB67_8:
	leaq	(%r12,%r10), %rdi
	imulq	%rdi, %rdi
	addq	%r8, %rdi
	cmpq	%r11, %rdi
	movl	$15360, %edi
	cmovgl	%edx, %edi
	movslq	8(%rsi), %rbx
	imulq	%r13, %rbx
	addq	%rbp, %rbx
	vpextrw	$0, %xmm8, (%rbx,%r10,8)
	vpextrw	$0, %xmm9, 2(%rbx,%r10,8)
	vpextrw	$0, %xmm10, 4(%rbx,%r10,8)
	movw	%di, 6(%rbx,%r10,8)
	leaq	(%r12,%r10), %rdi
	incq	%rdi
	imulq	%rdi, %rdi
	addq	%r8, %rdi
	cmpq	%r11, %rdi
	movl	$15360, %edi
	cmovgl	%edx, %edi
	movslq	8(%rsi), %rbx
	imulq	%r13, %rbx
	addq	%rbp, %rbx
	vpextrw	$0, %xmm8, 8(%rbx,%r10,8)
	vpextrw	$0, %xmm9, 10(%rbx,%r10,8)
	vpextrw	$0, %xmm10, 12(%rbx,%r10,8)
	movw	%di, 14(%rbx,%r10,8)
	addq	$2, %r10
	cmpq	%r10, %rax
	jne	.LBB67_8
	jmp	.LBB67_9
.LBB67_18:
	movslq	8(%rsi), %rax
	movl	%eax, %ecx
	shrl	$31, %ecx
	addl	%eax, %ecx
	sarl	%ecx
	movl	%edi, %edx
	shrl	$31, %edx
	addl	%edi, %edx
	sarl	%edx
	subl	%edx, %ecx
	movslq	%ecx, %r14
	movslq	12(%rsi), %rcx
	movl	%ecx, %ebp
	shrl	$31, %ebp
	addl	%ecx, %ebp
	sarl	%ebp
	movl	%ebx, %r15d
	shrl	$31, %r15d
	addl	%ebx, %r15d
	sarl	%r15d
	movl	%ebp, %edx
	subl	%r15d, %edx
	movslq	%edx, %rdx
	subq	%rdx, %rcx
	negq	%rdx
	movq	%rdx, %r8
	sarq	$63, %r8
	andnq	%rdx, %r8, %rdx
	subq	%r14, %rax
	cmpq	%rax, %rdi
	cmovlq	%rdi, %rax
	cmpq	%rcx, %rbx
	cmovlq	%rbx, %rcx
	cmpq	%rcx, %rdx
	jge	.LBB67_38
	movq	24(%rsi), %r12
	negl	%r15d
	movq	%r14, %r8
	negq	%r8
	movq	%r8, %r9
	sarq	$63, %r9
	andnq	%r8, %r9, %r8
	movq	%rax, %r9
	subq	%r8, %r9
	movq	%r8, %r10
	subq	%rax, %r10
	movl	%eax, %r11d
	subb	%r8b, %r11b
	movzbl	%r11b, %r11d
	andl	$3, %r11d
	negq	%r11
	movslq	%r15d, %rbx
	movslq	%ebp, %rdi
	addq	%rbx, %rdi
	addq	%rdx, %rdi
	shlq	$3, %rdi
	leaq	(,%r14,8), %rbx
	leaq	(%rbx,%r8,8), %rbx
	addq	%r12, %rbx
	addq	$4, %rbx
	leaq	(%r12,%r14,8), %r14
	vpinsrw	$0, .LCPI67_8(%rip), %xmm0, %xmm0
	vpinsrw	$0, .LCPI67_8(%rip), %xmm0, %xmm1
	jmp	.LBB67_20
	.p2align	4
.LBB67_28:
	incq	%rdx
	addq	$8, %rdi
	cmpq	%rcx, %rdx
	je	.LBB67_38
.LBB67_20:
	cmpq	%rax, %r8
	jge	.LBB67_28
	movq	%r8, %r13
	testb	$3, %r9b
	je	.LBB67_25
	movq	%rbx, %r12
	xorl	%r15d, %r15d
	.p2align	4
.LBB67_23:
	movslq	8(%rsi), %r13
	imulq	%rdi, %r13
	vpextrw	$0, %xmm8, -4(%r12,%r13)
	vpextrw	$0, %xmm9, -2(%r12,%r13)
	vpextrw	$0, %xmm10, (%r12,%r13)
	vpextrw	$0, %xmm1, 2(%r12,%r13)
	decq	%r15
	addq	$8, %r12
	cmpq	%r15, %r11
	jne	.LBB67_23
	movq	%r8, %r13
	subq	%r15, %r13
.LBB67_25:
	cmpq	$-4, %r10
	ja	.LBB67_28
	leaq	(%r14,%r13,8), %r15
	movq	%rax, %r12
	subq	%r13, %r12
	xorl	%r13d, %r13d
	.p2align	4
.LBB67_27:
	movslq	8(%rsi), %rbp
	imulq	%rdi, %rbp
	addq	%r15, %rbp
	vpextrw	$0, %xmm8, (%rbp,%r13,8)
	vpextrw	$0, %xmm9, 2(%rbp,%r13,8)
	vpextrw	$0, %xmm10, 4(%rbp,%r13,8)
	vpextrw	$0, %xmm0, 6(%rbp,%r13,8)
	movslq	8(%rsi), %rbp
	imulq	%rdi, %rbp
	addq	%r15, %rbp
	vpextrw	$0, %xmm8, 8(%rbp,%r13,8)
	vpextrw	$0, %xmm9, 10(%rbp,%r13,8)
	vpextrw	$0, %xmm10, 12(%rbp,%r13,8)
	vpextrw	$0, %xmm0, 14(%rbp,%r13,8)
	movslq	8(%rsi), %rbp
	imulq	%rdi, %rbp
	addq	%r15, %rbp
	vpextrw	$0, %xmm8, 16(%rbp,%r13,8)
	vpextrw	$0, %xmm9, 18(%rbp,%r13,8)
	vpextrw	$0, %xmm10, 20(%rbp,%r13,8)
	vpextrw	$0, %xmm0, 22(%rbp,%r13,8)
	movslq	8(%rsi), %rbp
	imulq	%rdi, %rbp
	addq	%r15, %rbp
	vpextrw	$0, %xmm8, 24(%rbp,%r13,8)
	vpextrw	$0, %xmm9, 26(%rbp,%r13,8)
	vpextrw	$0, %xmm10, 28(%rbp,%r13,8)
	vpextrw	$0, %xmm0, 30(%rbp,%r13,8)
	addq	$4, %r13
	cmpq	%r13, %r12
	jne	.LBB67_27
	jmp	.LBB67_28
.LBB67_29:
	movq	24(%rsi), %r15
	movslq	8(%rsi), %r12
	movl	%r12d, %eax
	shrl	$31, %eax
	addl	%r12d, %eax
	sarl	%eax
	movl	%edi, %r14d
	shrl	$31, %r14d
	addl	%edi, %r14d
	sarl	%r14d
	movl	%eax, 108(%rsp)
	subl	%r14d, %eax
	movslq	%eax, %r8
	movq	%rbx, %rdx
	movslq	12(%rsi), %rbx
	movl	%ebx, %r13d
	shrl	$31, %r13d
	addl	%ebx, %r13d
	sarl	%r13d
	movl	%edx, %ebp
	shrl	$31, %ebp
	addl	%edx, %ebp
	sarl	%ebp
	movl	%r13d, %eax
	subl	%ebp, %eax
	cltq
	subq	%rax, %rbx
	negq	%rax
	movq	%rax, %rcx
	sarq	$63, %rcx
	andnq	%rax, %rcx, %rax
	movq	%rax, 48(%rsp)
	movq	%r8, 56(%rsp)
	subq	%r8, %r12
	cmpq	%r12, %rdi
	cmovlq	%rdi, %r12
	cmpq	%rbx, %rdx
	vcvtsi2ss	%rdi, %xmm4, %xmm0
	movq	%rdx, 80(%rsp)
	cmovlq	%rdx, %rbx
	vcvtps2ph	$4, %xmm0, %xmm0
	vcvtph2ps	%xmm0, %xmm0
	vmovss	__real@40800000(%rip), %xmm1
	vdivss	%xmm0, %xmm1, %xmm0
	vcvtps2ph	$4, %xmm0, %xmm0
	vcvtph2ps	%xmm0, %xmm0
	vmovd	__real@3f000000(%rip), %xmm1
	callq	fminf
	vcvtps2ph	$4, %xmm0, %xmm0
	vpextrw	$0, %xmm0, 46(%rsp)
	vpxor	%xmm0, %xmm0, %xmm0
	vmovdqa	%xmm0, 160(%rsp)
	vmovdqa	%xmm0, 144(%rsp)
	leaq	46(%rsp), %rax
	movq	%rax, 144(%rsp)
	movabsq	$-5094283991700234844, %rax
	movq	%rax, 152(%rsp)
	leaq	144(%rsp), %rax
	movq	%rax, 160(%rsp)
	movq	$1, 168(%rsp)
	leaq	".Lggv$main::render_brush_round_AA$1"(%rip), %rdx
	leaq	160(%rsp), %rcx
	movq	456(%rsp), %r8
	callq	"fmt::println"
	movq	%rbx, 72(%rsp)
	cmpq	%rbx, 48(%rsp)
	jge	.LBB67_38
	movslq	%r14d, %rax
	movslq	%ebp, %rdx
	movq	56(%rsp), %r8
	negq	%r8
	movq	%r8, %rcx
	sarq	$63, %rcx
	andnq	%r8, %rcx, %rcx
	movq	%rcx, 64(%rsp)
	vcvtsi2ssq	80(%rsp), %xmm4, %xmm0
	vcvtsi2ss	%rdi, %xmm4, %xmm1
	vmovss	__real@3f000000(%rip), %xmm2
	vmulss	%xmm2, %xmm1, %xmm1
	vmulss	%xmm2, %xmm0, %xmm0
	vcvtsi2ss	%r14d, %xmm4, %xmm2
	vmovss	%xmm2, 56(%rsp)
	vmovaps	%xmm0, 128(%rsp)
	vbroadcastss	%xmm0, %xmm0
	vmovaps	%xmm0, 112(%rsp)
	vmovaps	%xmm1, 80(%rsp)
	vbroadcastss	%xmm1, %xmm15
	movq	%rax, %rbx
	negq	%rbx
	movslq	%r13d, %r13
	addq	48(%rsp), %r13
	movq	%rdx, 96(%rsp)
	subq	%rdx, %r13
	shlq	$3, %r13
	movslq	108(%rsp), %rcx
	shlq	$3, %rcx
	shlq	$3, %rax
	subq	%rax, %rcx
	addq	%rcx, %r15
	vmovss	__real@3f800000(%rip), %xmm7
	vmovss	__real@bf800000(%rip), %xmm6
	vbroadcastss	__real@3f800000(%rip), %xmm11
	vbroadcastss	__real@40400000(%rip), %xmm12
	jmp	.LBB67_31
	.p2align	4
.LBB67_37:
	movq	48(%rsp), %rax
	incq	%rax
	addq	$8, %r13
	movq	%rax, 48(%rsp)
	cmpq	72(%rsp), %rax
	je	.LBB67_38
.LBB67_31:
	cmpq	%r12, 64(%rsp)
	jge	.LBB67_37
	movq	48(%rsp), %rbp
	vcvtsi2ss	%rbp, %xmm8, %xmm0
	vaddss	__real@3f000000(%rip), %xmm0, %xmm1
	vaddss	__real@bf000000(%rip), %xmm0, %xmm2
	subq	96(%rsp), %rbp
	imulq	%rbp, %rbp
	vsubss	128(%rsp), %xmm1, %xmm1
	vmulss	%xmm1, %xmm1, %xmm14
	vinsertps	$16, %xmm0, %xmm2, %xmm0
	vsubps	112(%rsp), %xmm0, %xmm0
	vmulps	%xmm0, %xmm0, %xmm13
	movq	64(%rsp), %r14
	jmp	.LBB67_33
	.p2align	4
.LBB67_35:
	vcvtsi2ss	%r14, %xmm8, %xmm0
	vaddss	__real@3f000000(%rip), %xmm0, %xmm1
	vpinsrw	$0, 46(%rsp), %xmm0, %xmm2
	vcvtph2ps	%xmm2, %xmm2
	vaddss	__real@bf000000(%rip), %xmm0, %xmm3
	vsubss	%xmm2, %xmm7, %xmm2
	vcvtps2ph	$4, %xmm2, %xmm2
	vcvtph2ps	%xmm2, %xmm2
	vaddss	%xmm6, %xmm2, %xmm2
	vsubss	80(%rsp), %xmm1, %xmm1
	vmulss	%xmm1, %xmm1, %xmm1
	vinsertps	$16, %xmm3, %xmm0, %xmm0
	vsubps	%xmm15, %xmm0, %xmm0
	vmulps	%xmm0, %xmm0, %xmm0
	vinsertps	$16, %xmm1, %xmm14, %xmm1
	vblendps	$2, %xmm13, %xmm0, %xmm3
	vaddps	%xmm3, %xmm1, %xmm1
	vsqrtps	%xmm1, %xmm1
	vdivps	%xmm15, %xmm1, %xmm1
	vbroadcastss	__real@bf800000(%rip), %xmm5
	vaddps	%xmm5, %xmm1, %xmm1
	vbroadcastss	%xmm2, %xmm2
	vdivps	%xmm2, %xmm1, %xmm1
	vxorps	%xmm4, %xmm4, %xmm4
	vmaxps	%xmm1, %xmm4, %xmm3
	vcmpordps	%xmm1, %xmm1, %xmm1
	vandps	%xmm3, %xmm1, %xmm1
	vminps	%xmm1, %xmm11, %xmm3
	vcmpunordps	%xmm1, %xmm1, %xmm1
	vblendvps	%xmm1, %xmm11, %xmm3, %xmm1
	vmulps	%xmm1, %xmm1, %xmm3
	vaddps	%xmm1, %xmm1, %xmm1
	vsubps	%xmm1, %xmm12, %xmm1
	vmulps	%xmm1, %xmm3, %xmm1
	vmovshdup	%xmm1, %xmm3
	vaddss	__real@00000000(%rip), %xmm3, %xmm3
	vaddss	%xmm3, %xmm1, %xmm1
	vaddps	%xmm0, %xmm13, %xmm0
	vsqrtps	%xmm0, %xmm0
	vdivps	%xmm15, %xmm0, %xmm0
	vaddps	%xmm5, %xmm0, %xmm0
	vdivps	%xmm2, %xmm0, %xmm0
	vmaxps	%xmm0, %xmm4, %xmm2
	vcmpordps	%xmm0, %xmm0, %xmm0
	vandps	%xmm2, %xmm0, %xmm0
	vminps	%xmm0, %xmm11, %xmm2
	vcmpunordps	%xmm0, %xmm0, %xmm0
	vblendvps	%xmm0, %xmm11, %xmm2, %xmm0
	vmulps	%xmm0, %xmm0, %xmm2
	vaddps	%xmm0, %xmm0, %xmm0
	vsubps	%xmm0, %xmm12, %xmm0
	vmulps	%xmm0, %xmm2, %xmm0
	vmovshdup	%xmm0, %xmm2
	vaddss	%xmm1, %xmm2, %xmm1
	vaddss	%xmm1, %xmm0, %xmm0
	vmulss	__real@3e800000(%rip), %xmm0, %xmm0
.LBB67_36:
	vcvtps2ph	$4, %xmm0, %xmm0
	vmovd	%xmm0, %eax
	vpinsrw	$0, %eax, %xmm0, %xmm0
	movslq	8(%rsi), %rax
	imulq	%r13, %rax
	addq	%r15, %rax
	vpextrw	$0, %xmm8, (%rax,%r14,8)
	vpextrw	$0, %xmm9, 2(%rax,%r14,8)
	vpextrw	$0, %xmm10, 4(%rax,%r14,8)
	vpextrw	$0, %xmm0, 6(%rax,%r14,8)
	incq	%r14
	cmpq	%r14, %r12
	je	.LBB67_37
.LBB67_33:
	cmpq	$13, %rdi
	jl	.LBB67_35
	leaq	(%rbx,%r14), %rax
	imulq	%rax, %rax
	addq	%rbp, %rax
	vcvtsi2ss	%rax, %xmm8, %xmm0
	vsqrtss	%xmm0, %xmm0, %xmm0
	vdivss	56(%rsp), %xmm0, %xmm0
	vcvtps2ph	$4, %xmm0, %xmm0
	vpinsrw	$0, 46(%rsp), %xmm0, %xmm1
	vcvtph2ps	%xmm1, %xmm1
	vsubss	%xmm1, %xmm7, %xmm1
	vcvtps2ph	$4, %xmm1, %xmm1
	vcvtph2ps	%xmm0, %xmm0
	vaddss	%xmm6, %xmm0, %xmm0
	vcvtps2ph	$4, %xmm0, %xmm0
	vcvtph2ps	%xmm1, %xmm1
	vaddss	%xmm6, %xmm1, %xmm1
	vcvtps2ph	$4, %xmm1, %xmm1
	vcvtph2ps	%xmm1, %xmm1
	vcvtph2ps	%xmm0, %xmm0
	vdivss	%xmm1, %xmm0, %xmm0
	vcvtps2ph	$4, %xmm0, %xmm0
	vcvtph2ps	%xmm0, %xmm0
	vxorps	%xmm1, %xmm1, %xmm1
	callq	fmaxf
	vcvtps2ph	$4, %xmm0, %xmm0
	vcvtph2ps	%xmm0, %xmm0
	vmovaps	%xmm7, %xmm1
	callq	fminf
	vcvtps2ph	$4, %xmm0, %xmm0
	vcvtph2ps	%xmm0, %xmm0
	vmulss	%xmm0, %xmm0, %xmm1
	vcvtps2ph	$4, %xmm1, %xmm1
	vaddss	%xmm0, %xmm0, %xmm0
	vcvtps2ph	$4, %xmm0, %xmm0
	vcvtph2ps	%xmm0, %xmm0
	vmovss	__real@40400000(%rip), %xmm2
	vsubss	%xmm0, %xmm2, %xmm0
	vcvtps2ph	$4, %xmm0, %xmm0
	vcvtph2ps	%xmm1, %xmm1
	vcvtph2ps	%xmm0, %xmm0
	vmulss	%xmm0, %xmm1, %xmm0
	jmp	.LBB67_36
.LBB67_10:
	movslq	8(%rsi), %r14
	movl	%r14d, %eax
	shrl	$31, %eax
	addl	%r14d, %eax
	sarl	%eax
	movl	%edi, %r8d
	shrl	$31, %r8d
	addl	%edi, %r8d
	sarl	%r8d
	movl	%eax, %ecx
	subl	%r8d, %ecx
	movslq	%ecx, %rcx
	movslq	12(%rsi), %r12
	movl	%r12d, %edx
	shrl	$31, %edx
	addl	%r12d, %edx
	sarl	%edx
	movl	%ebx, %r10d
	shrl	$31, %r10d
	addl	%ebx, %r10d
	sarl	%r10d
	movl	%edx, %r9d
	subl	%r10d, %r9d
	movslq	%r9d, %r13
	movq	%r13, %r9
	negq	%r9
	movq	%r9, %r11
	sarq	$63, %r11
	andnq	%r9, %r11, %r15
	subq	%rcx, %r14
	cmpq	%r14, %rdi
	cmovlq	%rdi, %r14
	movq	%r13, 96(%rsp)
	subq	%r13, %r12
	cmpq	%r12, %rbx
	cmovlq	%rbx, %r12
	movq	%r12, 56(%rsp)
	cmpq	%r12, %r15
	jge	.LBB67_38
	movq	24(%rsi), %r9
	movslq	%r8d, %r8
	movslq	%r10d, %rbx
	movq	%rcx, %r10
	negq	%r10
	movq	%r10, %r11
	sarq	$63, %r11
	andnq	%r10, %r11, %r10
	imulq	%rdi, %rdi
	shrq	$2, %rdi
	vcvtsi2ss	%rdi, %xmm4, %xmm7
	movq	%r14, %r11
	subq	%r10, %r11
	movq	%r11, 72(%rsp)
	leaq	1(%r10), %r11
	movq	%r11, 48(%rsp)
	movq	%r10, %r11
	subq	%r8, %r11
	imulq	%r11, %r11
	movq	%r11, 128(%rsp)
	movq	%r10, 80(%rsp)
	leaq	(%r9,%r10,8), %r10
	leaq	(%r10,%rcx,8), %rcx
	movq	%rcx, 112(%rsp)
	movq	%r8, %rdi
	negq	%rdi
	movslq	%edx, %r12
	addq	%r15, %r12
	movq	%rbx, 64(%rsp)
	subq	%rbx, %r12
	shlq	$3, %r12
	movslq	%eax, %rbx
	shlq	$3, %rbx
	shlq	$3, %r8
	subq	%r8, %rbx
	addq	%r9, %rbx
	vmovss	__real@bf800000(%rip), %xmm11
	vbroadcastss	__real@80000000(%rip), %xmm12
	vmovd	__real@3f800000(%rip), %xmm6
	vmovss	__real@40400000(%rip), %xmm13
	vbroadcastss	__real@80000000(%rip), %xmm14
	jmp	.LBB67_12
	.p2align	4
.LBB67_17:
	incq	%r15
	addq	$8, %r12
	cmpq	56(%rsp), %r15
	je	.LBB67_38
.LBB67_12:
	cmpq	80(%rsp), %r14
	jle	.LBB67_17
	movq	%r15, %r13
	subq	64(%rsp), %r13
	imulq	%r13, %r13
	movq	80(%rsp), %rbp
	testb	$1, 72(%rsp)
	je	.LBB67_15
	movq	128(%rsp), %rax
	addq	%r13, %rax
	vcvtsi2ss	%rax, %xmm4, %xmm0
	vdivss	%xmm7, %xmm0, %xmm0
	vcvtps2ph	$4, %xmm0, %xmm0
	vcvtph2ps	%xmm0, %xmm0
	vaddss	%xmm0, %xmm11, %xmm0
	vcvtps2ph	$4, %xmm0, %xmm0
	movq	96(%rsp), %rax
	leaq	(%r15,%rax), %rbp
	vcvtph2ps	%xmm0, %xmm0
	vxorps	%xmm0, %xmm14, %xmm0
	vcvtps2ph	$4, %xmm0, %xmm0
	vcvtph2ps	%xmm0, %xmm0
	vxorps	%xmm1, %xmm1, %xmm1
	callq	fmaxf
	vcvtps2ph	$4, %xmm0, %xmm0
	vcvtph2ps	%xmm0, %xmm0
	vmovdqa	%xmm6, %xmm1
	callq	fminf
	vcvtps2ph	$4, %xmm0, %xmm0
	vcvtph2ps	%xmm0, %xmm0
	vmulss	%xmm0, %xmm0, %xmm1
	vcvtps2ph	$4, %xmm1, %xmm1
	vaddss	%xmm0, %xmm0, %xmm0
	vcvtps2ph	$4, %xmm0, %xmm0
	vcvtph2ps	%xmm0, %xmm0
	vsubss	%xmm0, %xmm13, %xmm0
	vcvtps2ph	$4, %xmm0, %xmm0
	vcvtph2ps	%xmm1, %xmm1
	vcvtph2ps	%xmm0, %xmm0
	vmulss	%xmm0, %xmm1, %xmm0
	vcvtps2ph	$4, %xmm0, %xmm0
	movslq	8(%rsi), %rax
	imulq	%rbp, %rax
	movq	112(%rsp), %rcx
	vpextrw	$0, %xmm8, (%rcx,%rax,8)
	vpextrw	$0, %xmm9, 2(%rcx,%rax,8)
	vpextrw	$0, %xmm10, 4(%rcx,%rax,8)
	vpextrw	$0, %xmm0, 6(%rcx,%rax,8)
	movq	48(%rsp), %rbp
.LBB67_15:
	cmpq	48(%rsp), %r14
	je	.LBB67_17
	.p2align	4
.LBB67_16:
	leaq	(%rdi,%rbp), %rax
	imulq	%rax, %rax
	addq	%r13, %rax
	vcvtsi2ss	%rax, %xmm4, %xmm0
	vdivss	%xmm7, %xmm0, %xmm0
	vcvtps2ph	$4, %xmm0, %xmm0
	vcvtph2ps	%xmm0, %xmm0
	vaddss	%xmm0, %xmm11, %xmm0
	vcvtps2ph	$4, %xmm0, %xmm0
	vcvtph2ps	%xmm0, %xmm0
	vxorps	%xmm0, %xmm12, %xmm0
	vcvtps2ph	$4, %xmm0, %xmm0
	vcvtph2ps	%xmm0, %xmm0
	vxorps	%xmm1, %xmm1, %xmm1
	callq	fmaxf
	vcvtps2ph	$4, %xmm0, %xmm0
	vcvtph2ps	%xmm0, %xmm0
	vmovdqa	%xmm6, %xmm1
	callq	fminf
	vcvtps2ph	$4, %xmm0, %xmm0
	vcvtph2ps	%xmm0, %xmm0
	vmulss	%xmm0, %xmm0, %xmm1
	vcvtps2ph	$4, %xmm1, %xmm1
	vaddss	%xmm0, %xmm0, %xmm0
	vcvtps2ph	$4, %xmm0, %xmm0
	vcvtph2ps	%xmm0, %xmm0
	vsubss	%xmm0, %xmm13, %xmm0
	vcvtps2ph	$4, %xmm0, %xmm0
	vcvtph2ps	%xmm1, %xmm1
	vcvtph2ps	%xmm0, %xmm0
	vmulss	%xmm0, %xmm1, %xmm0
	vcvtps2ph	$4, %xmm0, %xmm0
	movslq	8(%rsi), %rax
	imulq	%r12, %rax
	addq	%rbx, %rax
	vpextrw	$0, %xmm8, (%rax,%rbp,8)
	vpextrw	$0, %xmm9, 2(%rax,%rbp,8)
	vpextrw	$0, %xmm10, 4(%rax,%rbp,8)
	vpextrw	$0, %xmm0, 6(%rax,%rbp,8)
	leaq	(%rdi,%rbp), %rax
	incq	%rax
	imulq	%rax, %rax
	addq	%r13, %rax
	vcvtsi2ss	%rax, %xmm2, %xmm0
	vdivss	%xmm7, %xmm0, %xmm0
	vcvtps2ph	$4, %xmm0, %xmm0
	vcvtph2ps	%xmm0, %xmm0
	vaddss	%xmm0, %xmm11, %xmm0
	vcvtps2ph	$4, %xmm0, %xmm0
	vcvtph2ps	%xmm0, %xmm0
	vxorps	%xmm0, %xmm12, %xmm0
	vcvtps2ph	$4, %xmm0, %xmm0
	vcvtph2ps	%xmm0, %xmm0
	vxorps	%xmm1, %xmm1, %xmm1
	callq	fmaxf
	vcvtps2ph	$4, %xmm0, %xmm0
	vcvtph2ps	%xmm0, %xmm0
	vmovdqa	%xmm6, %xmm1
	callq	fminf
	vcvtps2ph	$4, %xmm0, %xmm0
	vcvtph2ps	%xmm0, %xmm0
	vmulss	%xmm0, %xmm0, %xmm1
	vcvtps2ph	$4, %xmm1, %xmm1
	vaddss	%xmm0, %xmm0, %xmm0
	vcvtps2ph	$4, %xmm0, %xmm0
	vcvtph2ps	%xmm0, %xmm0
	vsubss	%xmm0, %xmm13, %xmm0
	vcvtps2ph	$4, %xmm0, %xmm0
	vcvtph2ps	%xmm1, %xmm1
	vcvtph2ps	%xmm0, %xmm0
	vmulss	%xmm0, %xmm1, %xmm0
	vcvtps2ph	$4, %xmm0, %xmm0
	movslq	8(%rsi), %rax
	imulq	%r12, %rax
	addq	%rbx, %rax
	vpextrw	$0, %xmm8, 8(%rax,%rbp,8)
	vpextrw	$0, %xmm9, 10(%rax,%rbp,8)
	vpextrw	$0, %xmm10, 12(%rax,%rbp,8)
	vpextrw	$0, %xmm0, 14(%rax,%rbp,8)
	addq	$2, %rbp
	cmpq	%rbp, %r14
	jne	.LBB67_16
	jmp	.LBB67_17
.LBB67_38:
	vmovaps	176(%rsp), %xmm6
	vmovaps	192(%rsp), %xmm7
	vmovaps	208(%rsp), %xmm8
	vmovaps	224(%rsp), %xmm9
	vmovaps	240(%rsp), %xmm10
	vmovaps	256(%rsp), %xmm11
	vmovaps	272(%rsp), %xmm12
	vmovaps	288(%rsp), %xmm13
	vmovaps	304(%rsp), %xmm14
	vmovaps	320(%rsp), %xmm15
	addq	$344, %rsp
	popq	%rbx
	popq	%rbp
	popq	%rdi
	popq	%rsi
	popq	%r12
	popq	%r13
	popq	%r14
	popq	%r15
	retq
	.section	.rdata,"dr"
	.p2align	2, 0x0
.LJTI67_0:
	.long	.LBB67_2-.LJTI67_0
	.long	.LBB67_10-.LJTI67_0
	.long	.LBB67_18-.LJTI67_0
	.long	.LBB67_29-.LJTI67_0
	.text
	.seh_endproc

	.def	"runtime::print_type";
	.scl	3;
	.type	32;
	.endef
"runtime::print_type":
.seh_proc "runtime::print_type"
	pushq	%r15
	.seh_pushreg %r15
	pushq	%r14
	.seh_pushreg %r14
	pushq	%r13
	.seh_pushreg %r13
	pushq	%r12
	.seh_pushreg %r12
	pushq	%rsi
	.seh_pushreg %rsi
	pushq	%rdi
	.seh_pushreg %rdi
	pushq	%rbp
	.seh_pushreg %rbp
	pushq	%rbx
	.seh_pushreg %rbx
	subq	$184, %rsp
	.seh_stackalloc 184
	.seh_endprologue
	testq	%rcx, %rcx
	je	.LBB68_41
	movq	%rcx, %rsi
	leaq	.LJTI68_0(%rip), %rbx
	movabsq	$9223372036854775807, %r12
.LBB68_2:
	movq	104(%rsi), %rcx
	decq	%rcx
	cmpq	$26, %rcx
	ja	.LBB68_83
	leaq	32(%rsi), %rax
	movslq	(%rbx,%rcx,4), %rcx
	addq	%rbx, %rcx
	jmpq	*%rcx
.LBB68_4:
	movq	(%rax), %rsi
	movq	%rsi, 48(%rsp)
	testq	%rsi, %rsi
	je	.LBB68_101
	leaq	".Lggv$reflect::write_type_writer$18"(%rip), %rcx
	jmp	.LBB68_35
.LBB68_6:
	movq	(%rax), %rsi
	movq	%rsi, 48(%rsp)
	leaq	".Lggv$reflect::write_type_writer$20"(%rip), %rcx
	jmp	.LBB68_35
.LBB68_7:
	movq	16(%rax), %rcx
	movq	%rcx, 64(%rsp)
	vmovups	(%rax), %xmm0
	vmovaps	%xmm0, 48(%rsp)
	leaq	".Lggv$reflect::write_type_writer$40"(%rip), %rcx
	callq	"runtime::print_string"
	movq	48(%rsp), %rcx
	callq	"runtime::print_type"
	movb	$93, %cl
	callq	"runtime::print_byte"
	movq	56(%rsp), %rsi
	jmp	.LBB68_36
.LBB68_8:
	vmovups	(%rax), %xmm0
	vmovaps	%xmm0, 48(%rsp)
	leaq	".Lggv$reflect::write_type_writer$39"(%rip), %rcx
	jmp	.LBB68_27
.LBB68_9:
	movq	16(%rax), %rcx
	movq	%rcx, 64(%rsp)
	vmovups	(%rax), %xmm0
	vmovaps	%xmm0, 48(%rsp)
	leaq	".Lggv$reflect::write_type_writer$21"(%rip), %rcx
	callq	"runtime::print_string"
	movq	48(%rsp), %rax
	testq	%rax, %rax
	je	.LBB68_32
	cmpq	$18, 104(%rax)
	jne	.LBB68_130
	movq	32(%rax), %r14
	movq	40(%rax), %r15
	movb	$40, %cl
	callq	"runtime::print_byte"
	leaq	".Lggv$fmt::fmt_enum$3"(%rip), %rsi
	testq	%r15, %r15
	jle	.LBB68_33
	negq	%r15
	movq	$-1, %r13
.LBB68_13:
	movq	8(%r14,%r13,8), %rdi
	cmpq	%r12, %r13
	jae	.LBB68_15
	leaq	".Lggv$fmt::fmt_value$11"(%rip), %rcx
	callq	"runtime::print_string"
.LBB68_15:
	movq	%rdi, %rcx
	callq	"runtime::print_type"
	leaq	(%r15,%r13), %rax
	incq	%rax
	incq	%r13
	cmpq	$-1, %rax
	jne	.LBB68_13
	jmp	.LBB68_33
.LBB68_16:
	vmovups	(%rax), %xmm0
	vmovaps	%xmm0, 48(%rsp)
	leaq	".Lggv$reflect::write_type_writer$38"(%rip), %rcx
	jmp	.LBB68_27
.LBB68_17:
	vmovups	(%rax), %ymm0
	vmovups	24(%rax), %ymm1
	vmovups	%ymm1, 72(%rsp)
	vmovups	%ymm0, 48(%rsp)
	cmpb	$0, 96(%rsp)
	je	.LBB68_19
	leaq	".Lggv$reflect::write_type_writer$35"(%rip), %rcx
	vzeroupper
	callq	"runtime::print_string"
.LBB68_19:
	movb	$91, %cl
	vzeroupper
	callq	"runtime::print_byte"
	movq	56(%rsp), %rcx
	callq	"runtime::print_type"
	jmp	.LBB68_31
.LBB68_20:
	vmovups	(%rax), %ymm0
	vmovups	32(%rax), %ymm1
	vmovups	%ymm1, 80(%rsp)
	movq	64(%rax), %rax
	movq	%rax, 112(%rsp)
	vmovups	%ymm0, 48(%rsp)
	movzbl	93(%rsp), %eax
	cmpl	$3, %eax
	je	.LBB68_38
	cmpl	$2, %eax
	je	.LBB68_37
	cmpl	$1, %eax
	jne	.LBB68_108
	leaq	".Lggv$reflect::write_type_writer$41"(%rip), %rcx
	vzeroupper
	callq	"runtime::print_string"
	movslq	96(%rsp), %rcx
	callq	"runtime::print_u64"
	movb	$93, %cl
	callq	"runtime::print_byte"
	jmp	.LBB68_40
.LBB68_24:
	movq	(%rax), %rsi
	movq	%rsi, 48(%rsp)
	leaq	".Lggv$reflect::write_type_writer$19"(%rip), %rcx
	jmp	.LBB68_35
.LBB68_25:
	movq	16(%rax), %rcx
	movq	%rcx, 64(%rsp)
	vmovups	(%rax), %xmm0
	vmovaps	%xmm0, 48(%rsp)
	movb	$91, %cl
	callq	"runtime::print_byte"
	jmp	.LBB68_30
.LBB68_26:
	vmovups	(%rax), %ymm0
	vmovups	16(%rax), %ymm1
	vmovups	%ymm1, 64(%rsp)
	vmovups	%ymm0, 48(%rsp)
	leaq	".Lggv$reflect::write_type_writer$75"(%rip), %rcx
	vzeroupper
	callq	"runtime::print_string"
	movq	72(%rsp), %rcx
	callq	"runtime::print_u64"
	leaq	".Lggv$runtime::print_type$65"(%rip), %rcx
	callq	"runtime::print_string"
	movq	80(%rsp), %rcx
	callq	"runtime::print_u64"
	leaq	".Lggv$reflect::write_type_writer$77"(%rip), %rcx
.LBB68_27:
	callq	"runtime::print_string"
	jmp	.LBB68_28
.LBB68_29:
	movq	16(%rax), %rcx
	movq	%rcx, 64(%rsp)
	vmovups	(%rax), %xmm0
	vmovaps	%xmm0, 48(%rsp)
	leaq	".Lggv$reflect::write_type_writer$73"(%rip), %rcx
	callq	"runtime::print_string"
.LBB68_30:
	movq	64(%rsp), %rcx
	callq	"runtime::print_u64"
.LBB68_31:
	movb	$93, %cl
	callq	"runtime::print_byte"
.LBB68_28:
	movq	48(%rsp), %rsi
	jmp	.LBB68_36
.LBB68_32:
	leaq	".Lggv$reflect::write_type_writer$22"(%rip), %rsi
.LBB68_33:
	movq	%rsi, %rcx
	callq	"runtime::print_string"
	movq	56(%rsp), %rsi
	testq	%rsi, %rsi
	je	.LBB68_83
	leaq	".Lggv$reflect::write_type_writer$27"(%rip), %rcx
.LBB68_35:
	callq	"runtime::print_string"
	jmp	.LBB68_36
.LBB68_37:
	leaq	".Lggv$reflect::write_type_writer$42"(%rip), %rcx
	jmp	.LBB68_39
.LBB68_38:
	leaq	".Lggv$reflect::write_type_writer$43"(%rip), %rcx
.LBB68_39:
	vzeroupper
	callq	"runtime::print_string"
.LBB68_40:
	movq	104(%rsp), %rsi
.LBB68_36:
	testq	%rsi, %rsi
	jne	.LBB68_2
.LBB68_41:
	leaq	".Lggv$runtime::print_type$1"(%rip), %rcx
.LBB68_42:
	addq	$184, %rsp
	popq	%rbx
	popq	%rbp
	popq	%rdi
	popq	%rsi
	popq	%r12
	popq	%r13
	popq	%r14
	popq	%r15
	jmp	"runtime::print_string"
.LBB68_43:
	vmovups	(%rax), %ymm0
	vmovups	%ymm0, 48(%rsp)
	leaq	".Lggv$reflect::write_type_writer$62"(%rip), %rcx
	vzeroupper
	callq	"runtime::print_string"
	movq	48(%rsp), %rcx
	movq	104(%rcx), %rax
	cmpq	$1, %rax
	jne	.LBB68_46
	movq	%rcx, %rdx
.LBB68_45:
	movq	48(%rdx), %rdx
	movq	104(%rdx), %rax
	cmpq	$1, %rax
	je	.LBB68_45
.LBB68_46:
	cmpq	$3, %rax
	je	.LBB68_103
	cmpq	$21, %rax
	jne	.LBB68_104
	callq	"runtime::print_type"
	jmp	.LBB68_105
.LBB68_49:
	movq	32(%rax), %rcx
	movq	%rcx, 80(%rsp)
	vmovups	(%rax), %ymm0
	vmovups	%ymm0, 48(%rsp)
	leaq	".Lggv$reflect::write_type_writer$59"(%rip), %rcx
	vzeroupper
	callq	"runtime::print_string"
	movq	48(%rsp), %rcx
	callq	"runtime::print_type"
	leaq	".Lggv$reflect::write_type_writer$67"(%rip), %rcx
	callq	"runtime::print_string"
	movq	64(%rsp), %rbx
	testq	%rbx, %rbx
	jle	.LBB68_54
	movabsq	$9223372036854775807, %r14
	movq	56(%rsp), %r15
	negq	%rbx
	addq	$8, %r15
	movq	$-1, %r12
	leaq	".Lggv$runtime::print_type$51"(%rip), %rsi
	leaq	152(%rsp), %rdi
.LBB68_51:
	vmovups	-8(%r15), %xmm0
	vmovups	%xmm0, 152(%rsp)
	cmpq	%r14, %r12
	jae	.LBB68_53
	movq	%rsi, %rcx
	callq	"runtime::print_string"
.LBB68_53:
	movq	%rdi, %rcx
	callq	"runtime::print_string"
	leaq	(%rbx,%r12), %rax
	incq	%rax
	incq	%r12
	addq	$16, %r15
	cmpq	$-1, %rax
	jne	.LBB68_51
.LBB68_54:
	leaq	".Lggv$runtime::print_type$52"(%rip), %rcx
	jmp	.LBB68_42
.LBB68_55:
	vmovups	(%rax), %ymm0
	vmovups	24(%rax), %ymm1
	vmovups	%ymm1, 72(%rsp)
	vmovups	%ymm0, 48(%rsp)
	leaq	".Lggv$reflect::write_type_writer$66"(%rip), %rcx
	vzeroupper
	callq	"runtime::print_string"
	movq	48(%rsp), %rcx
	callq	"runtime::print_type"
	leaq	".Lggv$runtime::print_type$58"(%rip), %rcx
	callq	"runtime::print_string"
	movq	96(%rsp), %r15
	testq	%r15, %r15
	js	.LBB68_131
	je	.LBB68_122
	movq	56(%rsp), %r12
	movq	64(%rsp), %rbp
	movq	72(%rsp), %rsi
	negq	%r15
	addq	$8, %r12
	movq	$-1, %r13
	leaq	136(%rsp), %rdi
	leaq	".Lggv$runtime::print_type$61"(%rip), %rbx
	leaq	".Lggv$reflect::write_type_writer$71"(%rip), %r14
.LBB68_58:
	vmovups	-8(%r12), %xmm0
	vmovups	%xmm0, 136(%rsp)
	movabsq	$9223372036854775807, %rax
	cmpq	%rax, %r13
	jae	.LBB68_60
	leaq	".Lggv$runtime::print_type$60"(%rip), %rcx
	callq	"runtime::print_string"
.LBB68_60:
	movq	%rdi, %rcx
	callq	"runtime::print_string"
	movq	%rbx, %rcx
	callq	"runtime::print_string"
	movq	8(%rbp,%r13,8), %rcx
	callq	"runtime::print_type"
	movq	%r14, %rcx
	callq	"runtime::print_string"
	movq	8(%rsi,%r13,8), %rcx
	callq	"runtime::print_u64"
	leaq	(%r15,%r13), %rax
	incq	%rax
	incq	%r13
	addq	$16, %r12
	cmpq	$-1, %rax
	je	.LBB68_122
	jmp	.LBB68_58
.LBB68_61:
	leaq	".Lggv$reflect::write_type_writer$7"(%rip), %rcx
	jmp	.LBB68_42
.LBB68_62:
	leaq	".Lggv$reflect::write_type_writer$16"(%rip), %rcx
	jmp	.LBB68_42
.LBB68_63:
	vmovups	(%rax), %ymm0
	vmovups	%ymm0, 48(%rsp)
	movq	72(%rsp), %r12
	cmpq	$1, %r12
	je	.LBB68_65
	movb	$40, %cl
	vzeroupper
	callq	"runtime::print_byte"
	testq	%r12, %r12
	jle	.LBB68_73
.LBB68_65:
	movabsq	$9223372036854775807, %rbp
	movq	64(%rsp), %rdi
	movq	48(%rsp), %rbx
	movq	56(%rsp), %r13
	addq	$8, %rdi
	xorl	%esi, %esi
.LBB68_66:
	leaq	-1(%rsi), %rax
	movq	-8(%rdi), %rcx
	movq	(%rdi), %r14
	movq	%rcx, 120(%rsp)
	movq	%r14, 128(%rsp)
	cmpq	%rbp, %rax
	jae	.LBB68_68
	leaq	".Lggv$runtime::print_type$23"(%rip), %rcx
	vzeroupper
	callq	"runtime::print_string"
.LBB68_68:
	cmpq	%r13, %rsi
	jae	.LBB68_129
	movq	(%rbx,%rsi,8), %r15
	testq	%r14, %r14
	jle	.LBB68_71
	leaq	120(%rsp), %rcx
	vzeroupper
	callq	"runtime::print_string"
	leaq	".Lggv$reflect::write_type_writer$70"(%rip), %rcx
	callq	"runtime::print_string"
.LBB68_71:
	movq	%r15, %rcx
	vzeroupper
	callq	"runtime::print_type"
	incq	%rsi
	addq	$16, %rdi
	cmpq	%rsi, %r12
	jne	.LBB68_66
	cmpq	$1, %r12
	je	.LBB68_83
.LBB68_73:
	leaq	".Lggv$runtime::print_type$26"(%rip), %rcx
	jmp	.LBB68_42
.LBB68_74:
	leaq	".Lggv$reflect::write_type_writer$10"(%rip), %rcx
	jmp	.LBB68_77
.LBB68_75:
	movb	32(%rsi), %al
	movb	%al, 48(%rsp)
	movb	$102, %cl
	jmp	.LBB68_127
.LBB68_76:
	leaq	".Lggv$reflect::write_type_writer$11"(%rip), %rcx
.LBB68_77:
	callq	"runtime::print_string"
	jmp	.LBB68_128
.LBB68_78:
	vmovups	(%rax), %ymm0
	vmovups	16(%rax), %ymm1
	leaq	48(%rsp), %rcx
	vmovups	%ymm1, 16(%rcx)
	vmovups	%ymm0, (%rcx)
	vzeroupper
	callq	"runtime::print_string"
	jmp	.LBB68_83
.LBB68_79:
	movzwl	(%rax), %esi
	testb	%sil, %sil
	je	.LBB68_81
	movb	$99, %cl
	callq	"runtime::print_byte"
.LBB68_81:
	leaq	".Lggv$reflect::write_type_writer$12"(%rip), %rcx
	callq	"runtime::print_string"
	andl	$65280, %esi
	cmpl	$256, %esi
	jne	.LBB68_83
	leaq	".Lggv$reflect::write_type_writer$13"(%rip), %rcx
	jmp	.LBB68_42
.LBB68_83:
	addq	$184, %rsp
	popq	%rbx
	popq	%rbp
	popq	%rdi
	popq	%rsi
	popq	%r12
	popq	%r13
	popq	%r14
	popq	%r15
	retq
.LBB68_84:
	leaq	".Lggv$reflect::write_type_writer$15"(%rip), %rcx
	jmp	.LBB68_42
.LBB68_85:
	movzwl	32(%rsi), %eax
	movw	%ax, 48(%rsp)
	movq	24(%rsi), %rcx
	movabsq	$-6857881182832595735, %rdx
	cmpq	%rdx, %rcx
	je	.LBB68_125
	movabsq	$-7020262207686496998, %rdx
	cmpq	%rdx, %rcx
	je	.LBB68_124
	movabsq	$-7606200713319706250, %rdx
	cmpq	%rdx, %rcx
	jne	.LBB68_126
	leaq	".Lggv$reflect::write_type_writer$2"(%rip), %rcx
	jmp	.LBB68_42
.LBB68_89:
	movabsq	$3210247593019005365, %rax
	cmpq	%rax, 24(%rsi)
	jne	.LBB68_102
	leaq	".Lggv$reflect::write_type_writer$14"(%rip), %rcx
	jmp	.LBB68_42
.LBB68_91:
	vmovups	(%rax), %ymm0
	vmovups	16(%rax), %ymm1
	vmovups	%ymm1, 64(%rsp)
	vmovups	%ymm0, 48(%rsp)
	leaq	".Lggv$reflect::write_type_writer$53"(%rip), %rcx
	vzeroupper
	callq	"runtime::print_string"
	cmpb	$0, 88(%rsp)
	je	.LBB68_93
	leaq	".Lggv$runtime::print_type$44"(%rip), %rcx
	callq	"runtime::print_string"
	movq	8(%rsi), %rcx
	callq	"runtime::print_u64"
	leaq	".Lggv$runtime::print_type$45"(%rip), %rcx
	callq	"runtime::print_string"
.LBB68_93:
	cmpb	$0, 89(%rsp)
	je	.LBB68_95
	leaq	".Lggv$reflect::write_type_writer$54"(%rip), %rcx
	callq	"runtime::print_string"
.LBB68_95:
	movb	$123, %cl
	callq	"runtime::print_byte"
	movq	56(%rsp), %rbx
	testq	%rbx, %rbx
	jle	.LBB68_100
	movabsq	$9223372036854775807, %r14
	movq	48(%rsp), %r15
	negq	%rbx
	movq	$-1, %r12
	leaq	".Lggv$runtime::print_type$47"(%rip), %rsi
.LBB68_97:
	movq	8(%r15,%r12,8), %rdi
	cmpq	%r14, %r12
	jae	.LBB68_99
	movq	%rsi, %rcx
	callq	"runtime::print_string"
.LBB68_99:
	movq	%rdi, %rcx
	callq	"runtime::print_type"
	leaq	(%rbx,%r12), %rax
	incq	%rax
	incq	%r12
	cmpq	$-1, %rax
	jne	.LBB68_97
.LBB68_100:
	leaq	".Lggv$fmt::fmt_soa_pointer$3"(%rip), %rcx
	jmp	.LBB68_42
.LBB68_101:
	leaq	".Lggv$reflect::write_type_writer$17"(%rip), %rcx
	jmp	.LBB68_42
.LBB68_102:
	movb	$98, %cl
	jmp	.LBB68_127
.LBB68_103:
	movl	64(%rsp), %ecx
	callq	"runtime::print_encoded_rune"
	leaq	".Lggv$runtime::print_type$54"(%rip), %rcx
	callq	"runtime::print_string"
	movl	72(%rsp), %ecx
	callq	"runtime::print_encoded_rune"
	jmp	.LBB68_105
.LBB68_104:
	movq	64(%rsp), %rcx
	callq	"runtime::print_i64"
	leaq	".Lggv$runtime::print_type$55"(%rip), %rcx
	callq	"runtime::print_string"
	movq	72(%rsp), %rcx
	callq	"runtime::print_i64"
.LBB68_105:
	movq	56(%rsp), %rsi
	testq	%rsi, %rsi
	je	.LBB68_107
	leaq	".Lggv$reflect::write_type_writer$65"(%rip), %rcx
	callq	"runtime::print_string"
	movq	%rsi, %rcx
	callq	"runtime::print_type"
.LBB68_107:
	movb	$93, %cl
	jmp	.LBB68_123
.LBB68_108:
	leaq	".Lggv$reflect::write_type_writer$44"(%rip), %rcx
	vzeroupper
	callq	"runtime::print_string"
	movb	92(%rsp), %bl
	testb	$1, %bl
	je	.LBB68_110
	leaq	".Lggv$reflect::write_type_writer$45"(%rip), %rcx
	callq	"runtime::print_string"
.LBB68_110:
	testb	$2, %bl
	je	.LBB68_112
	leaq	".Lggv$reflect::write_type_writer$46"(%rip), %rcx
	callq	"runtime::print_string"
.LBB68_112:
	testb	$4, %bl
	je	.LBB68_114
	leaq	".Lggv$reflect::write_type_writer$47"(%rip), %rcx
	callq	"runtime::print_string"
.LBB68_114:
	testb	$8, %bl
	je	.LBB68_116
	leaq	".Lggv$reflect::write_type_writer$56"(%rip), %rcx
	callq	"runtime::print_string"
	movq	8(%rsi), %rcx
	callq	"runtime::print_u64"
	leaq	".Lggv$reflect::write_type_writer$57"(%rip), %rcx
	callq	"runtime::print_string"
.LBB68_116:
	movb	$123, %cl
	callq	"runtime::print_byte"
	movslq	88(%rsp), %r14
	testq	%r14, %r14
	js	.LBB68_132
	testl	%r14d, %r14d
	je	.LBB68_122
	movq	56(%rsp), %r15
	movabsq	$9223372036854775807, %r12
	movq	48(%rsp), %r13
	negq	%r14
	addq	$8, %r15
	movq	$-1, %rbp
	leaq	".Lggv$runtime::print_type$41"(%rip), %rsi
	leaq	168(%rsp), %rdi
	leaq	".Lggv$runtime::print_type$42"(%rip), %rbx
.LBB68_119:
	vmovups	-8(%r15), %xmm0
	vmovups	%xmm0, 168(%rsp)
	cmpq	%r12, %rbp
	jae	.LBB68_121
	movq	%rsi, %rcx
	callq	"runtime::print_string"
.LBB68_121:
	movq	%rdi, %rcx
	callq	"runtime::print_string"
	movq	%rbx, %rcx
	callq	"runtime::print_string"
	movq	8(%r13,%rbp,8), %rcx
	callq	"runtime::print_type"
	leaq	(%r14,%rbp), %rax
	incq	%rax
	incq	%rbp
	addq	$16, %r15
	cmpq	$-1, %rax
	jne	.LBB68_119
.LBB68_122:
	movb	$125, %cl
.LBB68_123:
	addq	$184, %rsp
	popq	%rbx
	popq	%rbp
	popq	%rdi
	popq	%rsi
	popq	%r12
	popq	%r13
	popq	%r14
	popq	%r15
	jmp	"runtime::print_byte"
.LBB68_124:
	leaq	".Lggv$reflect::write_type_writer$4"(%rip), %rcx
	jmp	.LBB68_42
.LBB68_125:
	leaq	".Lggv$reflect::write_type_writer$3"(%rip), %rcx
	jmp	.LBB68_42
.LBB68_126:
	testb	%al, %al
	movl	$117, %eax
	movl	$105, %ecx
	cmovel	%eax, %ecx
.LBB68_127:
	callq	"runtime::print_byte"
.LBB68_128:
	movq	(%rsi), %rcx
	shlq	$3, %rcx
	addq	$184, %rsp
	popq	%rbx
	popq	%rbp
	popq	%rdi
	popq	%rsi
	popq	%r12
	popq	%r13
	popq	%r14
	popq	%r15
	jmp	"runtime::print_u64"
.LBB68_129:
	movq	%r13, 32(%rsp)
	leaq	".Lggv$runtime::print_type$24"(%rip), %rcx
	movl	$352, %edx
	movl	$20, %r8d
	movq	%rsi, %r9
	vzeroupper
	callq	"runtime::bounds_check_error.handle_error-0"
.LBB68_130:
	addq	$32, %rax
	movq	%rax, 40(%rsp)
	movabsq	$-686033851217794410, %rax
	movq	%rax, 32(%rsp)
	leaq	".Lggv$runtime::print_type$19"(%rip), %rcx
	movabsq	$3269448003691120859, %r9
	movl	$334, %edx
	movl	$9, %r8d
	callq	"runtime::type_assertion_check2.handle_error-1"
.LBB68_131:
	movq	%r15, 32(%rsp)
	leaq	".Lggv$runtime::print_type$59"(%rip), %rcx
	movl	$480, %edx
	jmp	.LBB68_133
.LBB68_132:
	movq	%r14, 32(%rsp)
	leaq	".Lggv$runtime::print_type$40"(%rip), %rcx
	movl	$420, %edx
.LBB68_133:
	movl	$28, %r8d
	xorl	%r9d, %r9d
	callq	"runtime::multi_pointer_slice_handle_error"
	int3
	.section	.rdata,"dr"
	.p2align	2, 0x0
.LJTI68_0:
	.long	.LBB68_78-.LJTI68_0
	.long	.LBB68_85-.LJTI68_0
	.long	.LBB68_61-.LJTI68_0
	.long	.LBB68_75-.LJTI68_0
	.long	.LBB68_74-.LJTI68_0
	.long	.LBB68_76-.LJTI68_0
	.long	.LBB68_79-.LJTI68_0
	.long	.LBB68_89-.LJTI68_0
	.long	.LBB68_84-.LJTI68_0
	.long	.LBB68_62-.LJTI68_0
	.long	.LBB68_4-.LJTI68_0
	.long	.LBB68_24-.LJTI68_0
	.long	.LBB68_9-.LJTI68_0
	.long	.LBB68_25-.LJTI68_0
	.long	.LBB68_17-.LJTI68_0
	.long	.LBB68_16-.LJTI68_0
	.long	.LBB68_8-.LJTI68_0
	.long	.LBB68_63-.LJTI68_0
	.long	.LBB68_20-.LJTI68_0
	.long	.LBB68_91-.LJTI68_0
	.long	.LBB68_49-.LJTI68_0
	.long	.LBB68_7-.LJTI68_0
	.long	.LBB68_43-.LJTI68_0
	.long	.LBB68_29-.LJTI68_0
	.long	.LBB68_26-.LJTI68_0
	.long	.LBB68_6-.LJTI68_0
	.long	.LBB68_55-.LJTI68_0
	.text
	.seh_endproc

	.def	"text_edit::selection_delete";
	.scl	3;
	.type	32;
	.endef
	.p2align	4
"text_edit::selection_delete":
.seh_proc "text_edit::selection_delete"
	pushq	%r15
	.seh_pushreg %r15
	pushq	%r14
	.seh_pushreg %r14
	pushq	%r12
	.seh_pushreg %r12
	pushq	%rsi
	.seh_pushreg %rsi
	pushq	%rdi
	.seh_pushreg %rdi
	pushq	%rbx
	.seh_pushreg %rbx
	subq	$56, %rsp
	.seh_stackalloc 56
	.seh_endprologue
	movq	%rcx, %rsi
	movq	(%rcx), %rcx
	movq	8(%rsi), %rax
	movq	32(%rsi), %r8
	testq	%r8, %r8
	je	.LBB69_1
	movq	8(%r8), %r15
	jmp	.LBB69_3
.LBB69_1:
	xorl	%r15d, %r15d
.LBB69_3:
	cmpq	%rax, %rcx
	movq	%rax, %r8
	cmovlq	%rcx, %r8
	cmovgq	%rcx, %rax
	movq	%r8, %rcx
	sarq	$63, %rcx
	andnq	%r8, %rcx, %rdi
	cmpq	%r15, %rdi
	cmovgeq	%r15, %rdi
	movq	%rax, %rcx
	sarq	$63, %rcx
	andnq	%rax, %rcx, %r12
	cmpq	%r15, %r12
	movq	%r15, %rbx
	cmovlq	%r12, %rbx
	movq	%rsi, %rcx
	callq	"text_edit::undo_check"
	movq	32(%rsi), %r14
	testq	%r14, %r14
	je	.LBB69_14
	movq	8(%r14), %rax
	testq	%r15, %r15
	js	.LBB69_15
	movq	%rax, %rcx
	subq	%rdi, %rcx
	jl	.LBB69_15
	cmpq	%rdi, %r12
	jl	.LBB69_15
	cmpq	%rbx, %rax
	jl	.LBB69_15
	movq	%rbx, %rdx
	subq	%rdi, %rdx
	xorl	%r15d, %r15d
	testq	%rdx, %rdx
	cmovgq	%rdx, %r15
	jle	.LBB69_14
	movq	%rax, %r8
	subq	%rbx, %r8
	jne	.LBB69_11
	movq	%rbx, %rax
	jmp	.LBB69_13
.LBB69_11:
	cmpq	%r8, %rcx
	cmovlq	%rcx, %r8
	testq	%r8, %r8
	jle	.LBB69_13
	movq	(%r14), %rcx
	addq	%rcx, %rbx
	addq	%rdi, %rcx
	movq	%rbx, %rdx
	callq	memmove
	movq	8(%r14), %rax
.LBB69_13:
	subq	%r15, %rax
	movq	%rax, 8(%r14)
.LBB69_14:
	movq	%rdi, (%rsi)
	movq	%rdi, 8(%rsi)
	addq	$56, %rsp
	popq	%rbx
	popq	%rdi
	popq	%rsi
	popq	%r12
	popq	%r14
	popq	%r15
	retq
.LBB69_15:
	movq	%rax, 40(%rsp)
	movq	%rbx, 32(%rsp)
	leaq	".Lscl$[remove6585]"(%rip), %rcx
	movl	$256, %edx
	movl	$3, %r8d
	movq	%rdi, %r9
	callq	"runtime::slice_handle_error"
	int3
	.seh_endproc

	.def	"text_edit::translate_position";
	.scl	3;
	.type	32;
	.endef
	.p2align	4
"text_edit::translate_position":
.seh_proc "text_edit::translate_position"
	pushq	%rsi
	.seh_pushreg %rsi
	subq	$48, %rsp
	.seh_stackalloc 48
	.seh_endprologue
	movq	32(%rcx), %rax
	testq	%rax, %rax
	je	.LBB70_2
	movq	(%rax), %r8
	movq	8(%rax), %rax
	jmp	.LBB70_3
.LBB70_2:
	xorl	%eax, %eax
	xorl	%r8d, %r8d
.LBB70_3:
	movq	(%rcx), %r9
	movq	%r9, %r10
	sarq	$63, %r10
	andnq	%r9, %r10, %r10
	cmpq	%rax, %r10
	movq	%rax, %r9
	cmovlq	%r10, %r9
	movl	%edx, %edx
	leaq	.LJTI70_0(%rip), %r11
	movslq	(%r11,%rdx,4), %rsi
	addq	%r11, %rsi
	jmpq	*%rsi
.LBB70_4:
	leaq	-1(%r9), %rdx
	cmpq	$-1, %rdx
	movq	$-1, %rcx
	cmovlq	%rdx, %rcx
	movq	%r9, %rdx
	.p2align	4
.LBB70_5:
	decq	%rdx
	js	.LBB70_41
	cmpq	%rax, %rdx
	jae	.LBB70_45
	cmpb	$-65, -1(%r8,%r9)
	movq	%rdx, %r9
	jle	.LBB70_5
	jmp	.LBB70_44
.LBB70_8:
	movq	40(%rcx), %rdx
	jmp	.LBB70_44
.LBB70_9:
	leaq	1(%r9), %r10
	cmpq	%r10, %rax
	movq	%r10, %rcx
	cmovgq	%rax, %rcx
	.p2align	4
.LBB70_10:
	leaq	1(%r9), %rdx
	cmpq	%rax, %rdx
	jge	.LBB70_41
	jae	.LBB70_46
	cmpb	$-65, 1(%r8,%r9)
	movq	%rdx, %r9
	jle	.LBB70_10
	jmp	.LBB70_44
.LBB70_41:
	movq	%rcx, %rdx
	jmp	.LBB70_44
.LBB70_13:
	cmpq	%rax, %r10
	jge	.LBB70_42
	movabsq	$4294968832, %rcx
	movq	%r9, %r10
	jmp	.LBB70_16
	.p2align	4
.LBB70_15:
	incq	%r10
	cmpq	%r10, %rax
	je	.LBB70_25
.LBB70_16:
	cmpq	%rax, %r10
	jae	.LBB70_50
	movzbl	(%r8,%r10), %edx
	cmpq	$32, %rdx
	ja	.LBB70_15
	btq	%rdx, %rcx
	jae	.LBB70_15
	cmpq	%rax, %r10
	jge	.LBB70_43
	jmp	.LBB70_20
.LBB70_26:
	movq	48(%rcx), %rdx
	jmp	.LBB70_44
.LBB70_27:
	testq	%r9, %r9
	jle	.LBB70_34
	leaq	-1(%r9), %rcx
	movabsq	$4294968832, %rdx
	.p2align	4
.LBB70_29:
	cmpq	%rax, %rcx
	jae	.LBB70_47
	movzbl	-1(%r8,%r9), %r10d
	cmpq	$32, %r10
	ja	.LBB70_34
	btq	%r10, %rdx
	jae	.LBB70_34
	decq	%r9
	leaq	1(%r9), %r10
	cmpq	$2, %r10
	jae	.LBB70_29
	xorl	%r9d, %r9d
.LBB70_34:
	movq	%r9, %rdx
	sarq	$63, %rdx
	andq	%r9, %rdx
	movabsq	$4294968832, %rcx
	.p2align	4
.LBB70_35:
	testq	%r9, %r9
	jle	.LBB70_44
	leaq	-1(%r9), %r10
	cmpq	%rax, %r10
	jae	.LBB70_49
	movzbl	-1(%r8,%r9), %r11d
	movq	%r10, %r9
	cmpq	$32, %r11
	ja	.LBB70_35
	btq	%r11, %rcx
	movq	%r10, %r9
	jae	.LBB70_35
	incq	%r10
	jmp	.LBB70_43
.LBB70_42:
	movq	%r9, %r10
	cmpq	%rax, %r10
	jge	.LBB70_43
.LBB70_20:
	movabsq	$4294968832, %rcx
	movq	%r10, %rdx
	.p2align	4
.LBB70_21:
	cmpq	%rax, %rdx
	jae	.LBB70_48
	movzbl	(%r8,%rdx), %r9d
	cmpq	$32, %r9
	ja	.LBB70_44
	btq	%r9, %rcx
	jae	.LBB70_44
	incq	%rdx
	cmpq	%rdx, %rax
	jne	.LBB70_21
.LBB70_25:
	movq	%rax, %rdx
	jmp	.LBB70_44
.LBB70_43:
	movq	%r10, %rdx
.LBB70_44:
	movq	%rdx, %rcx
	sarq	$63, %rcx
	andnq	%rdx, %rcx, %rcx
	cmpq	%rax, %rcx
	cmovlq	%rcx, %rax
	addq	$48, %rsp
	popq	%rsi
	retq
.LBB70_45:
	decq	%r9
	movq	%rax, 32(%rsp)
	leaq	".Lggv$text_edit::translate_position$1"(%rip), %rcx
	movl	$306, %edx
	movl	$44, %r8d
	callq	"runtime::bounds_check_error.handle_error-0"
.LBB70_46:
	cmpq	%r10, %rax
	cmovaq	%rax, %r10
	movq	%rax, 32(%rsp)
	leaq	".Lggv$text_edit::translate_position$2"(%rip), %rcx
	movl	$311, %edx
	movl	$50, %r8d
	movq	%r10, %r9
	callq	"runtime::bounds_check_error.handle_error-0"
.LBB70_47:
	decq	%r9
	movq	%rax, 32(%rsp)
	leaq	".Lggv$text_edit::translate_position$3"(%rip), %rcx
	movl	$319, %edx
	movl	$31, %r8d
	callq	"runtime::bounds_check_error.handle_error-0"
.LBB70_48:
	cmpq	%rax, %r10
	cmovbeq	%rax, %r10
	movq	%rax, 32(%rsp)
	leaq	".Lggv$text_edit::translate_position$6"(%rip), %rcx
	movl	$329, %edx
	movl	$38, %r8d
	movq	%r10, %r9
	callq	"runtime::bounds_check_error.handle_error-0"
.LBB70_49:
	decq	%r9
	movq	%rax, 32(%rsp)
	leaq	".Lggv$text_edit::translate_position$4"(%rip), %rcx
	movl	$322, %edx
	movl	$32, %r8d
	callq	"runtime::bounds_check_error.handle_error-0"
.LBB70_50:
	cmpq	%r9, %rax
	cmovaq	%rax, %r9
	movq	%rax, 32(%rsp)
	leaq	".Lggv$text_edit::translate_position$5"(%rip), %rcx
	movl	$326, %edx
	movl	$39, %r8d
	callq	"runtime::bounds_check_error.handle_error-0"
	int3
	.section	.rdata,"dr"
	.p2align	2, 0x0
.LJTI70_0:
	.long	.LBB70_44-.LJTI70_0
	.long	.LBB70_25-.LJTI70_0
	.long	.LBB70_4-.LJTI70_0
	.long	.LBB70_9-.LJTI70_0
	.long	.LBB70_8-.LJTI70_0
	.long	.LBB70_26-.LJTI70_0
	.long	.LBB70_27-.LJTI70_0
	.long	.LBB70_13-.LJTI70_0
	.text
	.seh_endproc

	.def	"io::write_byte";
	.scl	3;
	.type	32;
	.endef
	.p2align	4
"io::write_byte":
.seh_proc "io::write_byte"
	pushq	%rsi
	.seh_pushreg %rsi
	subq	$96, %rsp
	.seh_stackalloc 96
	.seh_endprologue
	movq	(%rcx), %rax
	movq	8(%rcx), %rcx
	movb	%dl, 71(%rsp)
	leaq	71(%rsp), %rdx
	movq	%rdx, 80(%rsp)
	movq	$1, 88(%rsp)
	testq	%rax, %rax
	je	.LBB71_1
	movq	%r8, %rsi
	movq	$0, 72(%rsp)
	movq	%r9, 48(%rsp)
	leaq	72(%rsp), %rdx
	movq	%rdx, 40(%rsp)
	movq	$0, 32(%rsp)
	leaq	80(%rsp), %r8
	movl	$4, %edx
	xorl	%r9d, %r9d
	callq	*%rax
	testq	%rsi, %rsi
	je	.LBB71_4
	movq	72(%rsp), %rcx
	addq	%rcx, (%rsi)
	jmp	.LBB71_4
.LBB71_1:
	movl	$-1, %eax
.LBB71_4:
	addq	$96, %rsp
	popq	%rsi
	retq
	.seh_endproc

	.def	"strconv_decimal::shift_left";
	.scl	3;
	.type	32;
	.endef
	.p2align	4
"strconv_decimal::shift_left":
	pushq	%r15
	pushq	%r14
	pushq	%r13
	pushq	%r12
	pushq	%rsi
	pushq	%rdi
	pushq	%rbx
	movq	%rdx, %rax
	leaq	(%rdx,%rdx,2), %r9
	leaq	"strconv_decimal::[decimal.odin]::_shift_left_offsets"(%rip), %r11
	movq	(%r11,%r9,8), %r8
	movq	384(%rcx), %r10
	movq	16(%r11,%r9,8), %rdx
	testq	%rdx, %rdx
	jle	.LBB72_7
	movq	8(%r11,%r9,8), %r9
	movq	%r10, %r11
	sarq	$63, %r11
	andnq	%r10, %r11, %r11
	xorl	%esi, %esi
	.p2align	4
.LBB72_3:
	cmpq	%rsi, %r11
	je	.LBB72_6
	movzbl	(%rcx,%rsi), %ebx
	movzbl	(%r9,%rsi), %edi
	cmpb	%dil, %bl
	jne	.LBB72_5
	incq	%rsi
	cmpq	%rsi, %rdx
	jne	.LBB72_3
	jmp	.LBB72_7
.LBB72_5:
	jae	.LBB72_7
.LBB72_6:
	decq	%r8
.LBB72_7:
	movq	%r10, %rdi
	decq	%rdi
	js	.LBB72_33
	leaq	(%r8,%r10), %r11
	movabsq	$-3689348814741910323, %r9
	testq	%rdi, %rdi
	je	.LBB72_9
	addq	%rcx, %rdi
	leaq	(%r8,%r10), %rdx
	leaq	(%rcx,%rdx), %rbx
	decq	%rbx
	movq	%r10, %r14
	andq	$-2, %r14
	negq	%r14
	xorl	%r15d, %r15d
	xorl	%esi, %esi
	jmp	.LBB72_21
	.p2align	4
.LBB72_28:
	addb	$48, %r12b
	movb	%r12b, -1(%rbx,%r15)
.LBB72_29:
	addq	$-2, %r15
	cmpq	%r15, %r14
	je	.LBB72_10
.LBB72_21:
	movzbl	(%rdi,%r15), %edx
	addq	$-48, %rdx
	shlxq	%rax, %rdx, %rdx
	addq	%rsi, %rdx
	mulxq	%r9, %rsi, %rsi
	shrq	$3, %rsi
	leaq	(%rsi,%rsi), %r12
	leaq	(%r12,%r12,4), %r12
	subq	%r12, %rdx
	leaq	(%r11,%r15), %r12
	decq	%r12
	cmpq	$383, %r12
	jg	.LBB72_23
	addb	$48, %dl
	movb	%dl, (%rbx,%r15)
	jmp	.LBB72_25
	.p2align	4
.LBB72_23:
	testq	%rdx, %rdx
	je	.LBB72_25
	movb	$1, 401(%rcx)
.LBB72_25:
	movzbl	-1(%rdi,%r15), %edx
	addq	$-48, %rdx
	shlxq	%rax, %rdx, %rdx
	addq	%rsi, %rdx
	mulxq	%r9, %rsi, %rsi
	shrq	$3, %rsi
	leaq	(%rsi,%rsi), %r12
	leaq	(%r12,%r12,4), %r13
	movq	%rdx, %r12
	subq	%r13, %r12
	leaq	(%r11,%r15), %r13
	addq	$-2, %r13
	cmpq	$384, %r13
	jl	.LBB72_28
	testq	%r12, %r12
	je	.LBB72_29
	movb	$1, 401(%rcx)
	jmp	.LBB72_29
.LBB72_10:
	leaq	(%r10,%r15), %rdi
	decq	%rdi
	addq	%r15, %r11
	testb	$1, %r10b
	jne	.LBB72_12
	jmp	.LBB72_16
.LBB72_9:
	xorl	%esi, %esi
	testb	$1, %r10b
	je	.LBB72_16
.LBB72_12:
	movzbl	(%rcx,%rdi), %edx
	addq	$-48, %rdx
	shlxq	%rax, %rdx, %rdx
	addq	%rsi, %rdx
	mulxq	%r9, %rsi, %rsi
	shrq	$3, %rsi
	leaq	(%rsi,%rsi), %rax
	leaq	(%rax,%rax,4), %r10
	movq	%rdx, %rax
	subq	%r10, %rax
	decq	%r11
	cmpq	$384, %r11
	jge	.LBB72_13
	addb	$48, %al
	movb	%al, (%rcx,%r11)
	jmp	.LBB72_16
.LBB72_13:
	testq	%rax, %rax
	je	.LBB72_16
	movb	$1, 401(%rcx)
.LBB72_16:
	cmpq	$10, %rdx
	jae	.LBB72_17
.LBB72_33:
	addq	%r8, 392(%rcx)
	addq	384(%rcx), %r8
	xorl	%edx, %edx
	testq	%r8, %r8
	cmovgq	%r8, %rdx
	cmpq	$384, %rdx
	movl	$384, %eax
	cmovlq	%rdx, %rax
	movq	%rax, 384(%rcx)
	testq	%r8, %r8
	jle	.LBB72_37
	decq	%rax
	.p2align	4
.LBB72_35:
	cmpb	$48, (%rcx,%rax)
	jne	.LBB72_38
	movq	%rax, 384(%rcx)
	leaq	-1(%rax), %rdx
	incq	%rax
	cmpq	$1, %rax
	movq	%rdx, %rax
	ja	.LBB72_35
.LBB72_37:
	movq	$0, 392(%rcx)
.LBB72_38:
	popq	%rbx
	popq	%rdi
	popq	%rsi
	popq	%r12
	popq	%r13
	popq	%r14
	popq	%r15
	retq
.LBB72_17:
	leaq	-1(%r8), %rax
	jmp	.LBB72_18
	.p2align	4
.LBB72_19:
	addb	$48, %r10b
	movb	%r10b, (%rcx,%rax)
.LBB72_32:
	decq	%rax
	cmpq	$9, %rdx
	jbe	.LBB72_33
.LBB72_18:
	movq	%rsi, %rdx
	mulxq	%r9, %rsi, %rsi
	shrq	$3, %rsi
	leaq	(%rsi,%rsi), %r10
	leaq	(%r10,%r10,4), %r11
	movq	%rdx, %r10
	subq	%r11, %r10
	cmpq	$383, %rax
	jle	.LBB72_19
	testq	%r10, %r10
	je	.LBB72_32
	movb	$1, 401(%rcx)
	jmp	.LBB72_32

	.def	"strconv::parse_int";
	.scl	3;
	.type	32;
	.endef
	.p2align	4
"strconv::parse_int":
.seh_proc "strconv::parse_int"
	pushq	%r15
	.seh_pushreg %r15
	pushq	%r14
	.seh_pushreg %r14
	pushq	%r13
	.seh_pushreg %r13
	pushq	%r12
	.seh_pushreg %r12
	pushq	%rsi
	.seh_pushreg %rsi
	pushq	%rdi
	.seh_pushreg %rdi
	pushq	%rbp
	.seh_pushreg %rbp
	pushq	%rbx
	.seh_pushreg %rbx
	subq	$88, %rsp
	.seh_stackalloc 88
	.seh_endprologue
	movq	8(%rcx), %r15
	testq	%r15, %r15
	je	.LBB73_1
	movq	(%rcx), %r12
	cmpq	$2, %r15
	jl	.LBB73_16
	movzbl	(%r12), %eax
	cmpl	$43, %eax
	movq	%rdx, 64(%rsp)
	je	.LBB73_7
	cmpl	$45, %eax
	jne	.LBB73_5
	incq	%r12
	decq	%r15
	movl	$0, 56(%rsp)
	jmp	.LBB73_8
.LBB73_1:
	xorl	%r8d, %r8d
	xorl	%eax, %eax
	jmp	.LBB73_36
.LBB73_16:
	movb	$1, %al
	cmpq	$1, %r15
	jne	.LBB73_18
	movb	$1, %al
	movl	%eax, 56(%rsp)
	movq	%rdx, 64(%rsp)
	movl	$10, %r13d
	movl	$1, %r15d
	jmp	.LBB73_20
.LBB73_18:
	xorl	%ecx, %ecx
	xorl	%edi, %edi
	jmp	.LBB73_33
.LBB73_7:
	movb	$1, %al
	movl	%eax, 56(%rsp)
	incq	%r12
	decq	%r15
	jmp	.LBB73_8
.LBB73_5:
	movb	$1, %al
	movl	%eax, 56(%rsp)
.LBB73_8:
	movl	$10, %r13d
	cmpq	$3, %r15
	jb	.LBB73_20
	cmpb	$48, (%r12)
	jne	.LBB73_20
	movzbl	1(%r12), %eax
	addl	$-98, %eax
	cmpl	$24, %eax
	ja	.LBB73_20
	leaq	.LJTI73_0(%rip), %rcx
	movslq	(%rcx,%rax,4), %rax
	addq	%rcx, %rax
	jmpq	*%rax
.LBB73_19:
	addq	$2, %r12
	addq	$-2, %r15
	movl	$2, %r13d
	jmp	.LBB73_20
.LBB73_12:
	addq	$2, %r12
	addq	$-2, %r15
	movl	$8, %r13d
	jmp	.LBB73_20
.LBB73_13:
	addq	$2, %r12
	addq	$-2, %r15
	jmp	.LBB73_20
.LBB73_15:
	addq	$2, %r12
	addq	$-2, %r15
	movl	$16, %r13d
	jmp	.LBB73_20
.LBB73_14:
	addq	$2, %r12
	addq	$-2, %r15
	movl	$12, %r13d
.LBB73_20:
	xorl	%ebp, %ebp
	leaq	72(%rsp), %rbx
	leaq	60(%rsp), %r14
	xorl	%eax, %eax
	xorl	%edx, %edx
.LBB73_21:
	movq	%rdx, %rdi
	.p2align	4
.LBB73_22:
	movq	%rax, %rsi
	addq	%r12, %rax
	movq	%r15, %rcx
	subq	%rsi, %rcx
	movq	%rax, 72(%rsp)
	movq	%rcx, 80(%rsp)
	movl	$0, 60(%rsp)
	movq	%rbx, %rcx
	movq	%r14, %rdx
	callq	"runtime::string_decode_rune"
	movslq	60(%rsp), %rcx
	addq	%rsi, %rax
	cmpq	$95, %rcx
	jne	.LBB73_24
	incq	%rdi
	cmpq	%r15, %rax
	jl	.LBB73_22
	jmp	.LBB73_29
	.p2align	4
.LBB73_24:
	leal	-48(%rcx), %edx
	cmpl	$10, %edx
	jae	.LBB73_25
	addq	$-48, %rcx
	jmp	.LBB73_28
	.p2align	4
.LBB73_25:
	leal	-97(%rcx), %edx
	cmpl	$26, %edx
	jae	.LBB73_26
	addq	$-87, %rcx
	jmp	.LBB73_28
.LBB73_26:
	leal	-65(%rcx), %edx
	addq	$-55, %rcx
	cmpl	$26, %edx
	movl	$16, %edx
	cmovaeq	%rdx, %rcx
.LBB73_28:
	cmpq	%r13, %rcx
	jge	.LBB73_29
	imulq	%r13, %rbp
	addq	%rbp, %rcx
	leaq	1(%rdi), %rdx
	movq	%rcx, %rbp
	cmpq	%r15, %rax
	jl	.LBB73_21
	incq	%rdi
	jmp	.LBB73_32
.LBB73_29:
