	.def	@feat.00;
	.scl	3;
	.type	0;
	.endef
	.globl	@feat.00
.set @feat.00, 0
	.file	"whatde"
	.def	__$startup_runtime;
	.scl	2;
	.type	32;
	.endef
	.text
	.weak	__$startup_runtime
	.p2align	4
__$startup_runtime:
.seh_proc __$startup_runtime
	subq	$40, %rsp
	.seh_stackalloc 40
	.seh_endprologue
	jmp	.LBB0_1
.LBB0_1:
	callq	"__$startup$os::args"
	movl	$4294967285, %ecx
	callq	"os::get_std_handle"
	movq	%rax, "os::stdout"(%rip)
	movl	$4294967284, %ecx
	callq	"os::get_std_handle"
	movq	%rax, "os::stderr"(%rip)
	callq	"terminal::[internal.odin]::init_terminal"
	callq	"terminal::[terminal_windows.odin]::_init_terminal"
	callq	"log::[file_console_logger.odin]::init_standard_stream_status"
	nop
	addq	$40, %rsp
	retq
	.seh_endproc

	.def	"__$equal-3602662949261365688";
	.scl	3;
	.type	32;
	.endef
	.p2align	4
"__$equal-3602662949261365688":
	movb	$1, %al
	cmpq	%rdx, %rcx
	je	.LBB1_6
	movl	4(%rcx), %r8d
	cmpl	4(%rdx), %r8d
	jne	.LBB1_5
	cmpl	$4, %r8d
	ja	.LBB1_5
	movl	%r8d, %r8d
	leaq	.LJTI1_0(%rip), %r9
	movslq	(%r9,%r8,4), %r8
	addq	%r9, %r8
	jmpq	*%r8
.LBB1_4:
	movl	(%rcx), %eax
	cmpl	(%rdx), %eax
	sete	%al
	retq
.LBB1_5:
	xorl	%eax, %eax
.LBB1_6:
	retq
.LBB1_7:
	movzbl	(%rcx), %eax
	cmpb	(%rdx), %al
	sete	%al
	retq
	.section	.rdata,"dr"
	.p2align	2, 0x0
.LJTI1_0:
	.long	.LBB1_6-.LJTI1_0
	.long	.LBB1_4-.LJTI1_0
	.long	.LBB1_4-.LJTI1_0
	.long	.LBB1_7-.LJTI1_0
	.long	.LBB1_4-.LJTI1_0

	.def	"__$equal-15812508462912702808";
	.scl	3;
	.type	32;
	.endef
	.text
	.p2align	4
"__$equal-15812508462912702808":
	pushq	%rsi
	pushq	%rdi
	pushq	%rbx
	subq	$32, %rsp
	movb	$1, %sil
	cmpq	%rdx, %rcx
	je	.LBB2_6
	movq	%rdx, %rdi
	movq	%rcx, %rbx
	callq	"runtime::string_eq"
	testb	$1, %al
	je	.LBB2_5
	movl	16(%rbx), %eax
	cmpl	16(%rdi), %eax
	jne	.LBB2_5
	movl	20(%rbx), %eax
	cmpl	20(%rdi), %eax
	jne	.LBB2_5
	addq	$24, %rbx
	addq	$24, %rdi
	movq	%rbx, %rcx
	movq	%rdi, %rdx
	callq	"runtime::string_eq"
	testb	$1, %al
	jne	.LBB2_6
.LBB2_5:
	xorl	%esi, %esi
.LBB2_6:
	movl	%esi, %eax
	addq	$32, %rsp
	popq	%rbx
	popq	%rdi
	popq	%rsi
	retq

	.def	"__$equal-10243842089384952270";
	.scl	3;
	.type	32;
	.endef
	.p2align	4
"__$equal-10243842089384952270":
	pushq	%rsi
	pushq	%rdi
	pushq	%rbx
	subq	$32, %rsp
	movb	$1, %sil
	cmpq	%rdx, %rcx
	je	.LBB3_6
	movq	%rdx, %rdi
	movq	%rcx, %rbx
	callq	"runtime::string_eq"
	testb	$1, %al
	je	.LBB3_5
	movq	16(%rbx), %rax
	cmpq	16(%rdi), %rax
	jne	.LBB3_5
	leaq	24(%rbx), %rcx
	leaq	24(%rdi), %rdx
	callq	"runtime::string_eq"
	testb	$1, %al
	je	.LBB3_5
	movq	40(%rbx), %rax
	cmpq	40(%rdi), %rax
	je	.LBB3_6
.LBB3_5:
	xorl	%esi, %esi
.LBB3_6:
	movl	%esi, %eax
	addq	$32, %rsp
	popq	%rbx
	popq	%rdi
	popq	%rsi
	retq

	.def	"__$startup$os::args";
	.scl	2;
	.type	32;
	.endef
	.weak	"__$startup$os::args"
	.p2align	4
"__$startup$os::args":
.seh_proc "__$startup$os::args"
	pushq	%r15
	.seh_pushreg %r15
	pushq	%r14
	.seh_pushreg %r14
	pushq	%r13
	.seh_pushreg %r13
	pushq	%r12
	.seh_pushreg %r12
	pushq	%rsi
	.seh_pushreg %rsi
	pushq	%rdi
	.seh_pushreg %rdi
	pushq	%rbp
	.seh_pushreg %rbp
	pushq	%rbx
	.seh_pushreg %rbx
	subq	$264, %rsp
	.seh_stackalloc 264
	vmovaps	%xmm6, 240(%rsp)
	.seh_savexmm %xmm6, 240
	.seh_endprologue
	leaq	"runtime::heap_allocator_proc"(%rip), %rax
	movq	%rax, 128(%rsp)
	movq	$0, 136(%rsp)
	leaq	"runtime::default_temp_allocator_proc"(%rip), %rax
	movq	%rax, 144(%rsp)
	movl	_tls_index(%rip), %eax
	movq	%gs:88, %rcx
	movq	(%rcx,%rax,8), %rax
	leaq	"runtime::global_default_temp_allocator_data"@SECREL32(%rax), %rax
	movq	%rax, 152(%rsp)
	leaq	"runtime::default_assertion_failure_proc"(%rip), %rax
	movq	%rax, 160(%rsp)
	leaq	"runtime::default_logger_proc"(%rip), %rax
	movq	%rax, 168(%rsp)
	vxorps	%xmm6, %xmm6, %xmm6
	vmovups	%xmm6, 176(%rsp)
	movq	$0, 192(%rsp)
	leaq	"runtime::default_random_generator_proc"(%rip), %rax
	movq	%rax, 200(%rsp)
	vxorps	%xmm0, %xmm0, %xmm0
	vmovups	%ymm0, 208(%rsp)
	movl	$0, 76(%rsp)
	vzeroupper
	callq	GetCommandLineW
	leaq	76(%rsp), %rdx
	movq	%rax, %rcx
	callq	CommandLineToArgvW
	movslq	76(%rsp), %rsi
	vmovups	128(%rsp), %xmm0
	vmovaps	%xmm0, 112(%rsp)
	testq	%rsi, %rsi
	js	.LBB4_8
	movq	%rax, %rdi
	movq	%rsi, %rcx
	shlq	$4, %rcx
	vmovaps	%xmm6, 80(%rsp)
	leaq	128(%rsp), %rax
	movq	%rax, 40(%rsp)
	leaq	80(%rsp), %rax
	movq	%rax, 32(%rsp)
	leaq	".Lscl$[_alloc_command_line_arguments5762]"(%rip), %r9
	leaq	112(%rsp), %r8
	movl	$8, %edx
	callq	"runtime::mem_alloc_bytes"
	movq	80(%rsp), %rax
	testq	%rax, %rax
	movq	%rax, 96(%rsp)
	cmoveq	%rax, %rsi
	movq	%rsi, 104(%rsp)
	testq	%rsi, %rsi
	jle	.LBB4_7
	movq	96(%rsp), %rax
	leaq	8(%rax), %rsi
	vxorps	%xmm6, %xmm6, %xmm6
	leaq	".Lscl$[_alloc_command_line_arguments6042]"(%rip), %rbx
	leaq	112(%rsp), %r14
	movq	104(%rsp), %r13
	.p2align	4
.LBB4_3:
	movq	(%rdi), %r12
	vmovups	%xmm6, 48(%rsp)
	movl	$0, 40(%rsp)
	movq	$0, 32(%rsp)
	movl	$65001, %ecx
	xorl	%edx, %edx
	movq	%r12, %r8
	movl	$-1, %r9d
	callq	WideCharToMultiByte
	movslq	%eax, %r15
	vmovups	128(%rsp), %xmm0
	vmovaps	%xmm0, 112(%rsp)
	testl	%r15d, %r15d
	js	.LBB4_9
	vmovaps	%xmm6, 80(%rsp)
	leaq	128(%rsp), %rax
	movq	%rax, 40(%rsp)
	leaq	80(%rsp), %rax
	movq	%rax, 32(%rsp)
	movl	$1, %edx
	movq	%r15, %rcx
	movq	%r14, %r8
	movq	%rbx, %r9
	callq	"runtime::mem_alloc_bytes"
	movq	80(%rsp), %rbp
	vmovups	%xmm6, 48(%rsp)
	movl	%r15d, 40(%rsp)
	movq	%rbp, 32(%rsp)
	movl	$65001, %ecx
	xorl	%edx, %edx
	movq	%r12, %r8
	movl	$-1, %r9d
	callq	WideCharToMultiByte
	testq	%rbp, %rbp
	cmoveq	%rbp, %r15
	xorl	%ecx, %ecx
	testl	%eax, %eax
	setg	%cl
	subl	%ecx, %eax
	cltq
	testl	%eax, %eax
	js	.LBB4_10
	cmpq	%rax, %r15
	jl	.LBB4_10
	movq	%rbp, -8(%rsi)
	movq	%rax, (%rsi)
	addq	$8, %rdi
	addq	$16, %rsi
	decq	%r13
	jne	.LBB4_3
.LBB4_7:
	movq	96(%rsp), %rax
	movq	%rax, "os::args.0"(%rip)
	movq	104(%rsp), %rax
	movq	%rax, "os::args.1"(%rip)
	vmovaps	240(%rsp), %xmm6
	addq	$264, %rsp
	popq	%rbx
	popq	%rbp
	popq	%rdi
	popq	%rsi
	popq	%r12
	popq	%r13
	popq	%r14
	popq	%r15
	retq
.LBB4_10:
	movq	%r15, 40(%rsp)
	movq	%rax, 32(%rsp)
	leaq	".Lggv$os::[os_windows.odin]::_alloc_command_line_arguments$2"(%rip), %rcx
	movl	$213, %edx
	movl	$27, %r8d
	xorl	%r9d, %r9d
	callq	"runtime::slice_handle_error"
.LBB4_9:
	leaq	".Lscl$[_alloc_command_line_arguments6042]"(%rip), %rcx
	movq	%r15, %rdx
	callq	"runtime::make_slice_error_loc.handle_error-0"
.LBB4_8:
	leaq	".Lscl$[_alloc_command_line_arguments5762]"(%rip), %rcx
	movq	%rsi, %rdx
	callq	"runtime::make_slice_error_loc.handle_error-0"
	int3
	.seh_endproc

	.def	"os::get_std_handle";
	.scl	3;
	.type	32;
	.endef
	.p2align	4
"os::get_std_handle":
	jmp	GetStdHandle

	.def	"terminal::[internal.odin]::init_terminal";
	.scl	3;
	.type	32;
	.endef
	.p2align	4
"terminal::[internal.odin]::init_terminal":
.seh_proc "terminal::[internal.odin]::init_terminal"
	subq	$200, %rsp
	.seh_stackalloc 200
	.seh_endprologue
	callq	"terminal::[terminal_windows.odin]::_init_terminal"
	vxorps	%xmm0, %xmm0, %xmm0
	vmovups	%ymm0, 64(%rsp)
	vmovups	%ymm0, 96(%rsp)
	vmovups	%ymm0, 128(%rsp)
	vmovups	%ymm0, 160(%rsp)
	leaq	64(%rsp), %rax
	movq	%rax, 48(%rsp)
	movq	$128, 56(%rsp)
	vxorps	%xmm0, %xmm0, %xmm0
	vmovaps	%xmm0, 32(%rsp)
	leaq	".Lggv$terminal::[internal.odin]::get_no_color$1"(%rip), %rdx
	leaq	48(%rsp), %rcx
	leaq	32(%rsp), %r8
	vzeroupper
	callq	"os::lookup_env_buffer"
	shrq	$32, %rax
	jne	.LBB6_3
	cmpq	$0, 40(%rsp)
	je	.LBB6_3
	addq	$200, %rsp
	retq
.LBB6_3:
	cmpq	$0, "terminal::color_depth"(%rip)
	setg	"terminal::color_enabled"(%rip)
	addq	$200, %rsp
	retq
	.seh_endproc

	.def	"terminal::[terminal_windows.odin]::_init_terminal";
	.scl	3;
	.type	32;
	.endef
	.p2align	4
"terminal::[terminal_windows.odin]::_init_terminal":
.seh_proc "terminal::[terminal_windows.odin]::_init_terminal"
	pushq	%rsi
	.seh_pushreg %rsi
	pushq	%rdi
	.seh_pushreg %rdi
	pushq	%rbx
	.seh_pushreg %rbx
	subq	$288, %rsp
	.seh_stackalloc 288
	vmovaps	%xmm6, 272(%rsp)
	.seh_savexmm %xmm6, 272
	.seh_endprologue
	movl	"terminal::[terminal_windows.odin]::old_modes"(%rip), %ecx
	callq	GetStdHandle
	leaq	1(%rax), %rcx
	cmpq	$2, %rcx
	jb	.LBB7_4
	leaq	"terminal::[terminal_windows.odin]::old_modes"+4(%rip), %rdx
	movq	%rax, %rsi
	movq	%rax, %rcx
	callq	GetConsoleMode
	testl	%eax, %eax
	je	.LBB7_2
	movl	"terminal::[terminal_windows.odin]::old_modes"+4(%rip), %edx
	orl	$5, %edx
	movq	%rsi, %rcx
	callq	SetConsoleMode
	movl	$0, 44(%rsp)
	leaq	44(%rsp), %rdx
	movq	%rsi, %rcx
	callq	GetConsoleMode
	testb	$5, 44(%rsp)
	sete	%bl
	jmp	.LBB7_6
.LBB7_2:
	movb	$1, %bl
.LBB7_6:
	movl	"terminal::[terminal_windows.odin]::old_modes"+8(%rip), %ecx
	callq	GetStdHandle
	leaq	1(%rax), %rcx
	cmpq	$2, %rcx
	jb	.LBB7_4
	leaq	"terminal::[terminal_windows.odin]::old_modes"+12(%rip), %rdx
	movq	%rax, %rsi
	movq	%rax, %rcx
	callq	GetConsoleMode
	testl	%eax, %eax
	je	.LBB7_9
	movl	"terminal::[terminal_windows.odin]::old_modes"+12(%rip), %edx
	orl	$5, %edx
	movq	%rsi, %rcx
	callq	SetConsoleMode
	movl	$0, 44(%rsp)
	leaq	44(%rsp), %rdx
	movq	%rsi, %rcx
	callq	GetConsoleMode
	testb	$5, 44(%rsp)
	sete	%al
	movl	$2, %esi
	testb	%bl, %al
	jne	.LBB7_10
	jmp	.LBB7_3
.LBB7_9:
	movl	$2, %esi
	testb	%bl, %bl
	je	.LBB7_3
.LBB7_10:
	vxorps	%xmm0, %xmm0, %xmm0
	vmovups	%ymm0, 144(%rsp)
	vmovups	%ymm0, 176(%rsp)
	vmovups	%ymm0, 208(%rsp)
	vmovups	%ymm0, 240(%rsp)
	leaq	144(%rsp), %rdi
	movq	%rdi, 128(%rsp)
	movq	$128, 136(%rsp)
	vxorps	%xmm6, %xmm6, %xmm6
	vmovaps	%xmm6, 80(%rsp)
	leaq	".Lggv$terminal::[internal.odin]::get_environment_color$1"(%rip), %rdx
	leaq	128(%rsp), %rcx
	leaq	80(%rsp), %r8
	vzeroupper
	callq	"os::lookup_env_buffer"
	vmovaps	80(%rsp), %xmm0
	vmovups	%xmm0, 112(%rsp)
	shrq	$32, %rax
	jne	.LBB7_13
	leaq	".Lggv$terminal::[internal.odin]::get_environment_color$2"(%rip), %rdx
	leaq	112(%rsp), %rcx
	callq	"runtime::string_eq"
	movl	$4, %esi
	testb	%al, %al
	jne	.LBB7_3
	leaq	".Lggv$terminal::[internal.odin]::get_environment_color$3"(%rip), %rdx
	leaq	112(%rsp), %rcx
	callq	"runtime::string_eq"
	testb	%al, %al
	jne	.LBB7_3
.LBB7_13:
	movq	%rdi, 96(%rsp)
	movq	$128, 104(%rsp)
	vmovaps	%xmm6, 64(%rsp)
	leaq	".Lggv$terminal::[internal.odin]::get_environment_color$4"(%rip), %rdx
	leaq	96(%rsp), %rcx
	leaq	64(%rsp), %r8
	callq	"os::lookup_env_buffer"
	vmovaps	64(%rsp), %xmm0
	vmovups	%xmm0, 48(%rsp)
	shrq	$32, %rax
	jne	.LBB7_28
	leaq	".Lggv$terminal::[internal.odin]::get_environment_color$5"(%rip), %rdx
	leaq	48(%rsp), %rcx
	callq	"strings::index"
	movl	$4, %esi
	testq	%rax, %rax
	jns	.LBB7_3
	leaq	".Lggv$terminal::[internal.odin]::get_environment_color$6"(%rip), %rdx
	leaq	48(%rsp), %rcx
	callq	"strings::index"
	movl	$3, %esi
	testq	%rax, %rax
	jns	.LBB7_3
	leaq	".Lggv$terminal::[internal.odin]::get_environment_color$7"(%rip), %rdx
	leaq	48(%rsp), %rcx
	callq	"strings::index"
	movl	$2, %esi
	testq	%rax, %rax
	jns	.LBB7_3
	leaq	".Lggv$terminal::[internal.odin]::get_environment_color$8"(%rip), %rdx
	leaq	48(%rsp), %rcx
	callq	"runtime::string_eq"
	movl	$1, %esi
	testb	$1, %al
	jne	.LBB7_3
	leaq	".Lggv$terminal::[internal.odin]::get_environment_color$9"(%rip), %rdx
	leaq	48(%rsp), %rcx
	callq	"runtime::string_eq"
	testb	$1, %al
	jne	.LBB7_3
	leaq	".Lggv$terminal::[internal.odin]::get_environment_color$10"(%rip), %rdx
	leaq	48(%rsp), %rcx
	callq	"runtime::string_eq"
	testb	$1, %al
	jne	.LBB7_3
	leaq	".Lggv$terminal::[internal.odin]::get_environment_color$11"(%rip), %rdx
	leaq	48(%rsp), %rcx
	callq	"runtime::string_eq"
	testb	$1, %al
	jne	.LBB7_3
	leaq	".Lggv$terminal::[internal.odin]::get_environment_color$12"(%rip), %rdx
	leaq	48(%rsp), %rcx
	callq	"runtime::string_eq"
	testb	$1, %al
	jne	.LBB7_3
	leaq	".Lggv$terminal::[internal.odin]::get_environment_color$13"(%rip), %rdx
	leaq	48(%rsp), %rcx
	callq	"runtime::string_eq"
	testb	$1, %al
	jne	.LBB7_3
	leaq	".Lggv$terminal::[internal.odin]::get_environment_color$14"(%rip), %rdx
	leaq	48(%rsp), %rcx
	callq	"runtime::string_eq"
	testb	$1, %al
	jne	.LBB7_3
	leaq	".Lggv$terminal::[internal.odin]::get_environment_color$15"(%rip), %rdx
	leaq	48(%rsp), %rcx
	callq	"runtime::string_eq"
	testb	$1, %al
	jne	.LBB7_3
	leaq	".Lggv$terminal::[internal.odin]::get_environment_color$16"(%rip), %rdx
	leaq	48(%rsp), %rcx
	callq	"runtime::string_eq"
	testb	$1, %al
	jne	.LBB7_3
	leaq	".Lggv$terminal::[internal.odin]::get_environment_color$17"(%rip), %rdx
	leaq	48(%rsp), %rcx
	callq	"runtime::string_eq"
	testb	$1, %al
	jne	.LBB7_3
	leaq	".Lggv$terminal::[internal.odin]::get_environment_color$18"(%rip), %rdx
	leaq	48(%rsp), %rcx
	callq	"runtime::string_eq"
	testb	$1, %al
	jne	.LBB7_3
.LBB7_28:
	xorl	%esi, %esi
.LBB7_3:
	movq	%rsi, "terminal::color_depth"(%rip)
.LBB7_4:
	vmovaps	272(%rsp), %xmm6
	addq	$288, %rsp
	popq	%rbx
	popq	%rdi
	popq	%rsi
	retq
	.seh_endproc

	.def	"log::[file_console_logger.odin]::init_standard_stream_status";
	.scl	3;
	.type	32;
	.endef
	.p2align	4
"log::[file_console_logger.odin]::init_standard_stream_status":
.seh_proc "log::[file_console_logger.odin]::init_standard_stream_status"
	subq	$40, %rsp
	.seh_stackalloc 40
	.seh_endprologue
	cmpb	$0, "terminal::color_enabled"(%rip)
	je	.LBB8_1
	movq	"os::stdout"(%rip), %rcx
	callq	GetFileType
	movq	"os::stderr"(%rip), %rcx
	addq	$40, %rsp
	jmp	GetFileType
.LBB8_1:
	nop
	addq	$40, %rsp
	retq
	.seh_endproc

	.def	__$cleanup_runtime;
	.scl	2;
	.type	32;
	.endef
	.weak	__$cleanup_runtime
	.p2align	4
__$cleanup_runtime:
.seh_proc __$cleanup_runtime
	subq	$40, %rsp
	.seh_stackalloc 40
	.seh_endprologue
	jmp	.LBB9_1
.LBB9_1:
	callq	"terminal::[terminal_windows.odin]::_fini_terminal"
	callq	"terminal::[internal.odin]::fini_terminal"
	callq	"os::[os_windows.odin]::_delete_command_line_arguments"
	callq	"runtime::[default_temporary_allocator.odin]::_destroy_temp_allocator_fini"
	nop
	addq	$40, %rsp
	retq
	.seh_endproc

	.def	"terminal::[terminal_windows.odin]::_fini_terminal";
	.scl	3;
	.type	32;
	.endef
	.p2align	4
"terminal::[terminal_windows.odin]::_fini_terminal":
.seh_proc "terminal::[terminal_windows.odin]::_fini_terminal"
	pushq	%rsi
	.seh_pushreg %rsi
	subq	$32, %rsp
	.seh_stackalloc 32
	.seh_endprologue
	movl	"terminal::[terminal_windows.odin]::old_modes"(%rip), %ecx
	movl	"terminal::[terminal_windows.odin]::old_modes"+4(%rip), %esi
	callq	GetStdHandle
	leaq	1(%rax), %rcx
	cmpq	$1, %rcx
	jbe	.LBB10_2
	movq	%rax, %rcx
	movl	%esi, %edx
	callq	SetConsoleMode
	movl	"terminal::[terminal_windows.odin]::old_modes"+8(%rip), %ecx
	movl	"terminal::[terminal_windows.odin]::old_modes"+12(%rip), %esi
	callq	GetStdHandle
	leaq	1(%rax), %rcx
	cmpq	$2, %rcx
	jae	.LBB10_3
.LBB10_2:
	addq	$32, %rsp
	popq	%rsi
	retq
.LBB10_3:
	movq	%rax, %rcx
	movl	%esi, %edx
	addq	$32, %rsp
	popq	%rsi
	jmp	SetConsoleMode
	.seh_endproc

	.def	"terminal::[internal.odin]::fini_terminal";
	.scl	3;
	.type	32;
	.endef
	.p2align	4
"terminal::[internal.odin]::fini_terminal":
.seh_proc "terminal::[internal.odin]::fini_terminal"
	pushq	%rsi
	.seh_pushreg %rsi
	subq	$32, %rsp
	.seh_stackalloc 32
	.seh_endprologue
	movl	"terminal::[terminal_windows.odin]::old_modes"(%rip), %ecx
	movl	"terminal::[terminal_windows.odin]::old_modes"+4(%rip), %esi
	callq	GetStdHandle
	leaq	1(%rax), %rcx
	cmpq	$2, %rcx
	jb	.LBB11_2
	movq	%rax, %rcx
	movl	%esi, %edx
	callq	SetConsoleMode
	movl	"terminal::[terminal_windows.odin]::old_modes"+8(%rip), %ecx
	movl	"terminal::[terminal_windows.odin]::old_modes"+12(%rip), %esi
	callq	GetStdHandle
	leaq	1(%rax), %rcx
	cmpq	$2, %rcx
	jae	.LBB11_3
.LBB11_2:
	addq	$32, %rsp
	popq	%rsi
	retq
.LBB11_3:
	movq	%rax, %rcx
	movl	%esi, %edx
	addq	$32, %rsp
	popq	%rsi
	jmp	SetConsoleMode
	.seh_endproc

	.def	"os::[os_windows.odin]::_delete_command_line_arguments";
	.scl	3;
	.type	32;
	.endef
	.p2align	4
"os::[os_windows.odin]::_delete_command_line_arguments":
.seh_proc "os::[os_windows.odin]::_delete_command_line_arguments"
	pushq	%r15
	.seh_pushreg %r15
	pushq	%r14
	.seh_pushreg %r14
	pushq	%rsi
	.seh_pushreg %rsi
	pushq	%rdi
	.seh_pushreg %rdi
	pushq	%rbx
	.seh_pushreg %rbx
	subq	$176, %rsp
	.seh_stackalloc 176
	.seh_endprologue
	leaq	"runtime::heap_allocator_proc"(%rip), %rax
	movq	%rax, 64(%rsp)
	movq	$0, 72(%rsp)
	leaq	"runtime::default_temp_allocator_proc"(%rip), %rax
	movq	%rax, 80(%rsp)
	movl	_tls_index(%rip), %eax
	movq	%gs:88, %rcx
	movq	(%rcx,%rax,8), %rax
	leaq	"runtime::global_default_temp_allocator_data"@SECREL32(%rax), %rax
	movq	%rax, 88(%rsp)
	leaq	"runtime::default_assertion_failure_proc"(%rip), %rax
	movq	%rax, 96(%rsp)
	leaq	"runtime::default_logger_proc"(%rip), %rax
	movq	%rax, 104(%rsp)
	vxorps	%xmm0, %xmm0, %xmm0
	vmovups	%xmm0, 112(%rsp)
	movq	$0, 128(%rsp)
	leaq	"runtime::default_random_generator_proc"(%rip), %rax
	movq	%rax, 136(%rsp)
	vxorps	%xmm0, %xmm0, %xmm0
	vmovups	%ymm0, 144(%rsp)
	movq	"os::args.1"(%rip), %rsi
	leaq	64(%rsp), %r14
	testq	%rsi, %rsi
	jle	.LBB12_4
	movl	$8, %r15d
	leaq	".Lscl$[_delete_command_line_arguments6423]"(%rip), %rdi
	leaq	48(%rsp), %rbx
	.p2align	4
.LBB12_2:
	movq	"os::args.0"(%rip), %rax
	movq	-8(%rax,%r15), %rcx
	movq	(%rax,%r15), %rdx
	vmovups	64(%rsp), %xmm0
	vmovaps	%xmm0, 48(%rsp)
	movq	%r14, 32(%rsp)
	movq	%rbx, %r8
	movq	%rdi, %r9
	vzeroupper
	callq	"runtime::mem_free_with_size"
	addq	$16, %r15
	decq	%rsi
	jne	.LBB12_2
	movq	"os::args.1"(%rip), %rsi
.LBB12_4:
	movq	"os::args.0"(%rip), %rcx
	vmovups	64(%rsp), %xmm0
	vmovaps	%xmm0, 48(%rsp)
	shlq	$4, %rsi
	movq	%r14, 32(%rsp)
	leaq	".Lscl$[_delete_command_line_arguments6439]"(%rip), %r9
	leaq	48(%rsp), %r8
	movq	%rsi, %rdx
	vzeroupper
	callq	"runtime::mem_free_with_size"
	nop
	addq	$176, %rsp
	popq	%rbx
	popq	%rdi
	popq	%rsi
	popq	%r14
	popq	%r15
	retq
	.seh_endproc

	.def	"runtime::[default_temporary_allocator.odin]::_destroy_temp_allocator_fini";
	.scl	3;
	.type	32;
	.endef
	.globl	__ymm@0000000000000000000000000000000000000000000000000000000000000000
	.section	.rdata,"dr",discard,__ymm@0000000000000000000000000000000000000000000000000000000000000000
	.p2align	5, 0x0
__ymm@0000000000000000000000000000000000000000000000000000000000000000:
	.zero	32
	.text
	.p2align	4
"runtime::[default_temporary_allocator.odin]::_destroy_temp_allocator_fini":
.seh_proc "runtime::[default_temporary_allocator.odin]::_destroy_temp_allocator_fini"
	pushq	%r15
	.seh_pushreg %r15
	pushq	%r14
	.seh_pushreg %r14
	pushq	%r13
	.seh_pushreg %r13
	pushq	%r12
	.seh_pushreg %r12
	pushq	%rsi
	.seh_pushreg %rsi
	pushq	%rdi
	.seh_pushreg %rdi
	pushq	%rbp
	.seh_pushreg %rbp
	pushq	%rbx
	.seh_pushreg %rbx
	subq	$184, %rsp
	.seh_stackalloc 184
	vmovaps	%xmm6, 160(%rsp)
	.seh_savexmm %xmm6, 160
	.seh_endprologue
	movl	_tls_index(%rip), %eax
	movq	%gs:88, %rcx
	movq	(%rcx,%rax,8), %rax
	movq	"runtime::global_default_temp_allocator_data"@SECREL32+16(%rax), %rcx
	testq	%rcx, %rcx
	je	.LBB13_3
	leaq	96(%rsp), %r14
	leaq	"runtime::default_assertion_failure_proc"(%rip), %r12
	leaq	"runtime::default_logger_proc"(%rip), %r13
	vxorps	%xmm6, %xmm6, %xmm6
	leaq	"runtime::default_random_generator_proc"(%rip), %rbp
	leaq	".Lscl$[default_temp_allocator_destroy1621]"(%rip), %rsi
	leaq	32(%rsp), %rdi
	leaq	48(%rsp), %rbx
	.p2align	4
.LBB13_2:
	movq	(%rcx), %rax
	movl	_tls_index(%rip), %edx
	movq	%gs:88, %r8
	movq	(%r8,%rdx,8), %r15
	movq	%rax, "runtime::global_default_temp_allocator_data"@SECREL32+16(%r15)
	leaq	"runtime::global_default_temp_allocator_data"@SECREL32(%r15), %rax
	movq	40(%rcx), %rdx
	subq	%rdx, "runtime::global_default_temp_allocator_data"@SECREL32+32(%r15)
	movq	8(%rcx), %rdx
	movq	16(%rcx), %r8
	movq	%rdx, 32(%rsp)
	movq	%r8, 40(%rsp)
	leaq	"runtime::default_temp_allocator_proc"(%rip), %r9
	movq	%r9, 64(%rsp)
	movq	%rax, 72(%rsp)
	movq	%r12, 80(%rsp)
	movq	%r13, 88(%rsp)
	vmovups	%xmm6, (%r14)
	movq	$0, 16(%r14)
	movq	%rbp, 120(%rsp)
	vxorps	%xmm0, %xmm0, %xmm0
	vmovups	%ymm0, 32(%r14)
	movq	%rdx, 48(%rsp)
	movq	%r8, 56(%rsp)
	movq	%rdi, %rdx
	movq	%rsi, %r8
	movq	%rbx, %r9
	vzeroupper
	callq	"runtime::mem_free"
	movq	"runtime::global_default_temp_allocator_data"@SECREL32+16(%r15), %rcx
	testq	%rcx, %rcx
	jne	.LBB13_2
.LBB13_3:
	movl	_tls_index(%rip), %eax
	movq	%gs:88, %rcx
	movq	(%rcx,%rax,8), %rax
	vxorps	%xmm0, %xmm0, %xmm0
	vmovups	%ymm0, "runtime::global_default_temp_allocator_data"@SECREL32+24(%rax)
	vmovups	%ymm0, "runtime::global_default_temp_allocator_data"@SECREL32(%rax)
	vmovaps	160(%rsp), %xmm6
	addq	$184, %rsp
	popq	%rbx
	popq	%rbp
	popq	%rdi
	popq	%rsi
	popq	%r12
	popq	%r13
	popq	%r14
	popq	%r15
	vzeroupper
	retq
	.seh_endproc

	.def	"runtime::bounds_trap";
	.scl	3;
	.type	32;
	.endef
	.p2align	4
"runtime::bounds_trap":
.seh_proc "runtime::bounds_trap"
	subq	$40, %rsp
	.seh_stackalloc 40
	.seh_endprologue
	callq	"runtime::[procs_windows_amd64.odin]::windows_trap_array_bounds"
	int3
	.seh_endproc

	.def	"runtime::udivmod128";
	.scl	3;
	.type	32;
	.endef
	.p2align	4
"runtime::udivmod128":
	pushq	%r15
	pushq	%r14
	pushq	%rsi
	pushq	%rdi
	pushq	%rbp
	pushq	%rbx
	movq	(%rcx), %r9
	movq	8(%rcx), %rax
	movq	(%rdx), %r10
	movq	8(%rdx), %r11
	testq	%rax, %rax
	je	.LBB15_1
	testq	%r10, %r10
	je	.LBB15_17
	testq	%r11, %r11
	je	.LBB15_33
	xorl	%esi, %esi
	lzcntq	%r11, %rsi
	xorl	%r10d, %r10d
	lzcntq	%rax, %r10
	subl	%r10d, %esi
	cmpl	$64, %esi
	jae	.LBB15_29
	leal	1(%rsi), %r10d
	cmpl	$64, %r10d
	je	.LBB15_40
	shrxq	%r10, %rax, %r11
	movb	$63, %cl
	subb	%sil, %cl
	shlxq	%rcx, %rax, %rsi
	shrxq	%r10, %r9, %rax
	orq	%rsi, %rax
	shlxq	%rcx, %r9, %r9
	jmp	.LBB15_47
.LBB15_1:
	testq	%r11, %r11
	je	.LBB15_2
	vpxor	%xmm0, %xmm0, %xmm0
	testq	%r8, %r8
	je	.LBB15_13
	movq	%r9, (%r8)
	movq	$0, 8(%r8)
	jmp	.LBB15_13
.LBB15_17:
	testq	%r11, %r11
	je	.LBB15_57
	testq	%r9, %r9
	je	.LBB15_19
	leaq	-1(%r11), %r10
	testq	%r10, %r11
	jne	.LBB15_28
	testq	%r8, %r8
	je	.LBB15_27
	andq	%rax, %r10
	movq	%r9, (%r8)
	movq	%r10, 8(%r8)
.LBB15_27:
	xorl	%ecx, %ecx
	tzcntq	%r11, %rcx
	shrxq	%rcx, %rax, %rax
	jmp	.LBB15_12
.LBB15_33:
	leaq	-1(%r10), %r11
	testq	%r11, %r10
	jne	.LBB15_39
	testq	%r8, %r8
	je	.LBB15_36
	andq	%r9, %r11
	movq	%r11, (%r8)
	movq	$0, 8(%r8)
.LBB15_36:
	cmpq	$1, %r10
	jne	.LBB15_38
	vmovdqa	(%rcx), %xmm0
	jmp	.LBB15_13
.LBB15_2:
	testq	%r8, %r8
	je	.LBB15_8
	testq	%r10, %r10
	je	.LBB15_57
	movq	%r9, %rax
	orq	%r10, %rax
	shrq	$32, %rax
	je	.LBB15_5
	movq	%r9, %rax
	xorl	%edx, %edx
	divq	%r10
	jmp	.LBB15_7
.LBB15_19:
	movq	%rax, %rcx
	orq	%r11, %rcx
	shrq	$32, %rcx
	je	.LBB15_20
	xorl	%edx, %edx
	divq	%r11
	testq	%r8, %r8
	jne	.LBB15_23
	jmp	.LBB15_12
.LBB15_39:
	xorl	%ecx, %ecx
	lzcntq	%r10, %rcx
	xorl	%r10d, %r10d
	lzcntq	%rax, %r10
	subl	%r10d, %ecx
	leal	65(%rcx), %r10d
	cmpl	$64, %r10d
	jne	.LBB15_41
.LBB15_40:
	movl	$64, %r10d
	xorl	%r11d, %r11d
.LBB15_47:
	xorl	%esi, %esi
.LBB15_48:
	movq	(%rdx), %rdi
	movq	8(%rdx), %rcx
	cmpl	$1, %r10d
	jne	.LBB15_50
	xorl	%ebx, %ebx
	jmp	.LBB15_52
.LBB15_50:
	movl	%r10d, %ebp
	andl	$-2, %ebp
	xorl	%edx, %edx
	xorl	%ebx, %ebx
	.p2align	4
.LBB15_51:
	shldq	$1, %rax, %r11
	shldq	$1, %r9, %rax
	shldq	$1, %rsi, %r9
	addq	%rsi, %rsi
	movq	%rsi, %r14
	orq	%rbx, %r14
	movq	%r11, %rsi
	notq	%rsi
	movq	%rax, %rbx
	notq	%rbx
	addq	%rdi, %rbx
	adcq	%rcx, %rsi
	movq	%rsi, %rbx
	sarq	$63, %rbx
	movq	%rbx, %r15
	andq	%rcx, %r15
	andq	%rdi, %rbx
	subq	%rbx, %rax
	sbbq	%r15, %r11
	shldq	$1, %rax, %r11
	shldq	$1, %r9, %rax
	shldq	$1, %r14, %r9
	shrdq	$63, %r14, %rsi
	movq	%r11, %r14
	notq	%r14
	movq	%rax, %rbx
	notq	%rbx
	addq	%rdi, %rbx
	adcq	%rcx, %r14
	movq	%r14, %rbx
	shrq	$63, %rbx
	sarq	$63, %r14
	movq	%r14, %r15
	andq	%rcx, %r15
	andq	%rdi, %r14
	subq	%r14, %rax
	sbbq	%r15, %r11
	addl	$-2, %ebp
	jne	.LBB15_51
.LBB15_52:
	testb	$1, %r10b
	je	.LBB15_54
	shldq	$1, %rax, %r11
	shldq	$1, %r9, %rax
	shldq	$1, %rsi, %r9
	leaq	(%rbx,%rsi,2), %rsi
	movq	%r11, %r10
	notq	%r10
	movq	%rax, %rdx
	notq	%rdx
	addq	%rdi, %rdx
	adcq	%rcx, %r10
	movq	%r10, %rbx
	shrq	$63, %rbx
	xorl	%edx, %edx
	sarq	$63, %r10
	andq	%r10, %rcx
	andq	%rdi, %r10
	subq	%r10, %rax
	sbbq	%rcx, %r11
.LBB15_54:
	leaq	(%rsi,%rsi), %rcx
	orq	%rbx, %rcx
	shldq	$1, %rsi, %r9
	orq	%rdx, %r9
	testq	%r8, %r8
	je	.LBB15_56
	movq	%rax, (%r8)
	movq	%r11, 8(%r8)
.LBB15_56:
	vmovq	%rcx, %xmm0
	vmovq	%r9, %xmm1
	vpunpcklqdq	%xmm1, %xmm0, %xmm0
	jmp	.LBB15_13
.LBB15_28:
	lzcntq	%r11, %r11
	xorl	%r10d, %r10d
	lzcntq	%rax, %r10
	subl	%r10d, %r11d
	cmpl	$63, %r11d
	jb	.LBB15_31
.LBB15_29:
	vpxor	%xmm0, %xmm0, %xmm0
	testq	%r8, %r8
	je	.LBB15_13
	vmovdqa	(%rcx), %xmm1
	vmovdqa	%xmm1, (%r8)
	jmp	.LBB15_13
.LBB15_8:
	testq	%r10, %r10
	jne	.LBB15_9
.LBB15_57:
	ud2
.LBB15_38:
	xorl	%ecx, %ecx
	tzcntq	%r10, %rcx
	shrxq	%rcx, %rax, %rdx
	movl	%ecx, %r8d
	negb	%r8b
	testq	%rcx, %rcx
	shlxq	%r8, %rax, %rax
	cmoveq	%rcx, %rax
	shrxq	%rcx, %r9, %rcx
	orq	%rax, %rcx
	vmovq	%rcx, %xmm0
	vmovq	%rdx, %xmm1
	vpunpcklqdq	%xmm1, %xmm0, %xmm0
	jmp	.LBB15_13
.LBB15_41:
	jae	.LBB15_43
	notb	%cl
	shrxq	%r10, %rax, %r11
	shlxq	%rcx, %rax, %rsi
	shrxq	%r10, %r9, %rax
	shlxq	%rcx, %r9, %r9
	orq	%rsi, %rax
	jmp	.LBB15_47
.LBB15_31:
	leal	1(%r11), %r10d
	notb	%r11b
	shlxq	%r11, %r9, %rdi
	movl	%r10d, %ecx
	shrdq	%cl, %rax, %r9
	shrxq	%r10, %rax, %r11
	xorl	%esi, %esi
	movq	%r9, %rax
	movq	%rdi, %r9
	jmp	.LBB15_48
.LBB15_5:
	movl	%r9d, %eax
	xorl	%edx, %edx
	divl	%r10d
.LBB15_7:
	movq	%rdx, (%r8)
	movq	$0, 8(%r8)
.LBB15_9:
	movq	%r9, %rax
	orq	%r10, %rax
	shrq	$32, %rax
	je	.LBB15_10
	movq	%r9, %rax
	xorl	%edx, %edx
	divq	%r10
	jmp	.LBB15_12
.LBB15_10:
	movl	%r9d, %eax
	xorl	%edx, %edx
	divl	%r10d
	jmp	.LBB15_12
.LBB15_20:
	xorl	%edx, %edx
	divl	%r11d
	testq	%r8, %r8
	je	.LBB15_12
.LBB15_23:
	movq	%rdx, 8(%r8)
	movq	$0, (%r8)
.LBB15_12:
	vmovq	%rax, %xmm0
.LBB15_13:
	popq	%rbx
	popq	%rbp
	popq	%rdi
	popq	%rsi
	popq	%r14
	popq	%r15
	retq
.LBB15_43:
	movl	%ecx, %r11d
	notb	%r11b
	shlxq	%r11, %r9, %rsi
	incb	%cl
	shrdq	%cl, %rax, %r9
	shrxq	%rcx, %rax, %rax
	xorl	%r11d, %r11d
	jmp	.LBB15_48

	.def	"runtime::heap_allocator_proc";
	.scl	3;
	.type	32;
	.endef
	.p2align	4
"runtime::heap_allocator_proc":
.seh_proc "runtime::heap_allocator_proc"
	pushq	%r15
	.seh_pushreg %r15
	pushq	%r14
	.seh_pushreg %r14
	pushq	%r12
	.seh_pushreg %r12
	pushq	%rsi
	.seh_pushreg %rsi
	pushq	%rdi
	.seh_pushreg %rdi
	pushq	%rbp
	.seh_pushreg %rbp
	pushq	%rbx
	.seh_pushreg %rbx
	subq	$32, %rsp
	.seh_stackalloc 32
	.seh_endprologue
	movq	152(%rsp), %r12
	cmpb	$7, %dl
	ja	.LBB16_17
	movq	%r8, %rsi
	movq	128(%rsp), %rbx
	movzbl	%dl, %eax
	leaq	.LJTI16_0(%rip), %rcx
	movslq	(%rcx,%rax,4), %rax
	addq	%rcx, %rax
	jmpq	*%rax
.LBB16_2:
	xorl	%edi, %edi
	testb	%dl, %dl
	sete	%dil
	cmpq	$9, %r9
	movl	$8, %r14d
	cmovgeq	%r9, %r14
	leaq	(%rsi,%r14), %rbx
	addq	$7, %rbx
	callq	GetProcessHeap
	shll	$3, %edi
	movq	%rax, %rcx
	movl	%edi, %edx
	movq	%rbx, %r8
	callq	HeapAlloc
	testq	%rax, %rax
	je	.LBB16_20
	leaq	(%rax,%r14), %rcx
	addq	$7, %rcx
	negq	%r14
	andq	%rcx, %r14
	movq	%rax, -8(%r14)
	movq	%rsi, %rax
	sarq	$63, %rax
	andnq	%rsi, %rax, %rax
	xorl	%esi, %esi
	jmp	.LBB16_21
.LBB16_4:
	testq	%rbx, %rbx
	je	.LBB16_18
	movl	$8, %edi
	cmpq	$9, %r9
	cmovgeq	%r9, %rdi
	leaq	7(%rsi,%rdi), %r14
	jl	.LBB16_22
	xorl	%ebp, %ebp
	cmpb	$3, %dl
	sete	%bpl
	callq	GetProcessHeap
	shll	$3, %ebp
	movq	%rax, %rcx
	movl	%ebp, %edx
	movq	%r14, %r8
	callq	HeapAlloc
	testq	%rax, %rax
	je	.LBB16_30
	movq	136(%rsp), %r8
	leaq	(%rax,%rdi), %rcx
	addq	$7, %rcx
	negq	%rdi
	andq	%rcx, %rdi
	movq	%rax, -8(%rdi)
	cmpq	%rsi, %r8
	cmovgeq	%rsi, %r8
	cmpq	%rdi, %rbx
	setne	%al
	testq	%r8, %r8
	setg	%cl
	testb	%cl, %al
	je	.LBB16_9
	movq	%rdi, %rcx
	movq	%rbx, %rdx
	callq	memcpy
.LBB16_9:
	movq	-8(%rbx), %rbx
	testq	%rbx, %rbx
	je	.LBB16_29
	callq	GetProcessHeap
	movq	%rax, %rcx
	xorl	%edx, %edx
	movq	%rbx, %r8
	callq	HeapFree
	jmp	.LBB16_29
.LBB16_11:
	vxorps	%xmm0, %xmm0, %xmm0
	vmovups	%xmm0, (%r12)
	movb	$4, %sil
	jmp	.LBB16_36
.LBB16_12:
	testq	%rbx, %rbx
	je	.LBB16_17
	movq	-8(%rbx), %rsi
	testq	%rsi, %rsi
	je	.LBB16_17
	callq	GetProcessHeap
	movq	%rax, %rcx
	xorl	%edx, %edx
	movq	%rsi, %r8
	callq	HeapFree
	jmp	.LBB16_17
.LBB16_15:
	testq	%rbx, %rbx
	je	.LBB16_17
	movb	$-37, (%rbx)
.LBB16_17:
	vxorps	%xmm0, %xmm0, %xmm0
	vmovups	%xmm0, (%r12)
	xorl	%esi, %esi
	jmp	.LBB16_36
.LBB16_18:
	xorl	%ebx, %ebx
	cmpb	$3, %dl
	sete	%bl
	cmpq	$9, %r9
	movl	$8, %edi
	cmovgeq	%r9, %rdi
	leaq	(%rsi,%rdi), %r14
	addq	$7, %r14
	callq	GetProcessHeap
	shll	$3, %ebx
	movq	%rax, %rcx
	movl	%ebx, %edx
	movq	%r14, %r8
	callq	HeapAlloc
	testq	%rax, %rax
	jne	.LBB16_28
	movb	$1, %sil
	jmp	.LBB16_32
.LBB16_20:
	movb	$1, %sil
	xorl	%r14d, %r14d
	xorl	%eax, %eax
.LBB16_21:
	movq	%r14, (%r12)
	jmp	.LBB16_35
.LBB16_22:
	movq	-8(%rbx), %r15
	testq	%r14, %r14
	je	.LBB16_25
	callq	GetProcessHeap
	movq	%rax, %rcx
	movl	$8, %edx
	testq	%r15, %r15
	je	.LBB16_27
	movq	%r15, %r8
	movq	%r14, %r9
	callq	HeapReAlloc
	testq	%rax, %rax
	jne	.LBB16_28
	jmp	.LBB16_30
.LBB16_25:
	testq	%r15, %r15
	je	.LBB16_30
	callq	GetProcessHeap
	movq	%rax, %rcx
	xorl	%edx, %edx
	movq	%r15, %r8
	callq	HeapFree
	jmp	.LBB16_30
.LBB16_27:
	movq	%r14, %r8
	callq	HeapAlloc
	testq	%rax, %rax
	je	.LBB16_30
.LBB16_28:
	leaq	(%rax,%rdi), %rcx
	addq	$7, %rcx
	negq	%rdi
	andq	%rcx, %rdi
	movq	%rax, -8(%rdi)
.LBB16_29:
	movq	%rsi, %rax
	sarq	$63, %rax
	andnq	%rsi, %rax, %rax
	xorl	%esi, %esi
	jmp	.LBB16_34
.LBB16_30:
	movq	-8(%rbx), %rbx
	movb	$1, %sil
	testq	%rbx, %rbx
	je	.LBB16_32
	callq	GetProcessHeap
	xorl	%edi, %edi
	movq	%rax, %rcx
	xorl	%edx, %edx
	movq	%rbx, %r8
	callq	HeapFree
	jmp	.LBB16_33
.LBB16_32:
	xorl	%edi, %edi
.LBB16_33:
	xorl	%eax, %eax
.LBB16_34:
	movq	%rdi, (%r12)
.LBB16_35:
	movq	%rax, 8(%r12)
.LBB16_36:
	movl	%esi, %eax
	addq	$32, %rsp
	popq	%rbx
	popq	%rbp
	popq	%rdi
	popq	%rsi
	popq	%r12
	popq	%r14
	popq	%r15
	retq
	.section	.rdata,"dr"
	.p2align	2, 0x0
.LJTI16_0:
	.long	.LBB16_2-.LJTI16_0
	.long	.LBB16_12-.LJTI16_0
	.long	.LBB16_11-.LJTI16_0
	.long	.LBB16_4-.LJTI16_0
	.long	.LBB16_15-.LJTI16_0
	.long	.LBB16_11-.LJTI16_0
	.long	.LBB16_2-.LJTI16_0
	.long	.LBB16_4-.LJTI16_0
	.text
	.seh_endproc

	.def	"os::[stream.odin]::_file_stream_proc";
	.scl	3;
	.type	32;
	.endef
	.p2align	4
"os::[stream.odin]::_file_stream_proc":
.seh_proc "os::[stream.odin]::_file_stream_proc"
	pushq	%r15
	.seh_pushreg %r15
	pushq	%r14
	.seh_pushreg %r14
	pushq	%r13
	.seh_pushreg %r13
	pushq	%r12
	.seh_pushreg %r12
	pushq	%rsi
	.seh_pushreg %rsi
	pushq	%rdi
	.seh_pushreg %rdi
	pushq	%rbp
	.seh_pushreg %rbp
	pushq	%rbx
	.seh_pushreg %rbx
	subq	$2504, %rsp
	.seh_stackalloc 2504
	vmovaps	%xmm6, 2480(%rsp)
	.seh_savexmm %xmm6, 2480
	.seh_endprologue
	cmpq	$9, %rdx
	ja	.LBB17_117
	movq	%r9, %r12
	movq	%rcx, %r13
	movq	(%r8), %r14
	movq	8(%r8), %rbx
	leaq	.LJTI17_0(%rip), %rax
	movslq	(%rax,%rdx,4), %rcx
	addq	%rax, %rcx
	jmpq	*%rcx
.LBB17_2:
	movq	%r13, %rcx
	callq	CloseHandle
	testl	%eax, %eax
	jne	.LBB17_111
	callq	GetLastError
	movl	%eax, %edi
	cmpl	$130, %eax
	jg	.LBB17_164
	cmpl	$80, %eax
	ja	.LBB17_202
	leaq	.LJTI17_8(%rip), %rax
	movslq	(%rax,%rdi,4), %rcx
	addq	%rax, %rcx
	jmpq	*%rcx
.LBB17_4:
	testq	%rbx, %rbx
	je	.LBB17_117
	movl	$0, 160(%rsp)
	jle	.LBB17_140
	xorl	%edi, %edi
	movl	$1073741824, %ebp
	leaq	160(%rsp), %r15
	xorl	%esi, %esi
	.p2align	4
.LBB17_7:
	cmpq	%rsi, %rbx
	jbe	.LBB17_263
	movl	%ebx, %r8d
	subl	%esi, %r8d
	cmpl	$1073741824, %r8d
	cmovgel	%ebp, %r8d
	leaq	(%r14,%rsi), %rdx
	movq	$0, 32(%rsp)
	movq	%r13, %rcx
	movq	%r15, %r9
	callq	WriteFile
	movl	160(%rsp), %ecx
	testq	%rcx, %rcx
	je	.LBB17_146
	testl	%eax, %eax
	je	.LBB17_146
	addq	%rcx, %rsi
	cmpq	%rbx, %rsi
	jl	.LBB17_7
.LBB17_11:
	movq	%rdi, %rax
	shrq	$32, %rax
	testq	%rsi, %rsi
	jne	.LBB17_247
	movl	$1, %r15d
	xorl	%esi, %esi
	testq	%rax, %rax
	jne	.LBB17_247
	jmp	.LBB17_253
.LBB17_13:
	xorl	%r15d, %r15d
	movl	$767, %esi
	jmp	.LBB17_253
.LBB17_14:
	xorl	%r15d, %r15d
	testq	%rbx, %rbx
	je	.LBB17_252
	movl	$0, 108(%rsp)
	leaq	108(%rsp), %rdx
	movq	%r13, %rcx
	callq	GetConsoleMode
	cmpq	$1073741824, %rbx
	movl	$1073741824, %edi
	cmovlq	%rbx, %rdi
	testl	%eax, %eax
	je	.LBB17_141
	testq	%rbx, %rbx
	js	.LBB17_270
	xorl	%esi, %esi
	leaq	1704(%rsp), %rcx
	movl	$772, %r8d
	xorl	%edx, %edx
	callq	memset
	leaq	160(%rsp), %rcx
	movl	$1544, %r8d
	xorl	%edx, %edx
	callq	memset
	movq	%rdi, %rax
	shrq	$2, %rax
	cmpq	$1, %rax
	adcq	$0, %rax
	cmpq	$386, %rax
	movl	$386, %r15d
	cmovbq	%rax, %r15
	movabsq	$4294967297, %rax
	leaq	1(%rax), %rcx
	movq	%rcx, 88(%rsp)
	movabsq	$8589934593, %rcx
	leaq	15(%rcx), %rdx
	movq	%rdx, 80(%rsp)
	addq	$4, %rax
	movq	%rax, 136(%rsp)
	leaq	7(%rcx), %rax
	movq	%rax, 128(%rsp)
	xorl	%ebp, %ebp
	movq	%r13, 144(%rsp)
	movq	%r15, 96(%rsp)
.LBB17_18:
	movl	$0, 76(%rsp)
	movq	$0, 32(%rsp)
	movq	%r13, %rcx
	leaq	1704(%rsp), %rdx
	movl	%r15d, %r8d
	leaq	76(%rsp), %r9
	callq	ReadConsoleW
	movl	$0, %ecx
	testl	%eax, %eax
	jne	.LBB17_39
	callq	GetLastError
	movl	%eax, %ebp
	cmpl	$130, %eax
	jg	.LBB17_23
	cmpl	$80, %eax
	ja	.LBB17_37
	leaq	.LJTI17_5(%rip), %rcx
	movslq	(%rcx,%rbp,4), %rax
	addq	%rcx, %rax
	jmpq	*%rax
.LBB17_22:
	movq	88(%rsp), %rbp
	jmp	.LBB17_38
.LBB17_23:
	cmpl	$231, %eax
	jle	.LBB17_28
	cmpl	$232, %eax
	je	.LBB17_36
	cmpl	$258, %eax
	je	.LBB17_27
	cmpl	$1460, %eax
	jne	.LBB17_37
.LBB17_27:
	movabsq	$4294967297, %rax
	leaq	2(%rax), %rbp
	jmp	.LBB17_38
.LBB17_28:
	cmpl	$131, %eax
	je	.LBB17_35
	cmpl	$183, %eax
	jne	.LBB17_37
.LBB17_30:
	movabsq	$4294967297, %rbp
	jmp	.LBB17_38
.LBB17_31:
	movq	80(%rsp), %rbp
	jmp	.LBB17_38
.LBB17_32:
	movabsq	$8589934593, %rbp
	jmp	.LBB17_38
.LBB17_33:
	movq	136(%rsp), %rbp
	jmp	.LBB17_38
.LBB17_34:
	movabsq	$12884901887, %rbp
	jmp	.LBB17_38
.LBB17_35:
	movq	128(%rsp), %rbp
	jmp	.LBB17_38
.LBB17_36:
	movabsq	$8589934593, %rax
	leaq	16(%rax), %rbp
	jmp	.LBB17_38
.LBB17_37:
	movabsq	$17179869184, %rax
	addq	%rax, %rbp
.LBB17_38:
	movq	%rbp, %rcx
	shrq	$32, %rcx
.LBB17_39:
	movq	%rcx, 64(%rsp)
	movl	76(%rsp), %ebx
	cmpq	$387, %rbx
	jae	.LBB17_265
	testq	%rbx, %rbx
	je	.LBB17_67
	xorl	%r13d, %r13d
	xorl	%r15d, %r15d
	.p2align	4
.LBB17_42:
	cmpq	%rbx, %r15
	jae	.LBB17_261
	movzwl	1704(%rsp,%r15,2), %eax
	leal	8192(%rax), %ecx
	movzwl	%cx, %ecx
	cmpl	$63488, %ecx
	jae	.LBB17_46
	cmpw	$127, %ax
	ja	.LBB17_50
	movl	$1, %r9d
	xorl	%edx, %edx
	xorl	%ecx, %ecx
	jmp	.LBB17_54
	.p2align	4
.LBB17_46:
	movl	$65533, %ecx
	cmpl	$56319, %eax
	ja	.LBB17_53
	leaq	1(%r15), %r10
	cmpq	%rbx, %r10
	jge	.LBB17_53
	movzwl	1706(%rsp,%r15,2), %r8d
	movl	%r8d, %edx
	andl	$64512, %edx
	cmpl	$56320, %edx
	jne	.LBB17_53
	shll	$10, %eax
	leal	(%rax,%r8), %ecx
	addl	$-56613888, %ecx
	movl	%ecx, %eax
	shrl	$18, %eax
	orb	$-16, %al
	movl	%ecx, %edx
	shrl	$12, %edx
	andb	$63, %dl
	orb	$-128, %dl
	shrl	$6, %ecx
	andb	$63, %cl
	orb	$-128, %cl
	andb	$63, %r8b
	orb	$-128, %r8b
	movl	$4, %r9d
	movq	%r10, %r15
	jmp	.LBB17_55
	.p2align	4
.LBB17_50:
	cmpl	$2048, %eax
	jae	.LBB17_52
	movl	%eax, %r8d
	shrl	$6, %r8d
	orb	$-64, %r8b
	andb	$63, %al
	movl	%eax, %edx
	orb	$-128, %dl
	movl	$2, %r9d
	xorl	%ecx, %ecx
	movl	%r8d, %eax
	jmp	.LBB17_54
.LBB17_52:
	movl	%eax, %ecx
	andl	$63488, %ecx
	cmpl	$55296, %ecx
	movl	$65533, %ecx
	cmovel	%ecx, %eax
	movl	%eax, %ecx
.LBB17_53:
	movl	%ecx, %eax
	shrl	$12, %eax
	orb	$-32, %al
	movl	%ecx, %edx
	shrl	$6, %edx
	andb	$63, %dl
	orb	$-128, %dl
	andb	$63, %cl
	orb	$-128, %cl
	movl	$3, %r9d
.LBB17_54:
	xorl	%r8d, %r8d
.LBB17_55:
	movb	%al, 60(%rsp)
	movb	%dl, 61(%rsp)
	movb	%cl, 62(%rsp)
	movb	%r8b, 63(%rsp)
	testq	%r13, %r13
	js	.LBB17_260
	movl	$1544, %r12d
	subq	%r13, %r12
	cmpq	%r9, %r12
	cmovgeq	%r9, %r12
	cmpq	$1543, %r13
	ja	.LBB17_58
	leaq	(%rsp,%r13), %rcx
	addq	$160, %rcx
	leaq	60(%rsp), %rdx
	movq	%r12, %r8
	callq	memcpy
.LBB17_58:
	addq	%r12, %r13
	incq	%r15
	cmpq	%rbx, %r15
	jge	.LBB17_60
	cmpq	$1544, %r13
	jl	.LBB17_42
.LBB17_60:
	cmpq	$1544, %r13
	ja	.LBB17_266
	testq	%r13, %r13
	setne	%al
	cmpq	%rdi, %rsi
	setl	%cl
	andb	%al, %cl
	cmpb	$1, %cl
	movq	96(%rsp), %r15
	jne	.LBB17_67
	movl	$1, %eax
	.p2align	4
.LBB17_63:
	movzbl	159(%rsp,%rax), %ecx
	cmpb	$26, %cl
	je	.LBB17_138
	cmpq	%rdi, %rsi
	jae	.LBB17_262
	movb	%cl, (%r14,%rsi)
	incq	%rsi
	cmpq	%r13, %rax
	jge	.LBB17_67
	incq	%rax
	cmpq	%rdi, %rsi
	jl	.LBB17_63
.LBB17_67:
	cmpl	%r15d, %ebx
	jb	.LBB17_138
	cmpq	$2, %rsi
	movq	144(%rsp), %r13
	jl	.LBB17_72
	cmpl	%r15d, %ebx
	jne	.LBB17_72
	leaq	-2(%rsi), %r9
	cmpq	%rdi, %rsi
	jg	.LBB17_269
	addq	%r14, %r9
	movq	%r9, 112(%rsp)
	movq	$2, 120(%rsp)
	leaq	112(%rsp), %rcx
	leaq	".Lggv$os::[os_windows.odin]::read_console$6"(%rip), %rdx
	callq	"runtime::string_eq"
	testb	%al, %al
	jne	.LBB17_227
.LBB17_72:
	cmpq	%rdi, %rsi
	jge	.LBB17_138
	movq	64(%rsp), %rdx
	testl	%edx, %edx
	je	.LBB17_18
	jmp	.LBB17_139
.LBB17_74:
	testq	%rbx, %rbx
	je	.LBB17_117
	testq	%r12, %r12
	js	.LBB17_144
	movl	$1, %r15d
	testq	%rbx, %rbx
	jle	.LBB17_252
	vxorps	%xmm6, %xmm6, %xmm6
	movabsq	$4294967297, %rax
	leaq	1(%rax), %rcx
	movq	%rcx, 64(%rsp)
	movabsq	$8589934593, %rcx
	leaq	15(%rcx), %rdx
	movq	%rdx, 96(%rsp)
	addq	$4, %rax
	movq	%rax, 88(%rsp)
	leaq	7(%rcx), %rax
	movq	%rax, 80(%rsp)
	xorl	%esi, %esi
	.p2align	4
.LBB17_78:
	movl	$1, %r8d
	movq	%r13, %rdi
	movq	%r13, %rcx
	xorl	%edx, %edx
	leaq	1704(%rsp), %r9
	callq	"os::seek"
	movq	%rax, %rbp
	shrq	$32, %rax
	movl	$0, %r13d
	jne	.LBB17_103
	cmpq	$1073741824, %rbx
	movl	$1073741824, %r8d
	cmovbq	%rbx, %r8
	movq	1704(%rsp), %r13
	movq	%r12, %rax
	shrq	$32, %rax
	vmovaps	%xmm6, 160(%rsp)
	movl	%r12d, 176(%rsp)
	movl	%eax, 180(%rsp)
	movq	$0, 184(%rsp)
	movl	$0, 60(%rsp)
	leaq	160(%rsp), %rax
	movq	%rax, 32(%rsp)
	movq	%rdi, %rcx
	movq	%r14, %rdx
	leaq	60(%rsp), %r9
	callq	ReadFile
	testl	%eax, %eax
	je	.LBB17_81
	movq	%r13, %rdx
	movl	60(%rsp), %r13d
	xorl	%ebp, %ebp
	jmp	.LBB17_102
.LBB17_81:
	callq	GetLastError
	movl	%eax, %ebp
	cmpl	$130, %eax
	jg	.LBB17_85
	cmpl	$80, %eax
	ja	.LBB17_100
	leaq	.LJTI17_4(%rip), %rcx
	movslq	(%rcx,%rbp,4), %rax
	addq	%rcx, %rax
	jmpq	*%rax
.LBB17_84:
	movq	%r13, %rdx
	movq	64(%rsp), %rbp
	jmp	.LBB17_101
.LBB17_85:
	cmpl	$231, %eax
	jle	.LBB17_90
	cmpl	$232, %eax
	je	.LBB17_99
	cmpl	$258, %eax
	je	.LBB17_89
	cmpl	$1460, %eax
	jne	.LBB17_100
.LBB17_89:
	movq	%r13, %rdx
	movabsq	$4294967297, %rax
	leaq	2(%rax), %rbp
	jmp	.LBB17_101
.LBB17_90:
	cmpl	$131, %eax
	je	.LBB17_98
	cmpl	$183, %eax
	jne	.LBB17_100
.LBB17_92:
	movq	%r13, %rdx
	movabsq	$4294967297, %rbp
	jmp	.LBB17_101
.LBB17_93:
	movq	%r13, %rdx
	movq	96(%rsp), %rbp
	jmp	.LBB17_101
.LBB17_94:
	movq	%r13, %rdx
	movabsq	$8589934593, %rbp
	jmp	.LBB17_101
.LBB17_95:
	movq	%r13, %rdx
	jmp	.LBB17_101
.LBB17_96:
	movq	%r13, %rdx
	movq	88(%rsp), %rbp
	jmp	.LBB17_101
.LBB17_97:
	movq	%r13, %rdx
	movabsq	$12884901887, %rbp
	jmp	.LBB17_101
.LBB17_98:
	movq	%r13, %rdx
	movq	80(%rsp), %rbp
	jmp	.LBB17_101
.LBB17_99:
	movq	%r13, %rdx
	movabsq	$8589934593, %rax
	leaq	16(%rax), %rbp
	jmp	.LBB17_101
.LBB17_100:
	movq	%r13, %rdx
	movabsq	$17179869184, %rax
	addq	%rax, %rbp
.LBB17_101:
	movl	$0, 60(%rsp)
	xorl	%r13d, %r13d
.LBB17_102:
	movq	%rdi, %rcx
	xorl	%r8d, %r8d
	leaq	112(%rsp), %r9
	callq	"os::seek"
.LBB17_103:
	movq	%rbp, %rax
	shrq	$32, %rax
	jne	.LBB17_150
	cmpq	%r13, %rbx
	jb	.LBB17_264
	addq	%r13, %rsi
	addq	%r13, %r14
	addq	%r13, %r12
	subq	%r13, %rbx
	movq	%rdi, %r13
	jg	.LBB17_78
	jmp	.LBB17_152
.LBB17_106:
	movq	$0, 160(%rsp)
	leaq	160(%rsp), %rdx
	movq	%r13, %rcx
	callq	GetFileSizeEx
	testl	%eax, %eax
	je	.LBB17_126
	xorl	%edi, %edi
.LBB17_108:
	movq	160(%rsp), %rsi
.LBB17_109:
	movq	%rdi, %rax
	shrq	$32, %rax
	jmp	.LBB17_247
.LBB17_110:
	movq	%r13, %rcx
	callq	FlushFileBuffers
	testl	%eax, %eax
	je	.LBB17_134
.LBB17_111:
	xorl	%edi, %edi
.LBB17_112:
	movq	%rdi, %rax
	shrq	$32, %rax
	xorl	%esi, %esi
	jmp	.LBB17_247
.LBB17_113:
	testq	%rbx, %rbx
	je	.LBB17_117
	movabsq	$8589934593, %rdi
	testq	%r12, %r12
	js	.LBB17_145
	testq	%rbx, %rbx
	jle	.LBB17_157
	vxorps	%xmm6, %xmm6, %xmm6
	leaq	60(%rsp), %rbp
	xorl	%esi, %esi
	jmp	.LBB17_122
.LBB17_117:
	xorl	%esi, %esi
	xorl	%r15d, %r15d
	jmp	.LBB17_253
.LBB17_118:
	movq	2608(%rsp), %r8
	leaq	152(%rsp), %r9
	movq	%r13, %rcx
	movq	%r12, %rdx
	callq	"os::seek"
	movq	%rax, %rdi
	shrq	$32, %rax
	movq	152(%rsp), %rsi
	jmp	.LBB17_247
.LBB17_119:
	movl	$-1, %r15d
	jmp	.LBB17_252
.LBB17_120:
	movq	%r13, %rcx
	movl	60(%rsp), %r13d
	movq	%rcx, %rdi
	movq	%r15, %rdx
	xorl	%r8d, %r8d
	leaq	112(%rsp), %r9
	callq	"os::seek"
	cmpq	%r13, %rbx
	jb	.LBB17_267
.LBB17_121:
	addq	%r13, %rsi
	addq	%r13, %r14
	addq	%r13, %r12
	subq	%r13, %rbx
	movq	%rdi, %r13
	jle	.LBB17_204
.LBB17_122:
	movl	$1, %r8d
	movq	%r13, %rcx
	xorl	%edx, %edx
	leaq	1704(%rsp), %r9
	callq	"os::seek"
	movq	%rax, %rcx
	shrq	$32, %rcx
	jne	.LBB17_203
	cmpq	$1073741824, %rbx
	movl	$1073741824, %r8d
	cmovbq	%rbx, %r8
	movq	1704(%rsp), %r15
	movq	%r12, %rax
	shrq	$32, %rax
	vmovaps	%xmm6, 160(%rsp)
	movl	%r12d, 176(%rsp)
	movl	%eax, 180(%rsp)
	movq	$0, 184(%rsp)
	movl	$0, 60(%rsp)
	leaq	160(%rsp), %rax
	movq	%rax, 32(%rsp)
	movq	%r13, %rcx
	movq	%r14, %rdx
	movq	%rbp, %r9
	callq	WriteFile
	testl	%eax, %eax
	jne	.LBB17_120
	callq	GetLastError
	testl	%eax, %eax
	jne	.LBB17_153
	movl	$0, 60(%rsp)
	movq	%r13, %rdi
	movq	%r13, %rcx
	movq	%r15, %rdx
	xorl	%r8d, %r8d
	leaq	112(%rsp), %r9
	callq	"os::seek"
	xorl	%r13d, %r13d
	jmp	.LBB17_121
.LBB17_126:
	callq	GetLastError
	movl	%eax, %edi
	cmpl	$130, %eax
	jg	.LBB17_159
	cmpl	$80, %eax
	ja	.LBB17_226
	leaq	.LJTI17_1(%rip), %rax
	movslq	(%rax,%rdi,4), %rcx
	addq	%rax, %rcx
	jmpq	*%rcx
.LBB17_129:
	movabsq	$4294967297, %rdi
	incq	%rdi
	jmp	.LBB17_108
.LBB17_134:
	callq	GetLastError
	movl	%eax, %edi
	cmpl	$130, %eax
	jg	.LBB17_168
	cmpl	$80, %eax
	ja	.LBB17_202
	leaq	.LJTI17_7(%rip), %rax
	movslq	(%rax,%rdi,4), %rcx
	addq	%rax, %rcx
	jmpq	*%rcx
.LBB17_137:
	movabsq	$4294967297, %rdi
	incq	%rdi
	jmp	.LBB17_112
.LBB17_138:
	movq	64(%rsp), %rdx
.LBB17_139:
	movq	%rdx, %rax
	shlq	$32, %rax
	movl	%ebp, %ecx
	orq	%rax, %rcx
	xorl	%edi, %edi
	testl	%edx, %edx
	cmovneq	%rcx, %rdi
	jmp	.LBB17_245
.LBB17_140:
	movl	$1, %r15d
	jmp	.LBB17_252
.LBB17_141:
	movl	$0, 72(%rsp)
	movq	$0, 32(%rsp)
	leaq	72(%rsp), %r9
	movq	%r13, %rcx
	movq	%r14, %rdx
	movl	%edi, %r8d
	callq	ReadFile
	testl	%eax, %eax
	je	.LBB17_177
	movl	72(%rsp), %esi
	testq	%rsi, %rsi
	jne	.LBB17_253
.LBB17_143:
	movabsq	$8589934593, %rdi
	jmp	.LBB17_158
.LBB17_144:
	movl	$8, %r15d
	jmp	.LBB17_252
.LBB17_145:
	addq	$7, %rdi
	jmp	.LBB17_158
.LBB17_146:
	callq	GetLastError
	movl	%eax, %edi
	cmpl	$130, %eax
	jg	.LBB17_181
	cmpl	$80, %eax
	ja	.LBB17_237
	leaq	.LJTI17_3(%rip), %rax
	movslq	(%rax,%rdi,4), %rcx
	addq	%rax, %rcx
	jmpq	*%rcx
.LBB17_149:
	movabsq	$4294967297, %rdi
	incq	%rdi
	jmp	.LBB17_11
.LBB17_150:
	movl	%ebp, %edi
	cmpl	$2, %eax
	jne	.LBB17_173
	cmpq	$1, %rdi
	jne	.LBB17_173
.LBB17_152:
	xorl	%ebp, %ebp
	xorl	%edi, %edi
	jmp	.LBB17_174
.LBB17_153:
	cmpl	$130, %eax
	jg	.LBB17_186
	leal	-2(%rax), %ecx
	cmpl	$78, %ecx
	movabsq	$8589934593, %rdi
	ja	.LBB17_243
	leaq	.LJTI17_2(%rip), %rdx
	movslq	(%rdx,%rcx,4), %rcx
	addq	%rdx, %rcx
	jmpq	*%rcx
.LBB17_156:
	addq	$15, %rdi
	jmp	.LBB17_244
.LBB17_157:
	xorl	%edi, %edi
.LBB17_158:
	movq	%rdi, %rax
	shrq	$32, %rax
	jmp	.LBB17_246
.LBB17_159:
	cmpl	$231, %eax
	jle	.LBB17_191
	cmpl	$232, %eax
	je	.LBB17_224
	cmpl	$258, %eax
	je	.LBB17_163
	cmpl	$1460, %eax
	jne	.LBB17_226
.LBB17_163:
	movabsq	$4294967297, %rdi
	orq	$2, %rdi
	jmp	.LBB17_108
.LBB17_164:
	cmpl	$231, %eax
	jg	.LBB17_169
	cmpl	$131, %eax
	je	.LBB17_199
	cmpl	$183, %eax
	je	.LBB17_167
	jmp	.LBB17_202
.LBB17_168:
	cmpl	$231, %eax
	jle	.LBB17_194
.LBB17_169:
	cmpl	$232, %eax
	je	.LBB17_200
	cmpl	$258, %eax
	je	.LBB17_172
	cmpl	$1460, %eax
	jne	.LBB17_202
.LBB17_172:
	movabsq	$4294967297, %rdi
	orq	$2, %rdi
	jmp	.LBB17_112
.LBB17_173:
	movabsq	$-4294967296, %rax
	andq	%rax, %rbp
.LBB17_174:
	orq	%rbp, %rdi
	movq	%rbp, %rax
	shrq	$32, %rax
	testq	%rsi, %rsi
	jne	.LBB17_247
	xorl	%esi, %esi
	testq	%rbp, %rbp
	jne	.LBB17_247
	jmp	.LBB17_253
.LBB17_176:
	movabsq	$8589934593, %rdi
	addq	$15, %rdi
	jmp	.LBB17_112
.LBB17_177:
	callq	GetLastError
	movl	%eax, %edi
	cmpl	$130, %eax
	jg	.LBB17_205
	cmpl	$80, %eax
	ja	.LBB17_259
	leaq	.LJTI17_6(%rip), %rax
	movslq	(%rax,%rdi,4), %rcx
	addq	%rax, %rcx
	jmpq	*%rcx
.LBB17_180:
	movabsq	$4294967297, %rdi
	incq	%rdi
	jmp	.LBB17_158
.LBB17_181:
	cmpl	$231, %eax
	jle	.LBB17_210
	cmpl	$232, %eax
	je	.LBB17_233
	cmpl	$258, %eax
	je	.LBB17_185
	cmpl	$1460, %eax
	jne	.LBB17_237
.LBB17_185:
	movabsq	$4294967297, %rdi
	orq	$2, %rdi
	jmp	.LBB17_11
.LBB17_186:
	cmpl	$231, %eax
	movabsq	$8589934593, %rdi
	jle	.LBB17_214
	cmpl	$232, %eax
	je	.LBB17_242
	cmpl	$258, %eax
	je	.LBB17_190
	cmpl	$1460, %eax
	jne	.LBB17_243
.LBB17_190:
	movabsq	$4294967297, %rdi
	orq	$2, %rdi
	jmp	.LBB17_244
.LBB17_191:
	cmpl	$131, %eax
	je	.LBB17_223
	cmpl	$183, %eax
	jne	.LBB17_226
.LBB17_193:
	movabsq	$4294967297, %rdi
	jmp	.LBB17_108
.LBB17_194:
	cmpl	$131, %eax
	je	.LBB17_199
	cmpl	$183, %eax
	jne	.LBB17_202
.LBB17_167:
	movabsq	$4294967297, %rdi
	jmp	.LBB17_112
.LBB17_197:
	movabsq	$8589934593, %rdi
	addq	$15, %rdi
	jmp	.LBB17_108
.LBB17_133:
	movabsq	$8589934593, %rdi
	jmp	.LBB17_112
.LBB17_198:
	movabsq	$4294967297, %rdi
	orq	$4, %rdi
	jmp	.LBB17_112
.LBB17_222:
	movabsq	$12884901887, %rdi
	jmp	.LBB17_112
.LBB17_199:
	movabsq	$8589934593, %rdi
	addq	$7, %rdi
	jmp	.LBB17_112
.LBB17_200:
	movabsq	$8589934593, %rdi
	orq	$16, %rdi
	jmp	.LBB17_112
.LBB17_202:
	movabsq	$17179869184, %rax
	orq	%rax, %rdi
	jmp	.LBB17_112
.LBB17_203:
	movq	%rax, %rdi
	jmp	.LBB17_245
.LBB17_204:
	xorl	%edi, %edi
	jmp	.LBB17_245
.LBB17_205:
	cmpl	$231, %eax
	jle	.LBB17_234
	cmpl	$232, %eax
	je	.LBB17_258
	cmpl	$258, %eax
	je	.LBB17_209
	cmpl	$1460, %eax
	jne	.LBB17_259
.LBB17_209:
	movabsq	$4294967297, %rdi
	orq	$2, %rdi
	jmp	.LBB17_158
.LBB17_210:
	cmpl	$131, %eax
	je	.LBB17_232
	cmpl	$183, %eax
	jne	.LBB17_237
.LBB17_212:
	movabsq	$4294967297, %rdi
	jmp	.LBB17_11
.LBB17_213:
	movabsq	$8589934593, %rdi
	addq	$15, %rdi
	jmp	.LBB17_11
.LBB17_214:
	cmpl	$131, %eax
	je	.LBB17_241
	cmpl	$183, %eax
	jne	.LBB17_243
.LBB17_216:
	movabsq	$4294967297, %rdi
	jmp	.LBB17_244
.LBB17_217:
	movabsq	$8589934593, %rdi
	jmp	.LBB17_108
.LBB17_219:
	movabsq	$4294967297, %rdi
	orq	$4, %rdi
	jmp	.LBB17_108
.LBB17_220:
	movabsq	$12884901887, %rdi
	jmp	.LBB17_108
.LBB17_223:
	movabsq	$8589934593, %rdi
	addq	$7, %rdi
	jmp	.LBB17_108
.LBB17_224:
	movabsq	$8589934593, %rdi
	orq	$16, %rdi
	jmp	.LBB17_108
.LBB17_225:
	movabsq	$4294967297, %rdi
	incq	%rdi
	jmp	.LBB17_244
.LBB17_226:
	movabsq	$17179869184, %rax
	orq	%rax, %rdi
	jmp	.LBB17_108
.LBB17_227:
	movq	64(%rsp), %rdx
	movq	%rdx, %rax
	shlq	$32, %rax
	movl	%ebp, %ecx
	orq	%rax, %rcx
	xorl	%edi, %edi
	testl	%edx, %edx
	cmovneq	%rcx, %rdi
	jmp	.LBB17_109
.LBB17_229:
	movabsq	$8589934593, %rdi
	jmp	.LBB17_11
.LBB17_230:
	movabsq	$4294967297, %rdi
	orq	$4, %rdi
	jmp	.LBB17_11
.LBB17_231:
	movabsq	$12884901887, %rdi
	jmp	.LBB17_11
.LBB17_232:
	movabsq	$8589934593, %rdi
	addq	$7, %rdi
	jmp	.LBB17_11
.LBB17_233:
	movabsq	$8589934593, %rdi
	orq	$16, %rdi
	jmp	.LBB17_11
.LBB17_234:
	cmpl	$131, %eax
	je	.LBB17_257
	cmpl	$183, %eax
	jne	.LBB17_259
.LBB17_236:
	movabsq	$4294967297, %rdi
	jmp	.LBB17_158
.LBB17_237:
	movabsq	$17179869184, %rax
	orq	%rax, %rdi
	jmp	.LBB17_11
.LBB17_238:
	movabsq	$8589934593, %rdi
	addq	$15, %rdi
	jmp	.LBB17_158
.LBB17_239:
	movabsq	$4294967297, %rdi
	orq	$4, %rdi
	jmp	.LBB17_244
.LBB17_240:
	movabsq	$12884901887, %rdi
	jmp	.LBB17_244
.LBB17_241:
	addq	$7, %rdi
	jmp	.LBB17_244
.LBB17_242:
	addq	$16, %rdi
	jmp	.LBB17_244
.LBB17_243:
	movl	%eax, %eax
	movabsq	$17179869184, %rdi
	orq	%rax, %rdi
.LBB17_244:
	movl	$0, 60(%rsp)
	leaq	112(%rsp), %r9
	movq	%r13, %rcx
	movq	%r15, %rdx
	xorl	%r8d, %r8d
	callq	"os::seek"
.LBB17_245:
	movq	%rdi, %rax
	shrq	$32, %rax
	testq	%rsi, %rsi
	jne	.LBB17_247
.LBB17_246:
	xorl	%esi, %esi
	movq	%rdi, %rcx
	shrq	$32, %rcx
	movl	$1, %r15d
	je	.LBB17_253
.LBB17_247:
	testl	%eax, %eax
	je	.LBB17_250
	cmpl	$2, %eax
	jne	.LBB17_251
	xorl	%eax, %eax
	testl	%edi, %edi
	cmovneq	%rax, %rsi
	movl	%edi, %r15d
	jmp	.LBB17_253
.LBB17_250:
	movl	%eax, %r15d
	jmp	.LBB17_253
.LBB17_251:
	movl	$14, %r15d
.LBB17_252:
	xorl	%esi, %esi
.LBB17_253:
	movq	2616(%rsp), %rax
	movq	%rsi, (%rax)
	movl	%r15d, %eax
	vmovaps	2480(%rsp), %xmm6
	addq	$2504, %rsp
	popq	%rbx
	popq	%rbp
	popq	%rdi
	popq	%rsi
	popq	%r12
	popq	%r13
	popq	%r14
	popq	%r15
	retq
.LBB17_255:
	movabsq	$4294967297, %rdi
	orq	$4, %rdi
	jmp	.LBB17_158
.LBB17_256:
	movabsq	$12884901887, %rdi
	jmp	.LBB17_158
.LBB17_257:
	movabsq	$8589934593, %rdi
	addq	$7, %rdi
	jmp	.LBB17_158
.LBB17_258:
	movabsq	$8589934593, %rdi
	orq	$16, %rdi
	jmp	.LBB17_158
.LBB17_259:
	movabsq	$17179869184, %rax
	orq	%rax, %rdi
	jmp	.LBB17_158
.LBB17_260:
	movq	$1544, 40(%rsp)
	movq	$1544, 32(%rsp)
	leaq	".Lggv$utf16::decode_to_utf8$5"(%rip), %rcx
	movl	$190, %edx
	movl	$14, %r8d
	movq	%r13, %r9
	callq	"runtime::slice_handle_error"
.LBB17_261:
	movq	%rbx, 32(%rsp)
	leaq	".Lggv$utf16::decode_to_utf8$1"(%rip), %rcx
	movl	$180, %edx
	movl	$17, %r8d
	movq	%r15, %r9
	callq	"runtime::bounds_check_error.handle_error-0"
.LBB17_262:
	movq	%rdi, 32(%rsp)
	leaq	".Lggv$os::[os_windows.odin]::read_console$4"(%rip), %rcx
	movl	$416, %edx
	movl	$6, %r8d
	movq	%rsi, %r9
	callq	"runtime::bounds_check_error.handle_error-0"
.LBB17_263:
	movq	%rbx, 32(%rsp)
	leaq	".Lggv$os::write$1"(%rip), %rcx
	movl	$374, %edx
	movl	$48, %r8d
	movq	%rsi, %r9
	callq	"runtime::bounds_check_error.handle_error-0"
.LBB17_264:
	movq	%rbx, 40(%rsp)
	movq	%rbx, 32(%rsp)
	leaq	".Lggv$os::read_at$1"(%rip), %rcx
	movl	$580, %edx
	jmp	.LBB17_268
.LBB17_265:
	movq	%rbx, 32(%rsp)
	movq	$386, 40(%rsp)
	leaq	".Lggv$os::[os_windows.odin]::read_console$1"(%rip), %rcx
	movl	$406, %edx
	movl	$50, %r8d
	xorl	%r9d, %r9d
	callq	"runtime::slice_handle_error"
.LBB17_266:
	movq	%r13, 32(%rsp)
	movq	$1544, 40(%rsp)
	leaq	".Lggv$os::[os_windows.odin]::read_console$2"(%rip), %rcx
	movl	$407, %edx
	movl	$14, %r8d
	xorl	%r9d, %r9d
	callq	"runtime::slice_handle_error"
.LBB17_267:
	movq	%rbx, 40(%rsp)
	movq	%rbx, 32(%rsp)
	leaq	".Lggv$os::write_at$1"(%rip), %rcx
	movl	$595, %edx
.LBB17_268:
	movl	$8, %r8d
	movq	%r13, %r9
	callq	"runtime::slice_handle_error"
.LBB17_269:
	movq	%rdi, 40(%rsp)
	movq	%rsi, 32(%rsp)
	leaq	".Lggv$os::[os_windows.odin]::read_console$5"(%rip), %rcx
	movl	$425, %edx
	movl	$58, %r8d
	callq	"runtime::slice_handle_error"
.LBB17_270:
	movq	%rbx, 40(%rsp)
	movq	%rbx, 32(%rsp)
	leaq	".Lggv$os::read$1"(%rip), %rcx
	movl	$449, %edx
	movl	$46, %r8d
	xorl	%r9d, %r9d
	callq	"runtime::slice_handle_error"
	int3
	.section	.rdata,"dr"
	.p2align	2, 0x0
.LJTI17_0:
	.long	.LBB17_2-.LJTI17_0
	.long	.LBB17_110-.LJTI17_0
	.long	.LBB17_14-.LJTI17_0
	.long	.LBB17_74-.LJTI17_0
	.long	.LBB17_4-.LJTI17_0
	.long	.LBB17_113-.LJTI17_0
	.long	.LBB17_118-.LJTI17_0
	.long	.LBB17_106-.LJTI17_0
	.long	.LBB17_119-.LJTI17_0
	.long	.LBB17_13-.LJTI17_0
.LJTI17_1:
	.long	.LBB17_108-.LJTI17_1
	.long	.LBB17_226-.LJTI17_1
	.long	.LBB17_129-.LJTI17_1
	.long	.LBB17_129-.LJTI17_1
	.long	.LBB17_226-.LJTI17_1
	.long	.LBB17_197-.LJTI17_1
	.long	.LBB17_219-.LJTI17_1
	.long	.LBB17_226-.LJTI17_1
	.long	.LBB17_226-.LJTI17_1
	.long	.LBB17_226-.LJTI17_1
	.long	.LBB17_226-.LJTI17_1
	.long	.LBB17_226-.LJTI17_1
	.long	.LBB17_226-.LJTI17_1
	.long	.LBB17_226-.LJTI17_1
	.long	.LBB17_226-.LJTI17_1
	.long	.LBB17_226-.LJTI17_1
	.long	.LBB17_226-.LJTI17_1
	.long	.LBB17_226-.LJTI17_1
	.long	.LBB17_226-.LJTI17_1
	.long	.LBB17_226-.LJTI17_1
	.long	.LBB17_226-.LJTI17_1
	.long	.LBB17_226-.LJTI17_1
	.long	.LBB17_226-.LJTI17_1
	.long	.LBB17_226-.LJTI17_1
	.long	.LBB17_226-.LJTI17_1
	.long	.LBB17_226-.LJTI17_1
	.long	.LBB17_226-.LJTI17_1
	.long	.LBB17_226-.LJTI17_1
	.long	.LBB17_226-.LJTI17_1
	.long	.LBB17_226-.LJTI17_1
	.long	.LBB17_226-.LJTI17_1
	.long	.LBB17_226-.LJTI17_1
	.long	.LBB17_197-.LJTI17_1
	.long	.LBB17_226-.LJTI17_1
	.long	.LBB17_226-.LJTI17_1
	.long	.LBB17_226-.LJTI17_1
	.long	.LBB17_226-.LJTI17_1
	.long	.LBB17_226-.LJTI17_1
	.long	.LBB17_217-.LJTI17_1
	.long	.LBB17_226-.LJTI17_1
	.long	.LBB17_226-.LJTI17_1
	.long	.LBB17_226-.LJTI17_1
	.long	.LBB17_226-.LJTI17_1
	.long	.LBB17_226-.LJTI17_1
	.long	.LBB17_226-.LJTI17_1
	.long	.LBB17_226-.LJTI17_1
	.long	.LBB17_226-.LJTI17_1
	.long	.LBB17_226-.LJTI17_1
	.long	.LBB17_226-.LJTI17_1
	.long	.LBB17_226-.LJTI17_1
	.long	.LBB17_220-.LJTI17_1
	.long	.LBB17_226-.LJTI17_1
	.long	.LBB17_226-.LJTI17_1
	.long	.LBB17_226-.LJTI17_1
	.long	.LBB17_226-.LJTI17_1
	.long	.LBB17_226-.LJTI17_1
	.long	.LBB17_226-.LJTI17_1
	.long	.LBB17_226-.LJTI17_1
	.long	.LBB17_226-.LJTI17_1
	.long	.LBB17_226-.LJTI17_1
	.long	.LBB17_226-.LJTI17_1
	.long	.LBB17_226-.LJTI17_1
	.long	.LBB17_226-.LJTI17_1
	.long	.LBB17_226-.LJTI17_1
	.long	.LBB17_226-.LJTI17_1
	.long	.LBB17_226-.LJTI17_1
	.long	.LBB17_226-.LJTI17_1
	.long	.LBB17_226-.LJTI17_1
	.long	.LBB17_226-.LJTI17_1
	.long	.LBB17_226-.LJTI17_1
	.long	.LBB17_226-.LJTI17_1
	.long	.LBB17_226-.LJTI17_1
	.long	.LBB17_226-.LJTI17_1
	.long	.LBB17_226-.LJTI17_1
	.long	.LBB17_226-.LJTI17_1
	.long	.LBB17_226-.LJTI17_1
	.long	.LBB17_226-.LJTI17_1
	.long	.LBB17_226-.LJTI17_1
	.long	.LBB17_226-.LJTI17_1
	.long	.LBB17_226-.LJTI17_1
	.long	.LBB17_193-.LJTI17_1
.LJTI17_2:
	.long	.LBB17_225-.LJTI17_2
	.long	.LBB17_225-.LJTI17_2
	.long	.LBB17_243-.LJTI17_2
	.long	.LBB17_156-.LJTI17_2
	.long	.LBB17_239-.LJTI17_2
	.long	.LBB17_243-.LJTI17_2
	.long	.LBB17_243-.LJTI17_2
	.long	.LBB17_243-.LJTI17_2
	.long	.LBB17_243-.LJTI17_2
	.long	.LBB17_243-.LJTI17_2
	.long	.LBB17_243-.LJTI17_2
	.long	.LBB17_243-.LJTI17_2
	.long	.LBB17_243-.LJTI17_2
	.long	.LBB17_243-.LJTI17_2
	.long	.LBB17_243-.LJTI17_2
	.long	.LBB17_243-.LJTI17_2
	.long	.LBB17_243-.LJTI17_2
	.long	.LBB17_243-.LJTI17_2
	.long	.LBB17_243-.LJTI17_2
	.long	.LBB17_243-.LJTI17_2
	.long	.LBB17_243-.LJTI17_2
	.long	.LBB17_243-.LJTI17_2
	.long	.LBB17_243-.LJTI17_2
	.long	.LBB17_243-.LJTI17_2
	.long	.LBB17_243-.LJTI17_2
	.long	.LBB17_243-.LJTI17_2
	.long	.LBB17_243-.LJTI17_2
	.long	.LBB17_243-.LJTI17_2
	.long	.LBB17_243-.LJTI17_2
	.long	.LBB17_243-.LJTI17_2
	.long	.LBB17_156-.LJTI17_2
	.long	.LBB17_243-.LJTI17_2
	.long	.LBB17_243-.LJTI17_2
	.long	.LBB17_243-.LJTI17_2
	.long	.LBB17_243-.LJTI17_2
	.long	.LBB17_243-.LJTI17_2
	.long	.LBB17_244-.LJTI17_2
	.long	.LBB17_243-.LJTI17_2
	.long	.LBB17_243-.LJTI17_2
	.long	.LBB17_243-.LJTI17_2
	.long	.LBB17_243-.LJTI17_2
	.long	.LBB17_243-.LJTI17_2
	.long	.LBB17_243-.LJTI17_2
	.long	.LBB17_243-.LJTI17_2
	.long	.LBB17_243-.LJTI17_2
	.long	.LBB17_243-.LJTI17_2
	.long	.LBB17_243-.LJTI17_2
	.long	.LBB17_243-.LJTI17_2
	.long	.LBB17_240-.LJTI17_2
	.long	.LBB17_243-.LJTI17_2
	.long	.LBB17_243-.LJTI17_2
	.long	.LBB17_243-.LJTI17_2
	.long	.LBB17_243-.LJTI17_2
	.long	.LBB17_243-.LJTI17_2
	.long	.LBB17_243-.LJTI17_2
	.long	.LBB17_243-.LJTI17_2
	.long	.LBB17_243-.LJTI17_2
	.long	.LBB17_243-.LJTI17_2
	.long	.LBB17_243-.LJTI17_2
	.long	.LBB17_243-.LJTI17_2
	.long	.LBB17_243-.LJTI17_2
	.long	.LBB17_243-.LJTI17_2
	.long	.LBB17_243-.LJTI17_2
	.long	.LBB17_243-.LJTI17_2
	.long	.LBB17_243-.LJTI17_2
	.long	.LBB17_243-.LJTI17_2
	.long	.LBB17_243-.LJTI17_2
	.long	.LBB17_243-.LJTI17_2
	.long	.LBB17_243-.LJTI17_2
	.long	.LBB17_243-.LJTI17_2
	.long	.LBB17_243-.LJTI17_2
	.long	.LBB17_243-.LJTI17_2
	.long	.LBB17_243-.LJTI17_2
	.long	.LBB17_243-.LJTI17_2
	.long	.LBB17_243-.LJTI17_2
	.long	.LBB17_243-.LJTI17_2
	.long	.LBB17_243-.LJTI17_2
	.long	.LBB17_243-.LJTI17_2
	.long	.LBB17_216-.LJTI17_2
.LJTI17_3:
	.long	.LBB17_11-.LJTI17_3
	.long	.LBB17_237-.LJTI17_3
	.long	.LBB17_149-.LJTI17_3
	.long	.LBB17_149-.LJTI17_3
	.long	.LBB17_237-.LJTI17_3
	.long	.LBB17_213-.LJTI17_3
	.long	.LBB17_230-.LJTI17_3
	.long	.LBB17_237-.LJTI17_3
	.long	.LBB17_237-.LJTI17_3
	.long	.LBB17_237-.LJTI17_3
	.long	.LBB17_237-.LJTI17_3
	.long	.LBB17_237-.LJTI17_3
	.long	.LBB17_237-.LJTI17_3
	.long	.LBB17_237-.LJTI17_3
	.long	.LBB17_237-.LJTI17_3
	.long	.LBB17_237-.LJTI17_3
	.long	.LBB17_237-.LJTI17_3
	.long	.LBB17_237-.LJTI17_3
	.long	.LBB17_237-.LJTI17_3
	.long	.LBB17_237-.LJTI17_3
	.long	.LBB17_237-.LJTI17_3
	.long	.LBB17_237-.LJTI17_3
	.long	.LBB17_237-.LJTI17_3
	.long	.LBB17_237-.LJTI17_3
	.long	.LBB17_237-.LJTI17_3
	.long	.LBB17_237-.LJTI17_3
	.long	.LBB17_237-.LJTI17_3
	.long	.LBB17_237-.LJTI17_3
	.long	.LBB17_237-.LJTI17_3
	.long	.LBB17_237-.LJTI17_3
	.long	.LBB17_237-.LJTI17_3
	.long	.LBB17_237-.LJTI17_3
	.long	.LBB17_213-.LJTI17_3
	.long	.LBB17_237-.LJTI17_3
	.long	.LBB17_237-.LJTI17_3
	.long	.LBB17_237-.LJTI17_3
	.long	.LBB17_237-.LJTI17_3
	.long	.LBB17_237-.LJTI17_3
	.long	.LBB17_229-.LJTI17_3
	.long	.LBB17_237-.LJTI17_3
	.long	.LBB17_237-.LJTI17_3
	.long	.LBB17_237-.LJTI17_3
	.long	.LBB17_237-.LJTI17_3
	.long	.LBB17_237-.LJTI17_3
	.long	.LBB17_237-.LJTI17_3
	.long	.LBB17_237-.LJTI17_3
	.long	.LBB17_237-.LJTI17_3
	.long	.LBB17_237-.LJTI17_3
	.long	.LBB17_237-.LJTI17_3
	.long	.LBB17_237-.LJTI17_3
	.long	.LBB17_231-.LJTI17_3
	.long	.LBB17_237-.LJTI17_3
	.long	.LBB17_237-.LJTI17_3
	.long	.LBB17_237-.LJTI17_3
	.long	.LBB17_237-.LJTI17_3
	.long	.LBB17_237-.LJTI17_3
	.long	.LBB17_237-.LJTI17_3
	.long	.LBB17_237-.LJTI17_3
	.long	.LBB17_237-.LJTI17_3
	.long	.LBB17_237-.LJTI17_3
	.long	.LBB17_237-.LJTI17_3
	.long	.LBB17_237-.LJTI17_3
	.long	.LBB17_237-.LJTI17_3
	.long	.LBB17_237-.LJTI17_3
	.long	.LBB17_237-.LJTI17_3
	.long	.LBB17_237-.LJTI17_3
	.long	.LBB17_237-.LJTI17_3
	.long	.LBB17_237-.LJTI17_3
	.long	.LBB17_237-.LJTI17_3
	.long	.LBB17_237-.LJTI17_3
	.long	.LBB17_237-.LJTI17_3
	.long	.LBB17_237-.LJTI17_3
	.long	.LBB17_237-.LJTI17_3
	.long	.LBB17_237-.LJTI17_3
	.long	.LBB17_237-.LJTI17_3
	.long	.LBB17_237-.LJTI17_3
	.long	.LBB17_237-.LJTI17_3
	.long	.LBB17_237-.LJTI17_3
	.long	.LBB17_237-.LJTI17_3
	.long	.LBB17_237-.LJTI17_3
	.long	.LBB17_212-.LJTI17_3
.LJTI17_4:
	.long	.LBB17_95-.LJTI17_4
	.long	.LBB17_100-.LJTI17_4
	.long	.LBB17_84-.LJTI17_4
	.long	.LBB17_84-.LJTI17_4
	.long	.LBB17_100-.LJTI17_4
	.long	.LBB17_93-.LJTI17_4
	.long	.LBB17_96-.LJTI17_4
	.long	.LBB17_100-.LJTI17_4
	.long	.LBB17_100-.LJTI17_4
	.long	.LBB17_100-.LJTI17_4
	.long	.LBB17_100-.LJTI17_4
	.long	.LBB17_100-.LJTI17_4
	.long	.LBB17_100-.LJTI17_4
	.long	.LBB17_100-.LJTI17_4
	.long	.LBB17_100-.LJTI17_4
	.long	.LBB17_100-.LJTI17_4
	.long	.LBB17_100-.LJTI17_4
	.long	.LBB17_100-.LJTI17_4
	.long	.LBB17_100-.LJTI17_4
	.long	.LBB17_100-.LJTI17_4
	.long	.LBB17_100-.LJTI17_4
	.long	.LBB17_100-.LJTI17_4
	.long	.LBB17_100-.LJTI17_4
	.long	.LBB17_100-.LJTI17_4
	.long	.LBB17_100-.LJTI17_4
	.long	.LBB17_100-.LJTI17_4
	.long	.LBB17_100-.LJTI17_4
	.long	.LBB17_100-.LJTI17_4
	.long	.LBB17_100-.LJTI17_4
	.long	.LBB17_100-.LJTI17_4
	.long	.LBB17_100-.LJTI17_4
	.long	.LBB17_100-.LJTI17_4
	.long	.LBB17_93-.LJTI17_4
	.long	.LBB17_100-.LJTI17_4
	.long	.LBB17_100-.LJTI17_4
	.long	.LBB17_100-.LJTI17_4
	.long	.LBB17_100-.LJTI17_4
	.long	.LBB17_100-.LJTI17_4
	.long	.LBB17_94-.LJTI17_4
	.long	.LBB17_100-.LJTI17_4
	.long	.LBB17_100-.LJTI17_4
	.long	.LBB17_100-.LJTI17_4
	.long	.LBB17_100-.LJTI17_4
	.long	.LBB17_100-.LJTI17_4
	.long	.LBB17_100-.LJTI17_4
	.long	.LBB17_100-.LJTI17_4
	.long	.LBB17_100-.LJTI17_4
	.long	.LBB17_100-.LJTI17_4
	.long	.LBB17_100-.LJTI17_4
	.long	.LBB17_100-.LJTI17_4
	.long	.LBB17_97-.LJTI17_4
	.long	.LBB17_100-.LJTI17_4
	.long	.LBB17_100-.LJTI17_4
	.long	.LBB17_100-.LJTI17_4
	.long	.LBB17_100-.LJTI17_4
	.long	.LBB17_100-.LJTI17_4
	.long	.LBB17_100-.LJTI17_4
	.long	.LBB17_100-.LJTI17_4
	.long	.LBB17_100-.LJTI17_4
	.long	.LBB17_100-.LJTI17_4
	.long	.LBB17_100-.LJTI17_4
	.long	.LBB17_100-.LJTI17_4
	.long	.LBB17_100-.LJTI17_4
	.long	.LBB17_100-.LJTI17_4
	.long	.LBB17_100-.LJTI17_4
	.long	.LBB17_100-.LJTI17_4
	.long	.LBB17_100-.LJTI17_4
	.long	.LBB17_100-.LJTI17_4
	.long	.LBB17_100-.LJTI17_4
	.long	.LBB17_100-.LJTI17_4
	.long	.LBB17_100-.LJTI17_4
	.long	.LBB17_100-.LJTI17_4
	.long	.LBB17_100-.LJTI17_4
	.long	.LBB17_100-.LJTI17_4
	.long	.LBB17_100-.LJTI17_4
	.long	.LBB17_100-.LJTI17_4
	.long	.LBB17_100-.LJTI17_4
	.long	.LBB17_100-.LJTI17_4
	.long	.LBB17_100-.LJTI17_4
	.long	.LBB17_100-.LJTI17_4
	.long	.LBB17_92-.LJTI17_4
.LJTI17_5:
	.long	.LBB17_38-.LJTI17_5
	.long	.LBB17_37-.LJTI17_5
	.long	.LBB17_22-.LJTI17_5
	.long	.LBB17_22-.LJTI17_5
	.long	.LBB17_37-.LJTI17_5
	.long	.LBB17_31-.LJTI17_5
	.long	.LBB17_33-.LJTI17_5
	.long	.LBB17_37-.LJTI17_5
	.long	.LBB17_37-.LJTI17_5
	.long	.LBB17_37-.LJTI17_5
	.long	.LBB17_37-.LJTI17_5
	.long	.LBB17_37-.LJTI17_5
	.long	.LBB17_37-.LJTI17_5
	.long	.LBB17_37-.LJTI17_5
	.long	.LBB17_37-.LJTI17_5
	.long	.LBB17_37-.LJTI17_5
	.long	.LBB17_37-.LJTI17_5
	.long	.LBB17_37-.LJTI17_5
	.long	.LBB17_37-.LJTI17_5
	.long	.LBB17_37-.LJTI17_5
	.long	.LBB17_37-.LJTI17_5
	.long	.LBB17_37-.LJTI17_5
	.long	.LBB17_37-.LJTI17_5
	.long	.LBB17_37-.LJTI17_5
	.long	.LBB17_37-.LJTI17_5
	.long	.LBB17_37-.LJTI17_5
	.long	.LBB17_37-.LJTI17_5
	.long	.LBB17_37-.LJTI17_5
	.long	.LBB17_37-.LJTI17_5
	.long	.LBB17_37-.LJTI17_5
	.long	.LBB17_37-.LJTI17_5
	.long	.LBB17_37-.LJTI17_5
	.long	.LBB17_31-.LJTI17_5
	.long	.LBB17_37-.LJTI17_5
	.long	.LBB17_37-.LJTI17_5
	.long	.LBB17_37-.LJTI17_5
	.long	.LBB17_37-.LJTI17_5
	.long	.LBB17_37-.LJTI17_5
	.long	.LBB17_32-.LJTI17_5
	.long	.LBB17_37-.LJTI17_5
	.long	.LBB17_37-.LJTI17_5
	.long	.LBB17_37-.LJTI17_5
	.long	.LBB17_37-.LJTI17_5
	.long	.LBB17_37-.LJTI17_5
	.long	.LBB17_37-.LJTI17_5
	.long	.LBB17_37-.LJTI17_5
	.long	.LBB17_37-.LJTI17_5
	.long	.LBB17_37-.LJTI17_5
	.long	.LBB17_37-.LJTI17_5
	.long	.LBB17_37-.LJTI17_5
	.long	.LBB17_34-.LJTI17_5
	.long	.LBB17_37-.LJTI17_5
	.long	.LBB17_37-.LJTI17_5
	.long	.LBB17_37-.LJTI17_5
	.long	.LBB17_37-.LJTI17_5
	.long	.LBB17_37-.LJTI17_5
	.long	.LBB17_37-.LJTI17_5
	.long	.LBB17_37-.LJTI17_5
	.long	.LBB17_37-.LJTI17_5
	.long	.LBB17_37-.LJTI17_5
	.long	.LBB17_37-.LJTI17_5
	.long	.LBB17_37-.LJTI17_5
	.long	.LBB17_37-.LJTI17_5
	.long	.LBB17_37-.LJTI17_5
	.long	.LBB17_37-.LJTI17_5
	.long	.LBB17_37-.LJTI17_5
	.long	.LBB17_37-.LJTI17_5
	.long	.LBB17_37-.LJTI17_5
	.long	.LBB17_37-.LJTI17_5
	.long	.LBB17_37-.LJTI17_5
	.long	.LBB17_37-.LJTI17_5
	.long	.LBB17_37-.LJTI17_5
	.long	.LBB17_37-.LJTI17_5
	.long	.LBB17_37-.LJTI17_5
	.long	.LBB17_37-.LJTI17_5
	.long	.LBB17_37-.LJTI17_5
	.long	.LBB17_37-.LJTI17_5
	.long	.LBB17_37-.LJTI17_5
	.long	.LBB17_37-.LJTI17_5
	.long	.LBB17_37-.LJTI17_5
	.long	.LBB17_30-.LJTI17_5
.LJTI17_6:
	.long	.LBB17_158-.LJTI17_6
	.long	.LBB17_259-.LJTI17_6
	.long	.LBB17_180-.LJTI17_6
	.long	.LBB17_180-.LJTI17_6
	.long	.LBB17_259-.LJTI17_6
	.long	.LBB17_238-.LJTI17_6
	.long	.LBB17_255-.LJTI17_6
	.long	.LBB17_259-.LJTI17_6
	.long	.LBB17_259-.LJTI17_6
	.long	.LBB17_259-.LJTI17_6
	.long	.LBB17_259-.LJTI17_6
	.long	.LBB17_259-.LJTI17_6
	.long	.LBB17_259-.LJTI17_6
	.long	.LBB17_259-.LJTI17_6
	.long	.LBB17_259-.LJTI17_6
	.long	.LBB17_259-.LJTI17_6
	.long	.LBB17_259-.LJTI17_6
	.long	.LBB17_259-.LJTI17_6
	.long	.LBB17_259-.LJTI17_6
	.long	.LBB17_259-.LJTI17_6
	.long	.LBB17_259-.LJTI17_6
	.long	.LBB17_259-.LJTI17_6
	.long	.LBB17_259-.LJTI17_6
	.long	.LBB17_259-.LJTI17_6
	.long	.LBB17_259-.LJTI17_6
	.long	.LBB17_259-.LJTI17_6
	.long	.LBB17_259-.LJTI17_6
	.long	.LBB17_259-.LJTI17_6
	.long	.LBB17_259-.LJTI17_6
	.long	.LBB17_259-.LJTI17_6
	.long	.LBB17_259-.LJTI17_6
	.long	.LBB17_259-.LJTI17_6
	.long	.LBB17_238-.LJTI17_6
	.long	.LBB17_259-.LJTI17_6
	.long	.LBB17_259-.LJTI17_6
	.long	.LBB17_259-.LJTI17_6
	.long	.LBB17_259-.LJTI17_6
	.long	.LBB17_259-.LJTI17_6
	.long	.LBB17_143-.LJTI17_6
	.long	.LBB17_259-.LJTI17_6
	.long	.LBB17_259-.LJTI17_6
	.long	.LBB17_259-.LJTI17_6
	.long	.LBB17_259-.LJTI17_6
	.long	.LBB17_259-.LJTI17_6
	.long	.LBB17_259-.LJTI17_6
	.long	.LBB17_259-.LJTI17_6
	.long	.LBB17_259-.LJTI17_6
	.long	.LBB17_259-.LJTI17_6
	.long	.LBB17_259-.LJTI17_6
	.long	.LBB17_259-.LJTI17_6
	.long	.LBB17_256-.LJTI17_6
	.long	.LBB17_259-.LJTI17_6
	.long	.LBB17_259-.LJTI17_6
	.long	.LBB17_259-.LJTI17_6
	.long	.LBB17_259-.LJTI17_6
	.long	.LBB17_259-.LJTI17_6
	.long	.LBB17_259-.LJTI17_6
	.long	.LBB17_259-.LJTI17_6
	.long	.LBB17_259-.LJTI17_6
	.long	.LBB17_259-.LJTI17_6
	.long	.LBB17_259-.LJTI17_6
	.long	.LBB17_259-.LJTI17_6
	.long	.LBB17_259-.LJTI17_6
	.long	.LBB17_259-.LJTI17_6
	.long	.LBB17_259-.LJTI17_6
	.long	.LBB17_259-.LJTI17_6
	.long	.LBB17_259-.LJTI17_6
	.long	.LBB17_259-.LJTI17_6
	.long	.LBB17_259-.LJTI17_6
	.long	.LBB17_259-.LJTI17_6
	.long	.LBB17_259-.LJTI17_6
	.long	.LBB17_259-.LJTI17_6
	.long	.LBB17_259-.LJTI17_6
	.long	.LBB17_259-.LJTI17_6
	.long	.LBB17_259-.LJTI17_6
	.long	.LBB17_259-.LJTI17_6
	.long	.LBB17_259-.LJTI17_6
	.long	.LBB17_259-.LJTI17_6
	.long	.LBB17_259-.LJTI17_6
	.long	.LBB17_259-.LJTI17_6
	.long	.LBB17_236-.LJTI17_6
.LJTI17_7:
	.long	.LBB17_112-.LJTI17_7
	.long	.LBB17_202-.LJTI17_7
	.long	.LBB17_137-.LJTI17_7
	.long	.LBB17_137-.LJTI17_7
	.long	.LBB17_202-.LJTI17_7
	.long	.LBB17_176-.LJTI17_7
	.long	.LBB17_198-.LJTI17_7
	.long	.LBB17_202-.LJTI17_7
	.long	.LBB17_202-.LJTI17_7
	.long	.LBB17_202-.LJTI17_7
	.long	.LBB17_202-.LJTI17_7
	.long	.LBB17_202-.LJTI17_7
	.long	.LBB17_202-.LJTI17_7
	.long	.LBB17_202-.LJTI17_7
	.long	.LBB17_202-.LJTI17_7
	.long	.LBB17_202-.LJTI17_7
	.long	.LBB17_202-.LJTI17_7
	.long	.LBB17_202-.LJTI17_7
	.long	.LBB17_202-.LJTI17_7
	.long	.LBB17_202-.LJTI17_7
	.long	.LBB17_202-.LJTI17_7
	.long	.LBB17_202-.LJTI17_7
	.long	.LBB17_202-.LJTI17_7
	.long	.LBB17_202-.LJTI17_7
	.long	.LBB17_202-.LJTI17_7
	.long	.LBB17_202-.LJTI17_7
	.long	.LBB17_202-.LJTI17_7
	.long	.LBB17_202-.LJTI17_7
	.long	.LBB17_202-.LJTI17_7
	.long	.LBB17_202-.LJTI17_7
	.long	.LBB17_202-.LJTI17_7
	.long	.LBB17_202-.LJTI17_7
	.long	.LBB17_176-.LJTI17_7
	.long	.LBB17_202-.LJTI17_7
	.long	.LBB17_202-.LJTI17_7
	.long	.LBB17_202-.LJTI17_7
	.long	.LBB17_202-.LJTI17_7
	.long	.LBB17_202-.LJTI17_7
	.long	.LBB17_133-.LJTI17_7
	.long	.LBB17_202-.LJTI17_7
	.long	.LBB17_202-.LJTI17_7
	.long	.LBB17_202-.LJTI17_7
	.long	.LBB17_202-.LJTI17_7
	.long	.LBB17_202-.LJTI17_7
	.long	.LBB17_202-.LJTI17_7
	.long	.LBB17_202-.LJTI17_7
	.long	.LBB17_202-.LJTI17_7
	.long	.LBB17_202-.LJTI17_7
	.long	.LBB17_202-.LJTI17_7
	.long	.LBB17_202-.LJTI17_7
	.long	.LBB17_222-.LJTI17_7
	.long	.LBB17_202-.LJTI17_7
	.long	.LBB17_202-.LJTI17_7
	.long	.LBB17_202-.LJTI17_7
	.long	.LBB17_202-.LJTI17_7
	.long	.LBB17_202-.LJTI17_7
	.long	.LBB17_202-.LJTI17_7
	.long	.LBB17_202-.LJTI17_7
	.long	.LBB17_202-.LJTI17_7
	.long	.LBB17_202-.LJTI17_7
	.long	.LBB17_202-.LJTI17_7
	.long	.LBB17_202-.LJTI17_7
	.long	.LBB17_202-.LJTI17_7
	.long	.LBB17_202-.LJTI17_7
	.long	.LBB17_202-.LJTI17_7
	.long	.LBB17_202-.LJTI17_7
	.long	.LBB17_202-.LJTI17_7
	.long	.LBB17_202-.LJTI17_7
	.long	.LBB17_202-.LJTI17_7
	.long	.LBB17_202-.LJTI17_7
	.long	.LBB17_202-.LJTI17_7
	.long	.LBB17_202-.LJTI17_7
	.long	.LBB17_202-.LJTI17_7
	.long	.LBB17_202-.LJTI17_7
	.long	.LBB17_202-.LJTI17_7
	.long	.LBB17_202-.LJTI17_7
	.long	.LBB17_202-.LJTI17_7
	.long	.LBB17_202-.LJTI17_7
	.long	.LBB17_202-.LJTI17_7
	.long	.LBB17_202-.LJTI17_7
	.long	.LBB17_167-.LJTI17_7
.LJTI17_8:
	.long	.LBB17_112-.LJTI17_8
	.long	.LBB17_202-.LJTI17_8
	.long	.LBB17_137-.LJTI17_8
	.long	.LBB17_137-.LJTI17_8
	.long	.LBB17_202-.LJTI17_8
	.long	.LBB17_176-.LJTI17_8
	.long	.LBB17_198-.LJTI17_8
	.long	.LBB17_202-.LJTI17_8
	.long	.LBB17_202-.LJTI17_8
	.long	.LBB17_202-.LJTI17_8
	.long	.LBB17_202-.LJTI17_8
	.long	.LBB17_202-.LJTI17_8
	.long	.LBB17_202-.LJTI17_8
	.long	.LBB17_202-.LJTI17_8
	.long	.LBB17_202-.LJTI17_8
	.long	.LBB17_202-.LJTI17_8
	.long	.LBB17_202-.LJTI17_8
	.long	.LBB17_202-.LJTI17_8
	.long	.LBB17_202-.LJTI17_8
	.long	.LBB17_202-.LJTI17_8
	.long	.LBB17_202-.LJTI17_8
	.long	.LBB17_202-.LJTI17_8
	.long	.LBB17_202-.LJTI17_8
	.long	.LBB17_202-.LJTI17_8
	.long	.LBB17_202-.LJTI17_8
	.long	.LBB17_202-.LJTI17_8
	.long	.LBB17_202-.LJTI17_8
	.long	.LBB17_202-.LJTI17_8
	.long	.LBB17_202-.LJTI17_8
	.long	.LBB17_202-.LJTI17_8
	.long	.LBB17_202-.LJTI17_8
	.long	.LBB17_202-.LJTI17_8
	.long	.LBB17_176-.LJTI17_8
	.long	.LBB17_202-.LJTI17_8
	.long	.LBB17_202-.LJTI17_8
	.long	.LBB17_202-.LJTI17_8
	.long	.LBB17_202-.LJTI17_8
	.long	.LBB17_202-.LJTI17_8
	.long	.LBB17_133-.LJTI17_8
	.long	.LBB17_202-.LJTI17_8
	.long	.LBB17_202-.LJTI17_8
	.long	.LBB17_202-.LJTI17_8
	.long	.LBB17_202-.LJTI17_8
	.long	.LBB17_202-.LJTI17_8
	.long	.LBB17_202-.LJTI17_8
	.long	.LBB17_202-.LJTI17_8
	.long	.LBB17_202-.LJTI17_8
	.long	.LBB17_202-.LJTI17_8
	.long	.LBB17_202-.LJTI17_8
	.long	.LBB17_202-.LJTI17_8
	.long	.LBB17_222-.LJTI17_8
	.long	.LBB17_202-.LJTI17_8
	.long	.LBB17_202-.LJTI17_8
	.long	.LBB17_202-.LJTI17_8
	.long	.LBB17_202-.LJTI17_8
	.long	.LBB17_202-.LJTI17_8
	.long	.LBB17_202-.LJTI17_8
	.long	.LBB17_202-.LJTI17_8
	.long	.LBB17_202-.LJTI17_8
	.long	.LBB17_202-.LJTI17_8
	.long	.LBB17_202-.LJTI17_8
	.long	.LBB17_202-.LJTI17_8
	.long	.LBB17_202-.LJTI17_8
	.long	.LBB17_202-.LJTI17_8
	.long	.LBB17_202-.LJTI17_8
	.long	.LBB17_202-.LJTI17_8
	.long	.LBB17_202-.LJTI17_8
	.long	.LBB17_202-.LJTI17_8
	.long	.LBB17_202-.LJTI17_8
	.long	.LBB17_202-.LJTI17_8
	.long	.LBB17_202-.LJTI17_8
	.long	.LBB17_202-.LJTI17_8
	.long	.LBB17_202-.LJTI17_8
	.long	.LBB17_202-.LJTI17_8
	.long	.LBB17_202-.LJTI17_8
	.long	.LBB17_202-.LJTI17_8
	.long	.LBB17_202-.LJTI17_8
	.long	.LBB17_202-.LJTI17_8
	.long	.LBB17_202-.LJTI17_8
	.long	.LBB17_202-.LJTI17_8
	.long	.LBB17_167-.LJTI17_8
	.text
	.seh_endproc

	.def	"runtime::[procs_windows_amd64.odin]::windows_trap_array_bounds";
	.scl	3;
	.type	32;
	.endef
	.p2align	4
"runtime::[procs_windows_amd64.odin]::windows_trap_array_bounds":
.seh_proc "runtime::[procs_windows_amd64.odin]::windows_trap_array_bounds"
	subq	$40, %rsp
	.seh_stackalloc 40
	.seh_endprologue
	movl	$-1073741684, %ecx
	xorl	%edx, %edx
	xorl	%r8d, %r8d
	xorl	%r9d, %r9d
	callq	RaiseException
	int3
	.seh_endproc

	.def	"runtime::type_assertion_trap";
	.scl	3;
	.type	32;
	.endef
	.p2align	4
"runtime::type_assertion_trap":
.seh_proc "runtime::type_assertion_trap"
	subq	$40, %rsp
	.seh_stackalloc 40
	.seh_endprologue
	callq	"runtime::[procs_windows_amd64.odin]::windows_trap_type_assertion"
	int3
	.seh_endproc

	.def	"runtime::[procs_windows_amd64.odin]::windows_trap_type_assertion";
	.scl	3;
	.type	32;
	.endef
	.p2align	4
"runtime::[procs_windows_amd64.odin]::windows_trap_type_assertion":
.seh_proc "runtime::[procs_windows_amd64.odin]::windows_trap_type_assertion"
	subq	$40, %rsp
	.seh_stackalloc 40
	.seh_endprologue
	callq	"runtime::[procs_windows_amd64.odin]::windows_trap_array_bounds"
	int3
	.seh_endproc

	.def	"io::write_u64";
	.scl	3;
	.type	32;
	.endef
	.p2align	4
"io::write_u64":
.seh_proc "io::write_u64"
	pushq	%r15
	.seh_pushreg %r15
	pushq	%r14
	.seh_pushreg %r14
	pushq	%rsi
	.seh_pushreg %rsi
	pushq	%rdi
	.seh_pushreg %rdi
	pushq	%rbx
	.seh_pushreg %rbx
	subq	$160, %rsp
	.seh_stackalloc 160
	.seh_endprologue
	movq	%r9, %rsi
	movq	%r8, %rdi
	movq	240(%rsp), %r15
	movq	(%rcx), %r14
	movq	8(%rcx), %rbx
	vxorps	%xmm0, %xmm0, %xmm0
	vmovups	%ymm0, 128(%rsp)
	leaq	128(%rsp), %rax
	movq	%rax, 96(%rsp)
	movq	$32, 104(%rsp)
	vxorps	%xmm0, %xmm0, %xmm0
	vmovaps	%xmm0, 80(%rsp)
	movq	%r15, 64(%rsp)
	leaq	"strconv::digits"(%rip), %rax
	movq	%rax, 48(%rsp)
	movb	$0, 56(%rsp)
	movq	$64, 40(%rsp)
	movb	$0, 32(%rsp)
	leaq	80(%rsp), %rcx
	leaq	96(%rsp), %rax
	movl	$10, %r9d
	movq	%rdx, %r8
	movq	%rax, %rdx
	vzeroupper
	callq	"strconv::write_bits"
	vmovaps	80(%rsp), %xmm0
	vmovups	%xmm0, 112(%rsp)
	testq	%r14, %r14
	je	.LBB21_1
	movq	$0, 72(%rsp)
	movq	%r15, 48(%rsp)
	leaq	72(%rsp), %rax
	movq	%rax, 40(%rsp)
	movq	$0, 32(%rsp)
	leaq	112(%rsp), %r8
	movl	$4, %edx
	movq	%rbx, %rcx
	xorl	%r9d, %r9d
	callq	*%r14
	movq	72(%rsp), %rcx
	addq	%rcx, (%rdi)
	jmp	.LBB21_3
.LBB21_1:
	movl	$-1, %eax
	xorl	%ecx, %ecx
.LBB21_3:
	movq	%rcx, (%rsi)
	addq	$160, %rsp
	popq	%rbx
	popq	%rdi
	popq	%rsi
	popq	%r14
	popq	%r15
	retq
	.seh_endproc

	.def	"io::write_i64";
	.scl	3;
	.type	32;
	.endef
	.p2align	4
"io::write_i64":
.seh_proc "io::write_i64"
	pushq	%r15
	.seh_pushreg %r15
	pushq	%r14
	.seh_pushreg %r14
	pushq	%rsi
	.seh_pushreg %rsi
	pushq	%rdi
	.seh_pushreg %rdi
	pushq	%rbx
	.seh_pushreg %rbx
	subq	$160, %rsp
	.seh_stackalloc 160
	.seh_endprologue
	movq	%r9, %rsi
	movq	%r8, %rdi
	movq	240(%rsp), %r15
	movq	(%rcx), %r14
	movq	8(%rcx), %rbx
	vxorps	%xmm0, %xmm0, %xmm0
	vmovups	%ymm0, 128(%rsp)
	leaq	128(%rsp), %rax
	movq	%rax, 96(%rsp)
	movq	$32, 104(%rsp)
	vxorps	%xmm0, %xmm0, %xmm0
	vmovaps	%xmm0, 80(%rsp)
	movq	%r15, 64(%rsp)
	leaq	"strconv::digits"(%rip), %rax
	movq	%rax, 48(%rsp)
	movb	$0, 56(%rsp)
	movq	$64, 40(%rsp)
	movb	$1, 32(%rsp)
	leaq	80(%rsp), %rcx
	leaq	96(%rsp), %rax
	movl	$10, %r9d
	movq	%rdx, %r8
	movq	%rax, %rdx
	vzeroupper
	callq	"strconv::write_bits"
	vmovaps	80(%rsp), %xmm0
	vmovups	%xmm0, 112(%rsp)
	testq	%r14, %r14
	je	.LBB22_1
	movq	$0, 72(%rsp)
	movq	%r15, 48(%rsp)
	leaq	72(%rsp), %rax
	movq	%rax, 40(%rsp)
	movq	$0, 32(%rsp)
	leaq	112(%rsp), %r8
	movl	$4, %edx
	movq	%rbx, %rcx
	xorl	%r9d, %r9d
	callq	*%r14
	movq	72(%rsp), %rcx
	testq	%rdi, %rdi
	je	.LBB22_4
	addq	%rcx, (%rdi)
	jmp	.LBB22_4
.LBB22_1:
	movl	$-1, %eax
	xorl	%ecx, %ecx
.LBB22_4:
	movq	%rcx, (%rsi)
	addq	$160, %rsp
	popq	%rbx
	popq	%rdi
	popq	%rsi
	popq	%r14
	popq	%r15
	retq
	.seh_endproc

	.def	"runtime::slice_handle_error";
	.scl	3;
	.type	32;
	.endef
	.p2align	4
"runtime::slice_handle_error":
.seh_proc "runtime::slice_handle_error"
	pushq	%rsi
	.seh_pushreg %rsi
	pushq	%rdi
	.seh_pushreg %rdi
	pushq	%rbx
	.seh_pushreg %rbx
	subq	$80, %rsp
	.seh_stackalloc 80
	.seh_endprologue
	movq	%r9, %rdi
	movq	152(%rsp), %rsi
	movq	144(%rsp), %rbx
	vmovups	(%rcx), %xmm0
	vxorps	%xmm1, %xmm1, %xmm1
	vmovups	%xmm1, 64(%rsp)
	vmovups	%xmm0, 40(%rsp)
	movl	%edx, 56(%rsp)
	movl	%r8d, 60(%rsp)
	leaq	40(%rsp), %rcx
	callq	"runtime::print_caller_location"
	leaq	".Lggv$runtime::slice_handle_error$1"(%rip), %rcx
	callq	"runtime::print_string"
	movq	%rdi, %rcx
	callq	"runtime::print_i64"
	leaq	".Lggv$runtime::slice_handle_error$2"(%rip), %rcx
	callq	"runtime::print_string"
	movq	%rbx, %rcx
	callq	"runtime::print_i64"
	leaq	".Lggv$runtime::slice_handle_error$3"(%rip), %rcx
	callq	"runtime::print_string"
	movq	%rsi, %rcx
	callq	"runtime::print_i64"
	movb	$10, %cl
	callq	"runtime::print_byte"
	callq	"runtime::bounds_trap"
	int3
	.seh_endproc

	.def	"bufio::writer_flush";
	.scl	3;
	.type	32;
	.endef
	.p2align	4
"bufio::writer_flush":
.seh_proc "bufio::writer_flush"
	pushq	%r14
	.seh_pushreg %r14
	pushq	%rsi
	.seh_pushreg %rsi
	pushq	%rdi
	.seh_pushreg %rdi
	pushq	%rbx
	.seh_pushreg %rbx
	subq	$88, %rsp
	.seh_stackalloc 88
	.seh_endprologue
	movl	56(%rcx), %edi
	testl	%edi, %edi
	jne	.LBB24_14
	movq	48(%rcx), %r9
	testq	%r9, %r9
	je	.LBB24_2
	movq	8(%rcx), %rax
	cmpq	%rax, %r9
	jg	.LBB24_15
	movq	%rax, %r8
	orq	%r9, %r8
	js	.LBB24_15
	movq	(%rcx), %r8
	movq	32(%rcx), %r10
	movq	40(%rcx), %rax
	movq	%r8, 72(%rsp)
	movq	%r9, 80(%rsp)
	testq	%r10, %r10
	je	.LBB24_16
	movq	$0, 64(%rsp)
	movq	%rdx, 48(%rsp)
	leaq	64(%rsp), %rdx
	movq	%rdx, 40(%rsp)
	movq	$0, 32(%rsp)
	xorl	%edi, %edi
	leaq	72(%rsp), %r8
	movl	$4, %edx
	movq	%rcx, %r14
	movq	%rax, %rcx
	xorl	%r9d, %r9d
	callq	*%r10
	movq	%r14, %rcx
	movq	64(%rsp), %rsi
	movq	48(%r14), %r9
	cmpq	%rsi, %r9
	movl	$3, %ebx
	cmovlel	%eax, %ebx
	testl	%eax, %eax
	cmovnel	%eax, %ebx
	testl	%ebx, %ebx
	je	.LBB24_13
	movq	%r9, %r8
	subq	%rsi, %r8
	setle	%al
	testq	%rsi, %rsi
	setle	%dl
	orb	%al, %dl
	jne	.LBB24_12
	movq	8(%rcx), %rax
	cmpq	%rax, %r8
	jg	.LBB24_17
	cmpq	%rax, %r9
	jg	.LBB24_18
	cmpq	%rax, %rsi
	jg	.LBB24_18
	movq	(%rcx), %rcx
	leaq	(%rcx,%rsi), %rdx
	callq	memmove
	movq	%r14, %rcx
	movq	48(%r14), %r9
	jmp	.LBB24_12
.LBB24_2:
	xorl	%edi, %edi
	jmp	.LBB24_14
.LBB24_16:
	movl	$-1, %ebx
	xorl	%esi, %esi
.LBB24_12:
	subq	%rsi, %r9
	movq	%r9, 48(%rcx)
	movl	%ebx, 56(%rcx)
	movl	%ebx, %edi
	jmp	.LBB24_14
.LBB24_13:
	movq	$0, 48(%rcx)
.LBB24_14:
	movl	%edi, %eax
	addq	$88, %rsp
	popq	%rbx
	popq	%rdi
	popq	%rsi
	popq	%r14
	retq
.LBB24_15:
	movq	%rax, 40(%rsp)
	movq	%r9, 32(%rsp)
	leaq	".Lggv$bufio::writer_flush$1"(%rip), %rcx
	movl	$65, %edx
	movl	$32, %r8d
	xorl	%r9d, %r9d
	callq	"runtime::slice_handle_error"
.LBB24_17:
	movq	%rax, 40(%rsp)
	movq	%r8, 32(%rsp)
	leaq	".Lggv$bufio::writer_flush$2"(%rip), %rcx
	movl	$71, %edx
	movl	$14, %r8d
	xorl	%r9d, %r9d
	callq	"runtime::slice_handle_error"
.LBB24_18:
	movq	%rax, 40(%rsp)
	movq	%r9, 32(%rsp)
	leaq	".Lggv$bufio::writer_flush$3"(%rip), %rcx
	movl	$71, %edx
	movl	$29, %r8d
	movq	%rsi, %r9
	callq	"runtime::slice_handle_error"
	int3
	.seh_endproc

	.def	"os::lookup_env_buffer";
	.scl	3;
	.type	32;
	.endef
	.p2align	4
"os::lookup_env_buffer":
.seh_proc "os::lookup_env_buffer"
	pushq	%r15
	.seh_pushreg %r15
	pushq	%r14
	.seh_pushreg %r14
	pushq	%rsi
	.seh_pushreg %rsi
	pushq	%rdi
	.seh_pushreg %rdi
	pushq	%rbp
	.seh_pushreg %rbp
	pushq	%rbx
	.seh_pushreg %rbx
	subq	$2152, %rsp
	.seh_stackalloc 2152
	vmovaps	%xmm6, 2128(%rsp)
	.seh_savexmm %xmm6, 2128
	.seh_endprologue
	movq	%r8, %rsi
	movq	(%rcx), %r15
	movq	8(%rcx), %rdi
	movq	(%rdx), %rbx
	movl	8(%rdx), %ebp
	leaq	1102(%rsp), %r14
	movl	$1026, %r8d
	movq	%r14, %rcx
	xorl	%edx, %edx
	callq	memset
	movl	$0, 40(%rsp)
	movq	$0, 32(%rsp)
	movl	$65001, %ecx
	movl	$8, %edx
	movq	%rbx, %r8
	movl	%ebp, %r9d
	callq	MultiByteToWideChar
	testl	%eax, %eax
	sete	%cl
	cmpl	$514, %eax
	setge	%dl
	orb	%cl, %dl
	jne	.LBB25_4
	movl	%eax, 40(%rsp)
	movq	%r14, 32(%rsp)
	movl	$65001, %ecx
	movl	$8, %edx
	movq	%rbx, %r8
	movl	%ebp, %r9d
	callq	MultiByteToWideChar
	testl	%eax, %eax
	sete	%cl
	cmpl	$514, %eax
	setge	%dl
	orb	%cl, %dl
	je	.LBB25_2
.LBB25_4:
	movabsq	$8589934605, %rax
.LBB25_5:
	vxorps	%xmm0, %xmm0, %xmm0
	vmovups	%xmm0, (%rsi)
.LBB25_6:
	vmovaps	2128(%rsp), %xmm6
	addq	$2152, %rsp
	popq	%rbx
	popq	%rbp
	popq	%rdi
	popq	%rsi
	popq	%r14
	popq	%r15
	retq
.LBB25_2:
	testl	%eax, %eax
	js	.LBB25_3
	leaq	1102(%rsp), %rcx
	xorl	%edx, %edx
	xorl	%r8d, %r8d
	callq	GetEnvironmentVariableW
	testl	%eax, %eax
	je	.LBB25_8
	leaq	76(%rsp), %rbx
	movl	$1026, %r8d
	movq	%rbx, %rcx
	xorl	%edx, %edx
	callq	memset
	leaq	1102(%rsp), %rcx
	movq	%rbx, %rdx
	movl	$513, %r8d
	callq	GetEnvironmentVariableW
	testl	%eax, %eax
	je	.LBB25_8
	movl	%eax, %ecx
	cmpq	%rcx, %rdi
	jl	.LBB25_4
	cmpl	$514, %eax
	jae	.LBB25_25
	vxorps	%xmm6, %xmm6, %xmm6
	vmovups	%xmm6, 48(%rsp)
	movl	$0, 40(%rsp)
	movq	$0, 32(%rsp)
	leaq	76(%rsp), %r8
	movl	$65001, %ecx
	movl	$128, %edx
	movl	%eax, %ebx
	movl	%eax, %r9d
	callq	WideCharToMultiByte
	testl	%eax, %eax
	sete	%cl
	movslq	%eax, %rdx
	cmpq	%rdx, %rdi
	setl	%dl
	xorl	%r8d, %r8d
	orb	%cl, %dl
	movl	$0, %edx
	jne	.LBB25_24
	vmovups	%xmm6, 48(%rsp)
	movl	%eax, 40(%rsp)
	movq	%r15, 32(%rsp)
	leaq	76(%rsp), %r8
	movl	$65001, %ecx
	movl	$128, %edx
	movl	%ebx, %r9d
	callq	WideCharToMultiByte
	testl	%eax, %eax
	je	.LBB25_14
	movslq	%eax, %rcx
	xorl	%r8d, %r8d
	movl	$0, %edx
	cmpq	%rcx, %rdi
	jl	.LBB25_24
	testl	%eax, %eax
	jle	.LBB25_27
	movl	%eax, %eax
	xorl	%edx, %edx
.LBB25_18:
	cmpq	%rdx, %rdi
	je	.LBB25_26
	cmpb	$0, (%r15,%rdx)
	je	.LBB25_20
	incq	%rdx
	cmpq	%rdx, %rax
	jne	.LBB25_18
	movq	%rcx, %rdx
	jmp	.LBB25_23
.LBB25_8:
	movabsq	$4294967308, %rax
	jmp	.LBB25_5
.LBB25_14:
	xorl	%r8d, %r8d
	xorl	%edx, %edx
	jmp	.LBB25_24
.LBB25_20:
	movq	%rdx, %rcx
.LBB25_23:
	movq	%r15, %r8
	cmpq	%rdx, %rdi
	jl	.LBB25_27
.LBB25_24:
	movq	%r8, (%rsi)
	movq	%rdx, 8(%rsi)
	xorl	%eax, %eax
	jmp	.LBB25_6
.LBB25_3:
	cltq
	movq	%rax, 32(%rsp)
	movq	$513, 40(%rsp)
	leaq	".Lggv$sys_windows::utf8_to_utf16_buf$1"(%rip), %rcx
	movl	$119, %edx
	movl	$12, %r8d
	xorl	%r9d, %r9d
	callq	"runtime::slice_handle_error"
.LBB25_26:
	movq	%rdi, 32(%rsp)
	leaq	".Lggv$sys_windows::wstring_to_utf8_buf$1"(%rip), %rcx
	movl	$189, %edx
	movl	$10, %r8d
	movq	%rdi, %r9
	callq	"runtime::bounds_check_error.handle_error-0"
.LBB25_25:
	movq	%rcx, 32(%rsp)
	movq	$513, 40(%rsp)
	leaq	".Lggv$os::lookup_env_buffer$1"(%rip), %rcx
	movl	$56, %edx
	movl	$42, %r8d
	xorl	%r9d, %r9d
	callq	"runtime::slice_handle_error"
.LBB25_27:
	movq	%rdi, 40(%rsp)
	movq	%rcx, 32(%rsp)
	leaq	".Lggv$sys_windows::wstring_to_utf8_buf$2"(%rip), %rcx
	movl	$194, %edx
	movl	$19, %r8d
	xorl	%r9d, %r9d
	callq	"runtime::slice_handle_error"
	int3
	.seh_endproc

	.def	"runtime::multi_pointer_slice_handle_error";
	.scl	3;
	.type	32;
	.endef
	.p2align	4
"runtime::multi_pointer_slice_handle_error":
.seh_proc "runtime::multi_pointer_slice_handle_error"
	pushq	%rsi
	.seh_pushreg %rsi
	pushq	%rdi
	.seh_pushreg %rdi
	subq	$72, %rsp
	.seh_stackalloc 72
	.seh_endprologue
	movq	%r9, %rsi
	movq	128(%rsp), %rdi
	vmovups	(%rcx), %xmm0
	vxorps	%xmm1, %xmm1, %xmm1
	vmovups	%xmm1, 56(%rsp)
	vmovups	%xmm0, 32(%rsp)
	movl	%edx, 48(%rsp)
	movl	%r8d, 52(%rsp)
	leaq	32(%rsp), %rcx
	callq	"runtime::print_caller_location"
	leaq	".Lggv$runtime::multi_pointer_slice_handle_error$1"(%rip), %rcx
	callq	"runtime::print_string"
	movq	%rsi, %rcx
	callq	"runtime::print_i64"
	leaq	".Lggv$runtime::multi_pointer_slice_handle_error$2"(%rip), %rcx
	callq	"runtime::print_string"
	movq	%rdi, %rcx
	callq	"runtime::print_i64"
	movb	$10, %cl
	callq	"runtime::print_byte"
	callq	"runtime::bounds_trap"
	int3
	.seh_endproc

	.def	main;
	.scl	2;
	.type	32;
	.endef
	.globl	__ymm@5510e840c990f900769042405c10c4007a107e40d09071005f909c4027100000
	.section	.rdata,"dr",discard,__ymm@5510e840c990f900769042405c10c4007a107e40d09071005f909c4027100000
	.p2align	5, 0x0
__ymm@5510e840c990f900769042405c10c4007a107e40d09071005f909c4027100000:
	.short	0
	.short	10000
	.short	40000
	.short	24464
	.short	28928
	.short	53392
	.short	32320
	.short	31248
	.short	50176
	.short	23568
	.short	16960
	.short	30352
	.short	63744
	.short	51600
	.short	59456
	.short	21776
	.text
	.globl	main
	.p2align	4
main:
.seh_proc main
	pushq	%rbp
	.seh_pushreg %rbp
	pushq	%rsi
	.seh_pushreg %rsi
	pushq	%rdi
	.seh_pushreg %rdi
	pushq	%rbx
	.seh_pushreg %rbx
	subq	$1528, %rsp
	.seh_stackalloc 1528
	leaq	128(%rsp), %rbp
	.seh_setframe %rbp, 128
	vmovaps	%xmm6, 1376(%rbp)
	.seh_savexmm %xmm6, 1504
	.seh_endprologue
	andq	$-32, %rsp
	movslq	%ecx, %rax
	testl	%eax, %eax
	js	.LBB27_4
	movq	%rdx, "runtime::args__"(%rip)
	movq	%rax, "runtime::args__"+8(%rip)
	leaq	"runtime::heap_allocator_proc"(%rip), %rax
	movq	%rax, 208(%rsp)
	movq	$0, 216(%rsp)
	leaq	"runtime::default_temp_allocator_proc"(%rip), %rax
	movq	%rax, 224(%rsp)
	movl	_tls_index(%rip), %eax
	movq	%gs:88, %rcx
	movq	(%rcx,%rax,8), %rax
	leaq	"runtime::global_default_temp_allocator_data"@SECREL32(%rax), %rax
	movq	%rax, 232(%rsp)
	leaq	"runtime::default_assertion_failure_proc"(%rip), %rax
	movq	%rax, 240(%rsp)
	leaq	"runtime::default_logger_proc"(%rip), %rax
	movq	%rax, 248(%rsp)
	vxorps	%xmm6, %xmm6, %xmm6
	vmovups	%xmm6, 256(%rsp)
	movq	$0, 272(%rsp)
	leaq	"runtime::default_random_generator_proc"(%rip), %rax
	movq	%rax, 280(%rsp)
	vxorps	%xmm0, %xmm0, %xmm0
	vmovups	%ymm0, 288(%rsp)
	leaq	208(%rsp), %rsi
	movq	%rsi, %rcx
	vzeroupper
	callq	__$startup_runtime
	vmovaps	__ymm@5510e840c990f900769042405c10c4007a107e40d09071005f909c4027100000(%rip), %ymm0
	vmovaps	%ymm0, 448(%rsp)
	vmovaps	%xmm6, 96(%rsp)
	leaq	448(%rsp), %rax
	movq	%rax, 96(%rsp)
	movabsq	$4159850252834344539, %rax
	movq	%rax, 104(%rsp)
	movq	"os::stdout"(%rip), %rbx
	leaq	480(%rsp), %rdi
	movl	$1024, %r8d
	movq	%rdi, %rcx
	xorl	%edx, %edx
	vzeroupper
	callq	memset
	vmovups	%xmm6, 192(%rsp)
	leaq	"os::[stream.odin]::_file_stream_proc"(%rip), %rax
	movq	%rax, 168(%rsp)
	movq	%rbx, 176(%rsp)
	movq	$0, 184(%rsp)
	vmovups	%xmm6, 152(%rsp)
	movq	%rdi, 136(%rsp)
	movq	$1024, 144(%rsp)
	vxorps	%xmm0, %xmm0, %xmm0
	vmovaps	%ymm0, 352(%rsp)
	vmovups	%ymm0, 408(%rsp)
	vmovaps	%ymm0, 384(%rsp)
	vmovaps	%ymm0, 320(%rsp)
	leaq	"bufio::_writer_proc"(%rip), %rax
	movq	%rax, 360(%rsp)
	leaq	136(%rsp), %rax
	movq	%rax, 368(%rsp)
	leaq	320(%rsp), %rcx
	leaq	96(%rsp), %rdx
	movl	$118, %r8d
	movq	%rsi, %r9
	vzeroupper
	callq	"fmt::fmt_value"
	movq	360(%rsp), %rax
	movq	368(%rsp), %rcx
	movb	$10, 87(%rsp)
	leaq	87(%rsp), %rdx
	movq	%rdx, 120(%rsp)
	movq	$1, 128(%rsp)
	testq	%rax, %rax
	je	.LBB27_3
	movq	$0, 88(%rsp)
	movq	%rsi, 48(%rsp)
	leaq	88(%rsp), %rdx
	movq	%rdx, 40(%rsp)
	movq	$0, 32(%rsp)
	leaq	120(%rsp), %r8
	movl	$4, %edx
	xorl	%r9d, %r9d
	callq	*%rax
	movq	88(%rsp), %rax
	addq	%rax, 432(%rsp)
.LBB27_3:
	leaq	136(%rsp), %rsi
	leaq	208(%rsp), %rdi
	movq	%rsi, %rcx
	movq	%rdi, %rdx
	callq	"bufio::writer_flush"
	movq	%rsi, %rcx
	movq	%rdi, %rdx
	callq	"bufio::writer_flush"
	movq	%rdi, %rcx
	callq	__$cleanup_runtime
	xorl	%eax, %eax
	vmovaps	1376(%rbp), %xmm6
	leaq	1400(%rbp), %rsp
	popq	%rbx
	popq	%rdi
	popq	%rsi
	popq	%rbp
	retq
.LBB27_4:
	movq	%rax, 32(%rsp)
	leaq	.Lggv$main$1(%rip), %rcx
	movl	$55, %edx
	movl	$17, %r8d
	xorl	%r9d, %r9d
	callq	"runtime::multi_pointer_slice_handle_error"
	int3
	.seh_endproc

	.def	"runtime::default_temp_allocator_proc";
	.scl	3;
	.type	32;
	.endef
	.p2align	4
"runtime::default_temp_allocator_proc":
.seh_proc "runtime::default_temp_allocator_proc"
	pushq	%r15
	.seh_pushreg %r15
	pushq	%r14
	.seh_pushreg %r14
	pushq	%r13
	.seh_pushreg %r13
	pushq	%r12
	.seh_pushreg %r12
	pushq	%rsi
	.seh_pushreg %rsi
	pushq	%rdi
	.seh_pushreg %rdi
	pushq	%rbp
	.seh_pushreg %rbp
	pushq	%rbx
	.seh_pushreg %rbx
	subq	$200, %rsp
	.seh_stackalloc 200
	vmovaps	%xmm6, 176(%rsp)
	.seh_savexmm %xmm6, 176
	.seh_endprologue
	cmpb	$7, %dl
	ja	.LBB28_33
	movq	%rcx, %rdi
	movq	336(%rsp), %rcx
	movq	320(%rsp), %r12
	movq	304(%rsp), %rsi
	movzbl	%dl, %eax
	leaq	.LJTI28_0(%rip), %rdx
	movslq	(%rdx,%rax,4), %rax
	addq	%rdx, %rax
	jmpq	*%rax
.LBB28_11:
	movb	$4, %al
.LBB28_25:
	xorl	%esi, %esi
	xorl	%r8d, %r8d
	jmp	.LBB28_35
.LBB28_8:
	testq	%rsi, %rsi
	je	.LBB28_36
	movq	312(%rsp), %r14
	cmpq	%r14, %r8
	jne	.LBB28_10
	testq	%r8, %r8
	jns	.LBB28_34
	movq	%r8, 32(%rsp)
	leaq	".Lggv$runtime::arena_allocator_proc$1"(%rip), %rcx
	movl	$219, %edx
	movl	$19, %r8d
	xorl	%r9d, %r9d
	callq	"runtime::multi_pointer_slice_handle_error"
.LBB28_36:
	vxorps	%xmm0, %xmm0, %xmm0
	vmovaps	%xmm0, 48(%rsp)
	movq	%rcx, 40(%rsp)
	leaq	48(%rsp), %rax
	movq	%rax, 32(%rsp)
	movq	%rdi, %rcx
	movq	%r8, %rdx
	movq	%r9, %r8
	movq	%r12, %r9
	callq	"runtime::arena_alloc"
	movq	48(%rsp), %rsi
	movq	56(%rsp), %r8
	jmp	.LBB28_35
.LBB28_2:
	movq	16(%rdi), %rcx
	testq	%rcx, %rcx
	je	.LBB28_7
	leaq	96(%rsp), %r15
	leaq	"runtime::default_assertion_failure_proc"(%rip), %r13
	leaq	"runtime::default_logger_proc"(%rip), %rbp
	vxorps	%xmm6, %xmm6, %xmm6
	leaq	"runtime::default_random_generator_proc"(%rip), %rbx
	leaq	160(%rsp), %rsi
	leaq	48(%rsp), %r14
	.p2align	4
.LBB28_4:
	movq	(%rcx), %rax
	testq	%rax, %rax
	je	.LBB28_6
	movq	%rax, 16(%rdi)
	movq	40(%rcx), %rax
	subq	%rax, 32(%rdi)
	movq	8(%rcx), %rax
	movq	16(%rcx), %rdx
	movq	%rax, 160(%rsp)
	movq	%rdx, 168(%rsp)
	leaq	"runtime::default_temp_allocator_proc"(%rip), %r8
	movq	%r8, 64(%rsp)
	movl	_tls_index(%rip), %r8d
	movq	%gs:88, %r9
	movq	(%r9,%r8,8), %r8
	leaq	"runtime::global_default_temp_allocator_data"@SECREL32(%r8), %r8
	movq	%r8, 72(%rsp)
	movq	%r13, 80(%rsp)
	movq	%rbp, 88(%rsp)
	vmovups	%xmm6, (%r15)
	movq	$0, 16(%r15)
	movq	%rbx, 120(%rsp)
	vxorps	%xmm0, %xmm0, %xmm0
	vmovups	%ymm0, 32(%r15)
	movq	%rax, 48(%rsp)
	movq	%rdx, 56(%rsp)
	movq	%rsi, %rdx
	movq	%r12, %r8
	movq	%r14, %r9
	vzeroupper
	callq	"runtime::mem_free"
	movq	16(%rdi), %rcx
	testq	%rcx, %rcx
	jne	.LBB28_4
	jmp	.LBB28_7
.LBB28_31:
	testq	%rsi, %rsi
	je	.LBB28_33
	movb	$93, (%rsi)
	jmp	.LBB28_33
.LBB28_10:
	testq	%r8, %r8
	je	.LBB28_11
	leaq	-1(%r9), %rax
	testq	%rsi, %rax
	je	.LBB28_15
.LBB28_24:
	vxorps	%xmm0, %xmm0, %xmm0
	vmovaps	%xmm0, 48(%rsp)
	movq	%rcx, 40(%rsp)
	leaq	48(%rsp), %rax
	movq	%rax, 32(%rsp)
	movq	%rdi, %rcx
	movq	%r8, %rdx
	movq	%r9, %r8
	movq	%r12, %r9
	callq	"runtime::arena_alloc"
	testb	%al, %al
	jne	.LBB28_25
	movq	48(%rsp), %rdi
	testq	%rdi, %rdi
	je	.LBB28_33
	testq	%r14, %r14
	js	.LBB28_38
	movq	56(%rsp), %r8
	cmpq	%r14, %r8
	cmovlq	%r8, %r14
	testq	%r14, %r14
	jle	.LBB28_29
	movq	%rdi, %rcx
	movq	%rsi, %rdx
	movq	%r8, %rsi
	movq	%r14, %r8
	callq	memmove
	movq	%rsi, %r8
.LBB28_29:
	xorl	%eax, %eax
	movq	%rdi, %rsi
	jmp	.LBB28_35
.LBB28_6:
	movq	24(%rcx), %rax
	movq	32(%rcx), %r8
	movq	%rax, %rcx
	xorl	%edx, %edx
	callq	memset
	movq	16(%rdi), %rax
	movq	$0, 32(%rax)
.LBB28_7:
	movq	$0, 24(%rdi)
.LBB28_33:
	xorl	%esi, %esi
	xorl	%r8d, %r8d
.LBB28_34:
	xorl	%eax, %eax
.LBB28_35:
	movq	328(%rsp), %rcx
	movq	%rsi, (%rcx)
	movq	%r8, 8(%rcx)
	vmovaps	176(%rsp), %xmm6
	addq	$200, %rsp
	popq	%rbx
	popq	%rbp
	popq	%rdi
	popq	%rsi
	popq	%r12
	popq	%r13
	popq	%r14
	popq	%r15
	retq
.LBB28_15:
	cmpq	%r14, %r8
	jae	.LBB28_18
	testq	%r8, %r8
	jns	.LBB28_34
	movq	%r8, 32(%rsp)
	leaq	".Lggv$runtime::arena_allocator_proc$2"(%rip), %rcx
	movl	$227, %edx
	movl	$20, %r8d
	xorl	%r9d, %r9d
	callq	"runtime::multi_pointer_slice_handle_error"
.LBB28_18:
	movq	16(%rdi), %r10
	testq	%r10, %r10
	je	.LBB28_24
	movq	24(%r10), %rdx
	movq	%rsi, %rax
	subq	%rdx, %rax
	leaq	(%rax,%r14), %r11
	cmpq	%r11, %rax
	jae	.LBB28_24
	cmpq	32(%r10), %r11
	jne	.LBB28_24
	leaq	(%rax,%r8), %r11
	cmpq	40(%r10), %r11
	ja	.LBB28_24
	movq	%r11, 32(%r10)
	cmpq	%r11, %rax
	jg	.LBB28_37
	addq	%rax, %rdx
	xorl	%eax, %eax
	movq	%rdx, %rsi
	jmp	.LBB28_35
.LBB28_38:
	movq	%r14, 32(%rsp)
	leaq	".Lggv$runtime::arena_allocator_proc$4"(%rip), %rcx
	movl	$249, %edx
	movl	$28, %r8d
	xorl	%r9d, %r9d
	callq	"runtime::multi_pointer_slice_handle_error"
.LBB28_37:
	movq	%r11, 32(%rsp)
	leaq	".Lggv$runtime::arena_allocator_proc$3"(%rip), %rcx
	movl	$238, %edx
	movl	$23, %r8d
	movq	%rax, %r9
	callq	"runtime::multi_pointer_slice_handle_error"
	int3
	.section	.rdata,"dr"
	.p2align	2, 0x0
.LJTI28_0:
	.long	.LBB28_36-.LJTI28_0
	.long	.LBB28_11-.LJTI28_0
	.long	.LBB28_2-.LJTI28_0
	.long	.LBB28_8-.LJTI28_0
	.long	.LBB28_31-.LJTI28_0
	.long	.LBB28_11-.LJTI28_0
	.long	.LBB28_36-.LJTI28_0
	.long	.LBB28_8-.LJTI28_0
	.text
	.seh_endproc

	.def	"runtime::default_random_generator_proc";
	.scl	3;
	.type	32;
	.endef
	.p2align	4
"runtime::default_random_generator_proc":
.seh_proc "runtime::default_random_generator_proc"
	pushq	%r15
	.seh_pushreg %r15
	pushq	%r14
	.seh_pushreg %r14
	pushq	%r13
	.seh_pushreg %r13
	pushq	%r12
	.seh_pushreg %r12
	pushq	%rsi
	.seh_pushreg %rsi
	pushq	%rdi
	.seh_pushreg %rdi
	pushq	%rbx
	.seh_pushreg %rbx
	subq	$48, %rsp
	.seh_stackalloc 48
	.seh_endprologue
	movq	(%r8), %rdi
	movq	8(%r8), %r14
	testq	%rcx, %rcx
	movl	_tls_index(%rip), %eax
	movq	%gs:88, %r8
	movq	(%r8,%rax,8), %rax
	leaq	"runtime::default_random_generator_proc-.state-66303"@SECREL32(%rax), %rbx
	cmovneq	%rcx, %rbx
	cmpq	$2, %rdx
	je	.LBB29_35
	leaq	992(%rbx), %rax
	cmpq	$1, %rdx
	je	.LBB29_30
	testq	%rdx, %rdx
	jne	.LBB29_22
	movq	%r9, %rsi
	cmpb	$0, 1032(%rbx)
	je	.LBB29_4
	movq	1024(%rbx), %rax
	cmpq	$993, %rax
	jge	.LBB29_12
	leaq	1024(%rbx), %r15
	cmpq	$992, %rax
	je	.LBB29_15
	jmp	.LBB29_16
.LBB29_30:
	testq	%r14, %r14
	je	.LBB29_31
	vxorps	%xmm0, %xmm0, %xmm0
	vmovups	%ymm0, (%rax)
	jle	.LBB29_34
	cmpq	$32, %r14
	movl	$32, %r8d
	cmovbq	%r14, %r8
	movq	%rax, %rcx
	movq	%rdi, %rdx
	vzeroupper
	callq	memmove
.LBB29_34:
	movb	$1, 1032(%rbx)
	movq	$992, 1024(%rbx)
	jmp	.LBB29_22
.LBB29_35:
	cmpq	$4, %r14
	jne	.LBB29_22
	orb	$11, (%rdi)
	jmp	.LBB29_22
.LBB29_31:
	movb	$0, 1032(%rbx)
	jmp	.LBB29_22
.LBB29_4:
	xorl	%ecx, %ecx
	movq	%rax, %rdx
	movl	$32, %r8d
	movl	$2, %r9d
	callq	BCryptGenRandom
	testl	%eax, %eax
	jne	.LBB29_5
	leaq	1024(%rbx), %r15
	movq	$992, 1024(%rbx)
	movb	$1, 1032(%rbx)
.LBB29_15:
	movq	%rbx, %rcx
	movq	%rsi, %rdx
	callq	"runtime::[random_generator_chacha8.odin]::chacha8rand_refill"
	movq	1024(%rbx), %rax
.LBB29_16:
	cmpq	$985, %rax
	jge	.LBB29_17
	testb	$7, %al
	jne	.LBB29_19
	cmpq	$8, %r14
	jne	.LBB29_21
	movq	(%rbx,%rax), %rcx
	movq	%rcx, (%rdi)
	movq	$0, (%rbx,%rax)
	addq	$8, 1024(%rbx)
.LBB29_22:
	addq	$48, %rsp
	popq	%rbx
	popq	%rdi
	popq	%rsi
	popq	%r12
	popq	%r13
	popq	%r14
	popq	%r15
	vzeroupper
	retq
	.p2align	4
.LBB29_28:
	movq	%rbx, %rcx
	movq	%rsi, %rdx
	callq	"runtime::[random_generator_chacha8.odin]::chacha8rand_refill"
.LBB29_29:
	addq	%r12, %rdi
	subq	%r12, %r14
.LBB29_21:
	testq	%r14, %r14
	jle	.LBB29_22
	movq	(%r15), %rdx
	movl	$992, %r12d
	subq	%rdx, %r12
	cmpq	%r12, %r14
	cmovlq	%r14, %r12
	movl	$1024, %r8d
	subq	%rdx, %r8
	cmpq	%r8, %r12
	cmovlq	%r12, %r8
	testq	%r8, %r8
	jle	.LBB29_26
	addq	%rbx, %rdx
	movq	%rdi, %rcx
	callq	memmove
	movq	1024(%rbx), %rdx
.LBB29_26:
	leaq	7(%r12), %rax
	leaq	14(%r12), %r8
	testq	%rax, %rax
	cmovnsq	%rax, %r8
	andq	$-8, %r8
	leaq	(%rdx,%r8), %r13
	cmpq	$991, %r13
	jg	.LBB29_28
	addq	%rbx, %rdx
	movq	%rdx, %rcx
	xorl	%edx, %edx
	callq	memset
	movq	%r13, 1024(%rbx)
	jmp	.LBB29_29
.LBB29_5:
	cmpl	$87, %eax
	je	.LBB29_8
	cmpl	$6, %eax
	jne	.LBB29_9
	leaq	".Lggv$runtime::[os_specific_windows.odin]::_rand_bytes$2"(%rip), %rcx
	leaq	".Lscl$[_rand_bytes2333]"(%rip), %rdx
	callq	"runtime::panic_contextless"
.LBB29_8:
	leaq	".Lggv$runtime::[os_specific_windows.odin]::_rand_bytes$3"(%rip), %rcx
	leaq	".Lscl$[_rand_bytes2489]"(%rip), %rdx
	callq	"runtime::panic_contextless"
.LBB29_9:
	leaq	".Lggv$runtime::[os_specific_windows.odin]::_rand_bytes$4"(%rip), %rcx
	leaq	".Lscl$[_rand_bytes2589]"(%rip), %rdx
	callq	"runtime::panic_contextless"
.LBB29_17:
	vmovups	".Lggv$runtime::default_random_generator_proc$3"(%rip), %xmm0
	vmovaps	%xmm0, 32(%rsp)
	movq	32(%rsi), %rax
	testq	%rax, %rax
	leaq	"runtime::default_assertion_failure_proc"(%rip), %r10
	cmovneq	%rax, %r10
	leaq	".Lggv$runtime::assert.internal-0$1"(%rip), %rcx
	leaq	".Lscl$[default_random_generator_proc2564]"(%rip), %r8
	jmp	.LBB29_13
.LBB29_19:
	vmovups	".Lggv$runtime::default_random_generator_proc$4"(%rip), %xmm0
	vmovaps	%xmm0, 32(%rsp)
	movq	32(%rsi), %rax
	testq	%rax, %rax
	leaq	"runtime::default_assertion_failure_proc"(%rip), %r10
	cmovneq	%rax, %r10
	leaq	".Lggv$runtime::assert.internal-0$1"(%rip), %rcx
	leaq	".Lscl$[default_random_generator_proc2667]"(%rip), %r8
	jmp	.LBB29_13
.LBB29_12:
	vmovups	".Lggv$runtime::default_random_generator_proc$2"(%rip), %xmm0
	vmovaps	%xmm0, 32(%rsp)
	movq	32(%rsi), %rax
	testq	%rax, %rax
	leaq	"runtime::default_assertion_failure_proc"(%rip), %r10
	cmovneq	%rax, %r10
	leaq	".Lggv$runtime::assert.internal-0$1"(%rip), %rcx
	leaq	".Lscl$[default_random_generator_proc2230]"(%rip), %r8
.LBB29_13:
	leaq	32(%rsp), %rdx
	movq	%rsi, %r9
	callq	*%r10
	int3
	.seh_endproc

	.def	"strconv::write_bits";
	.scl	3;
	.type	32;
	.endef
	.p2align	4
"strconv::write_bits":
.seh_proc "strconv::write_bits"
	pushq	%r14
	.seh_pushreg %r14
	pushq	%rsi
	.seh_pushreg %rsi
	pushq	%rdi
	.seh_pushreg %rdi
	pushq	%rbx
	.seh_pushreg %rbx
	subq	$184, %rsp
	.seh_stackalloc 184
	.seh_endprologue
	movq	%r9, %r10
	movq	%r8, %rax
	movq	%rcx, %rsi
	movzbl	256(%rsp), %ecx
	movq	272(%rsp), %r8
	movq	(%rdx), %rdi
	movq	8(%rdx), %rbx
	movq	(%r8), %r14
	movq	8(%r8), %r8
	vxorps	%xmm0, %xmm0, %xmm0
	vmovups	%ymm0, 144(%rsp)
	vmovups	%ymm0, 112(%rsp)
	vmovups	%ymm0, 80(%rsp)
	vmovups	%ymm0, 48(%rsp)
	movb	$0, 176(%rsp)
	testb	%cl, %cl
	je	.LBB30_1
	movq	264(%rsp), %rcx
	addq	$-8, %rcx
	rorxq	$3, %rcx, %rcx
	cmpq	$7, %rcx
	ja	.LBB30_8
	leaq	.LJTI30_0(%rip), %rdx
	movslq	(%rdx,%rcx,4), %rcx
	addq	%rdx, %rcx
	jmpq	*%rcx
.LBB30_4:
	movsbq	%al, %rdx
	shrb	$7, %al
	movl	%eax, %ecx
	jmp	.LBB30_5
.LBB30_1:
	xorl	%ecx, %ecx
	cmpq	%r10, %rax
	jae	.LBB30_12
	jmp	.LBB30_11
.LBB30_9:
	movl	%eax, %ecx
	shrl	$31, %ecx
	movl	%eax, %edx
	negl	%edx
	cmovnsl	%edx, %eax
	cmpq	%r10, %rax
	jae	.LBB30_12
	jmp	.LBB30_11
.LBB30_7:
	movq	%rax, %rcx
	shrq	$63, %rcx
	movq	%rax, %rdx
	negq	%rdx
	cmovnsq	%rdx, %rax
	cmpq	%r10, %rax
	jb	.LBB30_11
.LBB30_12:
	movl	$128, %r9d
	.p2align	4
.LBB30_13:
	cmpq	$129, %r9
	jae	.LBB30_50
	movq	%rax, %rdx
	shrq	$32, %rdx
	je	.LBB30_15
	xorl	%edx, %edx
	divq	%r10
	cmpq	%r8, %rdx
	jb	.LBB30_18
	jmp	.LBB30_51
	.p2align	4
.LBB30_15:
	xorl	%edx, %edx
	divl	%r10d
	cmpq	%r8, %rdx
	jae	.LBB30_51
.LBB30_18:
	movzbl	(%r14,%rdx), %edx
	movb	%dl, 48(%rsp,%r9)
	decq	%r9
	cmpq	%r10, %rax
	jae	.LBB30_13
	cmpq	$129, %r9
	jae	.LBB30_52
	leaq	1(%r9), %r11
	jmp	.LBB30_21
.LBB30_6:
	movzwl	%ax, %ecx
	shrl	$15, %ecx
	movswq	%ax, %rdx
.LBB30_5:
	movq	%rdx, %rax
	negq	%rax
	cmovsq	%rdx, %rax
	cmpq	%r10, %rax
	jae	.LBB30_12
.LBB30_11:
	movl	$129, %r11d
	movl	$128, %r9d
.LBB30_21:
	movq	%rax, %rdx
	shrq	$32, %rdx
	je	.LBB30_22
	xorl	%edx, %edx
	divq	%r10
	cmpq	%r8, %rdx
	jae	.LBB30_53
.LBB30_25:
	movzbl	280(%rsp), %eax
	movzbl	(%r14,%rdx), %edx
	movb	%dl, 48(%rsp,%r9)
	testb	$1, %al
	je	.LBB30_39
	addq	$-2, %r10
	rorxq	$1, %r10, %rdx
	cmpq	$7, %rdx
	ja	.LBB30_39
	leaq	.LJTI30_1(%rip), %r8
	movslq	(%r8,%rdx,4), %rdx
	addq	%r8, %rdx
	jmpq	*%rdx
.LBB30_28:
	addq	$-2, %r11
	movb	$98, %dl
	cmpq	$129, %r11
	jb	.LBB30_37
	movq	$129, 32(%rsp)
	leaq	".Lggv$strconv::write_bits$6"(%rip), %rcx
	movl	$83, %edx
	jmp	.LBB30_30
.LBB30_22:
	xorl	%edx, %edx
	divl	%r10d
	cmpq	%r8, %rdx
	jb	.LBB30_25
.LBB30_53:
	movq	%r8, 32(%rsp)
	leaq	".Lggv$strconv::write_bits$5"(%rip), %rcx
	movq	%rdx, %r9
	movl	$78, %edx
	movl	$22, %r8d
	vzeroupper
	callq	"runtime::bounds_check_error.handle_error-0"
.LBB30_33:
	addq	$-2, %r11
	movb	$122, %dl
	cmpq	$129, %r11
	jb	.LBB30_37
	movq	$129, 32(%rsp)
	leaq	".Lggv$strconv::write_bits$8"(%rip), %rcx
	movl	$86, %edx
	jmp	.LBB30_30
.LBB30_31:
	addq	$-2, %r11
	movb	$111, %dl
	cmpq	$129, %r11
	jb	.LBB30_37
	movq	$129, 32(%rsp)
	leaq	".Lggv$strconv::write_bits$7"(%rip), %rcx
	movl	$84, %edx
	jmp	.LBB30_30
.LBB30_35:
	addq	$-2, %r11
	movb	$120, %dl
	cmpq	$129, %r11
	jae	.LBB30_36
.LBB30_37:
	movb	%dl, 48(%rsp,%r11)
	movq	%r11, %r9
	decq	%r9
	cmpq	$129, %r9
	jae	.LBB30_54
	movb	$48, 48(%rsp,%r9)
.LBB30_39:
	testb	%cl, %cl
	je	.LBB30_40
	decq	%r9
	movb	$45, %al
	cmpq	$129, %r9
	jb	.LBB30_44
	movq	$129, 32(%rsp)
	leaq	".Lggv$strconv::write_bits$11"(%rip), %rcx
	movl	$97, %edx
	movl	$11, %r8d
	vzeroupper
	callq	"runtime::bounds_check_error.handle_error-0"
.LBB30_40:
	cmpb	$2, %al
	jb	.LBB30_45
	decq	%r9
	movb	$43, %al
	cmpq	$129, %r9
	jae	.LBB30_42
.LBB30_44:
	movb	%al, 48(%rsp,%r9)
.LBB30_45:
	movl	$129, %r14d
	subq	%r9, %r14
	cmpq	%r14, %rbx
	movq	%r14, %r8
	cmovlq	%rbx, %r8
	testq	%r8, %r8
	jle	.LBB30_47
	leaq	(%rsp,%r9), %rdx
	addq	$48, %rdx
	movq	%rdi, %rcx
	vzeroupper
	callq	memcpy
.LBB30_47:
	testq	%rbx, %rbx
	js	.LBB30_55
	cmpq	%rbx, %r14
	jg	.LBB30_55
	movq	%rdi, (%rsi)
	movq	%r14, 8(%rsi)
	movq	%rsi, %rax
	addq	$184, %rsp
	popq	%rbx
	popq	%rdi
	popq	%rsi
	popq	%r14
	vzeroupper
	retq
.LBB30_51:
	movq	%r8, 32(%rsp)
	leaq	".Lggv$strconv::write_bits$3"(%rip), %rcx
	movq	%rdx, %r9
	movl	$75, %edx
	movl	$23, %r8d
	vzeroupper
	callq	"runtime::bounds_check_error.handle_error-0"
.LBB30_50:
	movq	$129, 32(%rsp)
	leaq	".Lggv$strconv::write_bits$2"(%rip), %rcx
	movl	$75, %edx
	movl	$11, %r8d
	vzeroupper
	callq	"runtime::bounds_check_error.handle_error-0"
.LBB30_55:
	movq	%rbx, 40(%rsp)
	movq	%r14, 32(%rsp)
	leaq	".Lggv$strconv::write_bits$14"(%rip), %rcx
	movl	$104, %edx
	movl	$19, %r8d
	xorl	%r9d, %r9d
	vzeroupper
	callq	"runtime::slice_handle_error"
.LBB30_52:
	movq	$129, 32(%rsp)
	leaq	".Lggv$strconv::write_bits$4"(%rip), %rcx
	movl	$78, %edx
	movl	$10, %r8d
	vzeroupper
	callq	"runtime::bounds_check_error.handle_error-0"
.LBB30_54:
	movq	$129, 32(%rsp)
	leaq	".Lggv$strconv::write_bits$10"(%rip), %rcx
	movl	$91, %edx
	movl	$12, %r8d
	vzeroupper
	callq	"runtime::bounds_check_error.handle_error-0"
.LBB30_42:
	movq	$129, 32(%rsp)
	leaq	".Lggv$strconv::write_bits$12"(%rip), %rcx
	movl	$99, %edx
	movl	$11, %r8d
	vzeroupper
	callq	"runtime::bounds_check_error.handle_error-0"
.LBB30_8:
	movq	288(%rsp), %r8
	leaq	".Lggv$strconv::is_integer_negative$1"(%rip), %rcx
	leaq	".Lscl$[is_integer_negative1101]"(%rip), %rdx
	vzeroupper
	callq	"runtime::panic"
.LBB30_36:
	movq	$129, 32(%rsp)
	leaq	".Lggv$strconv::write_bits$9"(%rip), %rcx
	movl	$87, %edx
.LBB30_30:
	movl	$20, %r8d
	movq	%r11, %r9
	vzeroupper
	callq	"runtime::bounds_check_error.handle_error-0"
	int3
	.section	.rdata,"dr"
	.p2align	2, 0x0
.LJTI30_0:
	.long	.LBB30_4-.LJTI30_0
	.long	.LBB30_6-.LJTI30_0
	.long	.LBB30_8-.LJTI30_0
	.long	.LBB30_9-.LJTI30_0
	.long	.LBB30_8-.LJTI30_0
	.long	.LBB30_8-.LJTI30_0
	.long	.LBB30_8-.LJTI30_0
	.long	.LBB30_7-.LJTI30_0
.LJTI30_1:
	.long	.LBB30_28-.LJTI30_1
	.long	.LBB30_39-.LJTI30_1
	.long	.LBB30_39-.LJTI30_1
	.long	.LBB30_31-.LJTI30_1
	.long	.LBB30_39-.LJTI30_1
	.long	.LBB30_33-.LJTI30_1
	.long	.LBB30_39-.LJTI30_1
	.long	.LBB30_35-.LJTI30_1
	.text
	.seh_endproc

	.def	"utf8::decode_rune_in_bytes";
	.scl	3;
	.type	32;
	.endef
	.p2align	4
"utf8::decode_rune_in_bytes":
.seh_proc "utf8::decode_rune_in_bytes"
	pushq	%rsi
	.seh_pushreg %rsi
	pushq	%rdi
	.seh_pushreg %rdi
	pushq	%rbx
	.seh_pushreg %rbx
	subq	$48, %rsp
	.seh_stackalloc 48
	.seh_endprologue
	movq	8(%rcx), %r10
	movl	$65533, %r8d
	testq	%r10, %r10
	jle	.LBB31_1
	movq	(%rcx), %r11
	movzbl	(%r11), %ecx
	leaq	"runtime::string_decode_rune-.accept_sizes-66845"(%rip), %rax
	movzbl	(%rcx,%rax), %esi
	leaq	-245(%rcx), %rax
	cmpq	$-52, %rax
	ja	.LBB31_5
	andl	$1, %esi
	movl	%esi, %r8d
	negl	%r8d
	decl	%esi
	andl	%ecx, %esi
	andl	$65533, %r8d
	orl	%esi, %r8d
	movl	$1, %eax
	jmp	.LBB31_2
.LBB31_1:
	xorl	%eax, %eax
	jmp	.LBB31_2
.LBB31_5:
	movl	%esi, %r9d
	shrl	$4, %r9d
	leal	62(%rcx), %edi
	cmpb	$51, %dil
	jae	.LBB31_19
	andl	$7, %esi
	movl	$1, %eax
	cmpq	%rsi, %r10
	jae	.LBB31_7
.LBB31_2:
	movl	%r8d, (%rdx)
	addq	$48, %rsp
	popq	%rbx
	popq	%rdi
	popq	%rsi
	retq
.LBB31_7:
	cmpq	$1, %r10
	je	.LBB31_20
	leaq	"utf8::accept_ranges"(%rip), %rsi
	movzbl	1(%r11), %ebx
	cmpb	(%rsi,%r9,2), %bl
	jb	.LBB31_2
	cmpb	%bl, 1(%rsi,%r9,2)
	jb	.LBB31_2
	movzbl	%bl, %r9d
	cmpb	$29, %dil
	ja	.LBB31_12
	andl	$31, %ecx
	shll	$6, %ecx
	andl	$63, %r9d
	orl	%ecx, %r9d
	movl	$2, %eax
	movl	%r9d, %r8d
	jmp	.LBB31_2
.LBB31_12:
	cmpq	$2, %r10
	jbe	.LBB31_21
	movzbl	2(%r11), %esi
	cmpb	$-65, %sil
	jg	.LBB31_2
	movl	%ecx, %edi
	andl	$-16, %edi
	cmpl	$224, %edi
	jne	.LBB31_16
	andl	$15, %ecx
	shll	$12, %ecx
	andl	$63, %r9d
	shll	$6, %r9d
	orl	%ecx, %r9d
	andl	$63, %esi
	orl	%r9d, %esi
	movl	$3, %eax
	movl	%esi, %r8d
	jmp	.LBB31_2
.LBB31_16:
	cmpq	$3, %r10
	je	.LBB31_22
	movzbl	3(%r11), %r10d
	cmpb	$-65, %r10b
	jg	.LBB31_2
	andl	$7, %ecx
	shll	$18, %ecx
	andl	$63, %r9d
	shll	$12, %r9d
	orl	%ecx, %r9d
	andl	$63, %esi
	shll	$6, %esi
	orl	%r9d, %esi
	andl	$63, %r10d
	orl	%esi, %r10d
	movl	$4, %eax
	movl	%r10d, %r8d
	jmp	.LBB31_2
.LBB31_19:
	movq	$5, 32(%rsp)
	leaq	".Lggv$utf8::decode_rune_in_bytes$3"(%rip), %rcx
	movl	$119, %edx
	movl	$26, %r8d
	callq	"runtime::bounds_check_error.handle_error-0"
.LBB31_20:
	movq	$1, 32(%rsp)
	leaq	".Lggv$utf8::decode_rune_in_bytes$4"(%rip), %rcx
	movl	$1, %r9d
	movl	$123, %edx
	movl	$10, %r8d
	callq	"runtime::bounds_check_error.handle_error-0"
.LBB31_21:
	movq	%r10, 32(%rsp)
	leaq	".Lggv$utf8::decode_rune_in_bytes$5"(%rip), %rcx
	movl	$2, %r9d
	movl	$130, %edx
	movl	$10, %r8d
	callq	"runtime::bounds_check_error.handle_error-0"
.LBB31_22:
	movq	$3, 32(%rsp)
	leaq	".Lggv$utf8::decode_rune_in_bytes$6"(%rip), %rcx
	movl	$3, %r9d
	movl	$137, %edx
	movl	$10, %r8d
	callq	"runtime::bounds_check_error.handle_error-0"
	int3
	.seh_endproc

	.def	"runtime::print_string";
	.scl	3;
	.type	32;
	.endef
	.p2align	4
"runtime::print_string":
.seh_proc "runtime::print_string"
	pushq	%r15
	.seh_pushreg %r15
	pushq	%r14
	.seh_pushreg %r14
	pushq	%rsi
	.seh_pushreg %rsi
	pushq	%rdi
	.seh_pushreg %rdi
	pushq	%rbp
	.seh_pushreg %rbp
	pushq	%rbx
	.seh_pushreg %rbx
	subq	$56, %rsp
	.seh_stackalloc 56
	.seh_endprologue
	movq	8(%rcx), %rbx
	testq	%rbx, %rbx
	je	.LBB32_7
	movq	(%rcx), %r14
	movl	$-12, %ecx
	callq	GetStdHandle
	movq	%rax, %rsi
	movq	%rax, %rcx
	movl	$1, %edx
	xorl	%r8d, %r8d
	callq	SetHandleInformation
	movl	$0, 52(%rsp)
	testq	%rbx, %rbx
	jle	.LBB32_7
	xorl	%r15d, %r15d
	movl	$1073741824, %ebp
	leaq	52(%rsp), %rdi
	.p2align	4
.LBB32_4:
	movl	%ebx, %r8d
	subl	%r15d, %r8d
	cmpl	$1073741824, %r8d
	cmovgel	%ebp, %r8d
	leaq	(%r14,%r15), %rdx
	movq	$0, 32(%rsp)
	movq	%rsi, %rcx
	movq	%rdi, %r9
	callq	WriteFile
	movl	52(%rsp), %ecx
	testq	%rcx, %rcx
	je	.LBB32_6
	testl	%eax, %eax
	je	.LBB32_6
	addq	%rcx, %r15
	cmpq	%rbx, %r15
	jl	.LBB32_4
	jmp	.LBB32_7
.LBB32_6:
	callq	GetLastError
.LBB32_7:
	nop
	addq	$56, %rsp
	popq	%rbx
	popq	%rbp
	popq	%rdi
	popq	%rsi
	popq	%r14
	popq	%r15
	retq
	.seh_endproc

	.def	"runtime::mem_alloc_bytes";
	.scl	3;
	.type	32;
	.endef
	.p2align	4
"runtime::mem_alloc_bytes":
.seh_proc "runtime::mem_alloc_bytes"
	pushq	%rsi
	.seh_pushreg %rsi
	pushq	%rdi
	.seh_pushreg %rdi
	pushq	%rbx
	.seh_pushreg %rbx
	subq	$112, %rsp
	.seh_stackalloc 112
	.seh_endprologue
	movq	%rcx, %r11
	movq	184(%rsp), %rax
	blsrq	%rdx, %rcx
	jne	.LBB33_4
	movq	%rdx, %r10
	movq	176(%rsp), %rsi
	movq	(%r8), %rdi
	testq	%r11, %r11
	sete	%cl
	testq	%rdi, %rdi
	sete	%bl
	orb	%cl, %bl
	xorl	%ecx, %ecx
	movl	$0, %edx
	cmpb	$1, %bl
	je	.LBB33_3
	movq	8(%r8), %rcx
	vxorps	%xmm0, %xmm0, %xmm0
	vmovaps	%xmm0, 80(%rsp)
	movq	%rax, 64(%rsp)
	leaq	80(%rsp), %rax
	movq	%rax, 56(%rsp)
	movq	%r9, 48(%rsp)
	vmovups	%xmm0, 32(%rsp)
	xorl	%edx, %edx
	movq	%r11, %r8
	movq	%r10, %r9
	callq	*%rdi
	movq	80(%rsp), %rcx
	movq	88(%rsp), %rdx
.LBB33_3:
	movq	%rcx, (%rsi)
	movq	%rdx, 8(%rsi)
	addq	$112, %rsp
	popq	%rbx
	popq	%rdi
	popq	%rsi
	retq
.LBB33_4:
	vmovups	".Lggv$runtime::mem_alloc$1"(%rip), %xmm0
	vmovaps	%xmm0, 96(%rsp)
	movq	32(%rax), %rcx
	testq	%rcx, %rcx
	leaq	"runtime::default_assertion_failure_proc"(%rip), %r10
	cmovneq	%rcx, %r10
	leaq	".Lggv$runtime::assert.internal-0$1"(%rip), %rcx
	leaq	96(%rsp), %rdx
	movq	%r9, %r8
	movq	%rax, %r9
	callq	*%r10
	int3
	.seh_endproc

	.def	"runtime::arena_alloc";
	.scl	3;
	.type	32;
	.endef
	.p2align	4
"runtime::arena_alloc":
.seh_proc "runtime::arena_alloc"
	pushq	%r15
	.seh_pushreg %r15
	pushq	%r14
	.seh_pushreg %r14
	pushq	%r13
	.seh_pushreg %r13
	pushq	%r12
	.seh_pushreg %r12
	pushq	%rsi
	.seh_pushreg %rsi
	pushq	%rdi
	.seh_pushreg %rdi
	pushq	%rbx
	.seh_pushreg %rbx
	subq	$112, %rsp
	.seh_stackalloc 112
	vmovaps	%xmm6, 96(%rsp)
	.seh_savexmm %xmm6, 96
	.seh_endprologue
	movq	216(%rsp), %r14
	blsrq	%r8, %rax
	jne	.LBB34_28
	movq	%rdx, %rdi
	movq	208(%rsp), %r15
	testq	%rdx, %rdx
	je	.LBB34_2
	movq	%r8, %rbx
	movq	%rcx, %rsi
	movq	16(%rcx), %rax
	testq	%rax, %rax
	je	.LBB34_9
	movq	32(%rax), %rcx
	movq	24(%rax), %r8
	addq	%rcx, %r8
	leaq	-1(%rbx), %r10
	andq	%r8, %r10
	movq	%rbx, %rdx
	subq	%r10, %rdx
	testq	%r10, %r10
	cmoveq	%r10, %rdx
	movq	%rdi, %r10
	addq	%rdx, %r10
	jb	.LBB34_9
	addq	%rcx, %r10
	jb	.LBB34_9
	cmpq	40(%rax), %r10
	jbe	.LBB34_7
.LBB34_9:
	movq	40(%rsi), %rax
	testq	%rax, %rax
	jne	.LBB34_11
	movq	$4194304, 40(%rsi)
	movl	$4194304, %eax
.LBB34_11:
	leaq	-1(%rbx), %r12
	movq	%r12, %rdx
	andq	%rdi, %rdx
	movq	%rbx, %rcx
	subq	%rdx, %rcx
	testq	%rdx, %rdx
	cmoveq	%rdx, %rcx
	addq	%rdi, %rcx
	cmpq	%rax, %rcx
	cmovbeq	%rax, %rcx
	cmpq	$0, (%rsi)
	jne	.LBB34_13
	leaq	"runtime::heap_allocator_proc"(%rip), %rax
	movq	%rax, (%rsi)
	movq	$0, 8(%rsi)
.LBB34_13:
	movq	(%rsi), %rax
	movq	%rax, 80(%rsp)
	movq	8(%rsi), %rax
	cmpq	$49, %rbx
	movl	$48, %r13d
	cmovaeq	%rbx, %r13
	addq	%r13, %rcx
	cmpq	$17, %rbx
	movl	$16, %edx
	cmovgeq	%rbx, %rdx
	movq	%rax, 88(%rsp)
	vxorps	%xmm6, %xmm6, %xmm6
	vmovaps	%xmm6, 64(%rsp)
	movq	%r14, 40(%rsp)
	leaq	64(%rsp), %rax
	movq	%rax, 32(%rsp)
	leaq	80(%rsp), %r8
	callq	"runtime::mem_alloc"
	testb	%al, %al
	je	.LBB34_14
	vmovups	%xmm6, (%r15)
	jmp	.LBB34_20
.LBB34_2:
	vxorps	%xmm0, %xmm0, %xmm0
	vmovups	%xmm0, (%r15)
	xorl	%eax, %eax
	jmp	.LBB34_20
.LBB34_14:
	movq	64(%rsp), %rdx
	movq	72(%rsp), %rax
	addq	%rdx, %rax
	vmovaps	80(%rsp), %xmm0
	vmovups	%xmm0, 8(%rdx)
	addq	%rdx, %r13
	movq	%r13, 24(%rdx)
	subq	%r13, %rax
	movq	%rax, 40(%rdx)
	cmpq	$0, 32(%rdx)
	jne	.LBB34_15
	cmpq	$0, (%rdx)
	jne	.LBB34_18
	movq	16(%rsi), %rax
	movq	%rax, (%rdx)
	movq	%rdx, 16(%rsi)
	movq	40(%rdx), %rax
	addq	%rax, 32(%rsi)
	movq	32(%rdx), %r10
	movq	24(%rdx), %r9
	addq	%r10, %r9
	andq	%r9, %r12
	subq	%r12, %rbx
	testq	%r12, %r12
	cmoveq	%r12, %rbx
	xorl	%ecx, %ecx
	movq	%rdi, %r8
	movb	$1, %al
	addq	%rbx, %r8
	jb	.LBB34_22
	xorl	%ecx, %ecx
	addq	%r8, %r10
	jae	.LBB34_24
.LBB34_22:
	xorl	%r11d, %r11d
	xorl	%r8d, %r8d
	jmp	.LBB34_27
.LBB34_24:
	xorl	%ecx, %ecx
	movl	$0, %r11d
	movl	$0, %r8d
	cmpq	40(%rdx), %r10
	ja	.LBB34_27
	testq	%rdi, %rdi
	js	.LBB34_29
	addq	%rbx, %r9
	movq	%r10, 32(%rdx)
	xorl	%ecx, %ecx
	xorl	%eax, %eax
	movq	%rdi, %r11
	movq	%r9, %r8
	jmp	.LBB34_27
.LBB34_7:
	testq	%rdi, %rdi
	js	.LBB34_29
	addq	%rdx, %r8
	movq	%r10, 32(%rax)
	xorl	%eax, %eax
	movq	%rdi, %r11
.LBB34_27:
	movq	16(%rsi), %rdx
	movq	32(%rdx), %rdx
	subq	%rcx, %rdx
	addq	%rdx, 24(%rsi)
	movq	%r8, (%r15)
	movq	%r11, 8(%r15)
.LBB34_20:
	vmovaps	96(%rsp), %xmm6
	addq	$112, %rsp
	popq	%rbx
	popq	%rdi
	popq	%rsi
	popq	%r12
	popq	%r13
	popq	%r14
	popq	%r15
	retq
.LBB34_29:
	movq	%rdi, 32(%rsp)
	leaq	".Lggv$runtime::alloc_from_memory_block$1"(%rip), %rcx
	movl	$92, %edx
	movl	$49, %r8d
	xorl	%r9d, %r9d
	callq	"runtime::multi_pointer_slice_handle_error"
.LBB34_28:
	vmovups	".Lggv$runtime::arena_alloc$1"(%rip), %xmm0
	vmovaps	%xmm0, 48(%rsp)
	movq	32(%r14), %rax
	testq	%rax, %rax
	leaq	"runtime::default_assertion_failure_proc"(%rip), %r10
	cmovneq	%rax, %r10
	leaq	".Lggv$runtime::assert.internal-0$1"(%rip), %rcx
	leaq	48(%rsp), %rdx
	movq	%r9, %r8
	movq	%r14, %r9
	callq	*%r10
.LBB34_15:
	vmovups	".Lggv$runtime::memory_block_alloc$1"(%rip), %xmm0
	vmovaps	%xmm0, 48(%rsp)
	movq	32(%r14), %rax
	testq	%rax, %rax
	leaq	"runtime::default_assertion_failure_proc"(%rip), %r10
	cmovneq	%rax, %r10
	leaq	".Lggv$runtime::assert.internal-0$1"(%rip), %rcx
	leaq	".Lscl$[memory_block_alloc1638]"(%rip), %r8
	jmp	.LBB34_16
.LBB34_18:
	vmovups	".Lggv$runtime::memory_block_alloc$2"(%rip), %xmm0
	vmovaps	%xmm0, 48(%rsp)
	movq	32(%r14), %rax
	testq	%rax, %rax
	leaq	"runtime::default_assertion_failure_proc"(%rip), %r10
	cmovneq	%rax, %r10
	leaq	".Lggv$runtime::assert.internal-0$1"(%rip), %rcx
	leaq	".Lscl$[memory_block_alloc1664]"(%rip), %r8
.LBB34_16:
	leaq	48(%rsp), %rdx
	movq	%r14, %r9
	callq	*%r10
	int3
	.seh_endproc

	.def	"runtime::print_byte";
	.scl	3;
	.type	32;
	.endef
	.p2align	4
"runtime::print_byte":
.seh_proc "runtime::print_byte"
	pushq	%rsi
	.seh_pushreg %rsi
	subq	$64, %rsp
	.seh_stackalloc 64
	.seh_endprologue
	movb	%cl, 48(%rsp)
	movl	$-12, %ecx
	callq	GetStdHandle
	movq	%rax, %rsi
	movq	%rax, %rcx
	movl	$1, %edx
	xorl	%r8d, %r8d
	callq	SetHandleInformation
	movl	$0, 60(%rsp)
	movq	$0, 32(%rsp)
	leaq	48(%rsp), %rdx
	leaq	60(%rsp), %r9
	movq	%rsi, %rcx
	movl	$1, %r8d
	callq	WriteFile
	movl	%eax, %ecx
	movl	60(%rsp), %eax
	testq	%rax, %rax
	je	.LBB35_2
	testl	%ecx, %ecx
	jne	.LBB35_3
.LBB35_2:
	callq	GetLastError
	xorl	%eax, %eax
.LBB35_3:
	addq	$64, %rsp
	popq	%rsi
	retq
	.seh_endproc

	.def	"strconv::format_digits";
	.scl	3;
	.type	32;
	.endef
	.p2align	4
"strconv::format_digits":
.seh_proc "strconv::format_digits"
	pushq	%r15
	.seh_pushreg %r15
	pushq	%r14
	.seh_pushreg %r14
	pushq	%r13
	.seh_pushreg %r13
	pushq	%r12
	.seh_pushreg %r12
	pushq	%rsi
	.seh_pushreg %rsi
	pushq	%rdi
	.seh_pushreg %rdi
	pushq	%rbp
	.seh_pushreg %rbp
	pushq	%rbx
	.seh_pushreg %rbx
	subq	$152, %rsp
	.seh_stackalloc 152
	.seh_endprologue
	movq	%rcx, %rbp
	movzbl	272(%rsp), %r15d
	vmovups	(%rdx), %xmm0
	vmovaps	%xmm0, 80(%rsp)
	movq	80(%rsp), %rdi
	movq	88(%rsp), %r12
	movl	%r15d, %eax
	addl	$-69, %eax
	cmpl	$34, %eax
	ja	.LBB36_101
	movq	256(%rsp), %r13
	movabsq	$4294967297, %rcx
	btq	%rax, %rcx
	jb	.LBB36_46
	movabsq	$8589934594, %rcx
	btq	%rax, %rcx
	jb	.LBB36_7
	movabsq	$17179869188, %rcx
	btq	%rax, %rcx
	jae	.LBB36_101
	movq	16(%r13), %rax
	movq	24(%r13), %rcx
	cmpq	%rcx, %rax
	movq	%rax, %r10
	movq	264(%rsp), %rdx
	cmovlq	%rdx, %r10
	cmpq	%rax, %rdx
	cmovleq	%rdx, %r10
	testb	%r8b, %r8b
	movl	$6, %edx
	cmoveq	%r10, %rdx
	leaq	-1(%rcx), %r10
	cmpq	$-4, %r10
	jl	.LBB36_6
	cmpq	%rdx, %r10
	jge	.LBB36_6
	movq	264(%rsp), %rdx
	cmpq	%rcx, %rdx
	cmovleq	%rdx, %rax
	subq	%rcx, %rax
	movq	%rax, %rcx
	sarq	$63, %rcx
	andnq	%rax, %rcx, %rax
	vxorps	%xmm0, %xmm0, %xmm0
	vmovaps	%xmm0, 112(%rsp)
	movq	%r13, 32(%rsp)
	movq	%rax, 40(%rsp)
	movb	$102, 48(%rsp)
	leaq	112(%rsp), %rcx
	leaq	80(%rsp), %rdx
	callq	"strconv::format_digits"
	vmovaps	112(%rsp), %xmm0
	vmovups	%xmm0, (%rbp)
	jmp	.LBB36_99
.LBB36_7:
	addb	%r9b, %r9b
	addb	$43, %r9b
	movw	$0, 64(%rsp)
	movb	$0, 66(%rsp)
	movb	%r9b, 64(%rsp)
	testq	%r12, %r12
	js	.LBB36_105
	setne	%al
	movzbl	%al, %r14d
	je	.LBB36_10
	leaq	64(%rsp), %rdx
	movq	%rdi, %rcx
	movq	%r14, %r8
	callq	memcpy
.LBB36_10:
	movq	24(%r13), %rax
	testq	%rax, %rax
	movq	%rbp, 72(%rsp)
	jle	.LBB36_23
	movq	8(%r13), %rcx
	movq	16(%r13), %rdx
	cmpq	%rax, %rdx
	movq	%rax, %rsi
	cmovlq	%rdx, %rsi
	testq	%rcx, %rcx
	js	.LBB36_106
	testq	%rdx, %rdx
	js	.LBB36_106
	cmpq	%rcx, %rsi
	jg	.LBB36_106
	movq	%r12, %rbx
	subq	%r14, %rbx
	cmpq	%rsi, %rbx
	cmovgeq	%rsi, %rbx
	testq	%rbx, %rbx
	jle	.LBB36_16
	movq	(%r13), %rdx
	leaq	(%rdi,%r14), %rcx
	movq	%rbx, %r8
	callq	memmove
	movq	24(%r13), %rax
.LBB36_16:
	addq	%r14, %rbx
	cmpq	%rax, %rsi
	jge	.LBB36_26
	movl	$1, %ebp
	leaq	64(%rsp), %r14
	jmp	.LBB36_18
	.p2align	4
.LBB36_22:
	addq	%r15, %rbx
	incq	%rsi
	cmpq	%rax, %rsi
	jge	.LBB36_26
.LBB36_18:
	movb	$48, 64(%rsp)
	testq	%rbx, %rbx
	js	.LBB36_87
	movq	%r12, %r15
	subq	%rbx, %r15
	jl	.LBB36_87
	testq	%r15, %r15
	cmovgq	%rbp, %r15
	jle	.LBB36_22
	leaq	(%rdi,%rbx), %rcx
	movq	%r14, %rdx
	movq	%r15, %r8
	callq	memcpy
	movq	24(%r13), %rax
	jmp	.LBB36_22
.LBB36_46:
	addb	%r9b, %r9b
	addb	$43, %r9b
	movb	%r9b, 64(%rsp)
	testq	%r12, %r12
	js	.LBB36_105
	setne	%al
	movzbl	%al, %ebx
	je	.LBB36_49
	leaq	64(%rsp), %rdx
	movq	%rdi, %rcx
	movq	%rbx, %r8
	callq	memcpy
.LBB36_49:
	cmpq	$0, 16(%r13)
	je	.LBB36_50
	cmpq	$0, 8(%r13)
	je	.LBB36_108
	movq	(%r13), %rax
	movzbl	(%rax), %eax
	jmp	.LBB36_53
.LBB36_6:
	movq	264(%rsp), %rcx
	cmpq	%rax, %rcx
	cmovlq	%rcx, %rax
	decq	%rax
	leal	-2(%r15), %ecx
	vxorps	%xmm0, %xmm0, %xmm0
	vmovaps	%xmm0, 128(%rsp)
	movb	%cl, 48(%rsp)
	movq	%rax, 40(%rsp)
	movq	%r13, 32(%rsp)
	leaq	128(%rsp), %rcx
	leaq	80(%rsp), %rdx
	callq	"strconv::format_digits"
	vmovaps	128(%rsp), %xmm0
	vmovups	%xmm0, (%rbp)
	jmp	.LBB36_99
.LBB36_101:
	movb	$37, 64(%rsp)
	movb	%r15b, 65(%rsp)
	testq	%r12, %r12
	js	.LBB36_105
	cmpq	$2, %r12
	movl	$2, %ebx
	cmovbq	%r12, %rbx
	testq	%r12, %r12
	je	.LBB36_104
	leaq	64(%rsp), %rdx
	movq	%rdi, %rcx
	movq	%rbx, %r8
	callq	memcpy
	jmp	.LBB36_104
.LBB36_23:
	movb	$48, 64(%rsp)
	movq	%r12, %rax
	subq	%r14, %rax
	movl	$1, %ebx
	testq	%rax, %rax
	cmovleq	%rax, %rbx
	jle	.LBB36_25
	leaq	(%rdi,%r14), %rcx
	leaq	64(%rsp), %rdx
	movq	%rbx, %r8
	callq	memcpy
.LBB36_25:
	addq	%r14, %rbx
.LBB36_26:
	cmpq	$0, 264(%rsp)
	jle	.LBB36_41
	movb	$46, 64(%rsp)
	testq	%rbx, %rbx
	js	.LBB36_87
	movq	%r12, %r14
	subq	%rbx, %r14
	jl	.LBB36_87
	movl	$1, %esi
	testq	%r14, %r14
	cmovgq	%rsi, %r14
	jle	.LBB36_31
	leaq	(%rdi,%rbx), %rcx
	leaq	64(%rsp), %rdx
	movq	%r14, %r8
	callq	memcpy
.LBB36_31:
	addq	%r14, %rbx
	xorl	%ebp, %ebp
	leaq	64(%rsp), %r14
	jmp	.LBB36_32
	.p2align	4
.LBB36_40:
	addq	%r15, %rbx
	incq	%rbp
	cmpq	%rbp, 264(%rsp)
	je	.LBB36_41
.LBB36_32:
	movq	24(%r13), %rax
	movq	%rbp, %r9
	addq	%rax, %r9
	movb	$48, %cl
	js	.LBB36_36
	cmpq	16(%r13), %r9
	jge	.LBB36_36
	movq	8(%r13), %rcx
	cmpq	%rcx, %r9
	jae	.LBB36_107
	addq	(%r13), %rax
	movzbl	(%rbp,%rax), %ecx
.LBB36_36:
	movb	%cl, 64(%rsp)
	testq	%rbx, %rbx
	js	.LBB36_87
	movq	%r12, %r15
	subq	%rbx, %r15
	jl	.LBB36_87
	testq	%r15, %r15
	cmovgq	%rsi, %r15
	jle	.LBB36_40
	leaq	(%rdi,%rbx), %rcx
	movq	%r14, %rdx
	movq	%r15, %r8
	callq	memcpy
	jmp	.LBB36_40
.LBB36_41:
	testq	%rbx, %rbx
	js	.LBB36_43
	cmpq	%r12, %rbx
	jg	.LBB36_43
	movq	72(%rsp), %rbp
.LBB36_104:
	movq	%rdi, (%rbp)
	movq	%rbx, 8(%rbp)
	jmp	.LBB36_99
.LBB36_50:
	movb	$48, %al
.LBB36_53:
	movb	%al, 64(%rsp)
	movq	%r12, %rax
	subq	%rbx, %rax
	movl	$1, %r14d
	testq	%rax, %rax
	cmovleq	%rax, %r14
	jle	.LBB36_55
	leaq	(%rdi,%rbx), %rcx
	leaq	64(%rsp), %rdx
	movq	%r14, %r8
	callq	memcpy
.LBB36_55:
	addq	%rbx, %r14
	cmpq	$0, 264(%rsp)
	movq	%rbp, 72(%rsp)
	movq	%r15, 104(%rsp)
	jle	.LBB36_56
	movb	$46, 64(%rsp)
	testq	%r14, %r14
	js	.LBB36_109
	movq	%r12, %rbx
	subq	%r14, %rbx
	movl	$1, %eax
	testq	%rbx, %rbx
	cmovgq	%rax, %rbx
	jle	.LBB36_60
	leaq	(%rdi,%r14), %rcx
	leaq	64(%rsp), %rdx
	movq	%rbx, %r8
	callq	memcpy
.LBB36_60:
	addq	%r14, %rbx
	movq	264(%rsp), %rax
	leaq	1(%rax), %rsi
	movq	16(%r13), %rax
	cmpq	%rsi, %rax
	cmovlq	%rax, %rsi
	cmpq	$2, %rsi
	jl	.LBB36_61
	movq	8(%r13), %rax
	cmpq	%rax, %rsi
	jg	.LBB36_110
	testq	%rbx, %rbx
	js	.LBB36_87
	leaq	-1(%rsi), %rax
	movq	%r12, %r14
	subq	%rbx, %r14
	cmpq	%rax, %r14
	cmovgeq	%rax, %r14
	testq	%r14, %r14
	jle	.LBB36_66
	movq	(%r13), %rdx
	incq	%rdx
	leaq	(%rdi,%rbx), %rcx
	movq	%r14, %r8
	callq	memmove
.LBB36_66:
	addq	%r14, %rbx
	cmpq	264(%rsp), %rsi
	ja	.LBB36_74
	jmp	.LBB36_68
.LBB36_56:
	movq	%r14, %rbx
	jmp	.LBB36_74
.LBB36_61:
	movl	$1, %esi
	cmpq	264(%rsp), %rsi
	jbe	.LBB36_68
.LBB36_74:
	movq	104(%rsp), %rax
	movb	%al, 64(%rsp)
	testq	%rbx, %rbx
	js	.LBB36_87
	movq	%r12, %rax
	subq	%rbx, %rax
	jl	.LBB36_87
	movl	$1, %r15d
	testq	%rax, %rax
	cmovleq	%rax, %r15
	movq	72(%rsp), %rbp
	jle	.LBB36_78
	leaq	(%rdi,%rbx), %rcx
	leaq	64(%rsp), %rdx
	movq	%r15, %r8
	callq	memcpy
.LBB36_78:
	movq	16(%r13), %rax
	movq	24(%r13), %rcx
	decq	%rcx
	testq	%rax, %rax
	cmoveq	%rax, %rcx
	movq	%rcx, %rax
	shrq	$63, %rax
	addb	%al, %al
	addb	$43, %al
	movq	%rcx, %r14
	negq	%r14
	cmovsq	%rcx, %r14
	addq	%rbx, %r15
	movb	%al, 64(%rsp)
	js	.LBB36_111
	movq	%r12, %rax
	subq	%r15, %rax
	jl	.LBB36_111
	movl	$1, %ebx
	testq	%rax, %rax
	cmovleq	%rax, %rbx
	jle	.LBB36_82
	leaq	(%rdi,%r15), %rcx
	leaq	64(%rsp), %rdx
	movq	%rbx, %r8
	callq	memcpy
.LBB36_82:
	addq	%r15, %rbx
	cmpq	$10, %r14
	jge	.LBB36_83
	addb	$48, %r14b
	movb	$48, 64(%rsp)
	jmp	.LBB36_85
.LBB36_83:
	cmpq	$100, %r14
	jae	.LBB36_90
	imull	$205, %r14d, %eax
	movzwl	%ax, %eax
	shrl	$11, %eax
	movl	%eax, %ecx
	orb	$48, %cl
	addl	%eax, %eax
	leal	(%rax,%rax,4), %eax
	subb	%al, %r14b
	orb	$48, %r14b
	movb	%cl, 64(%rsp)
.LBB36_85:
	movb	%r14b, 65(%rsp)
	testq	%rbx, %rbx
	js	.LBB36_87
	movq	%r12, %rax
	subq	%rbx, %rax
	jl	.LBB36_87
	cmpq	$2, %rax
	movl	$2, %r14d
	jmp	.LBB36_93
.LBB36_68:
	movl	$1, %ebp
	leaq	64(%rsp), %r14
	jmp	.LBB36_69
	.p2align	4
.LBB36_73:
	addq	%r15, %rbx
	incq	%rsi
	cmpq	264(%rsp), %rsi
	jg	.LBB36_74
.LBB36_69:
	movb	$48, 64(%rsp)
	testq	%rbx, %rbx
	js	.LBB36_87
	movq	%r12, %r15
	subq	%rbx, %r15
	jl	.LBB36_87
	testq	%r15, %r15
	cmovgq	%rbp, %r15
	jle	.LBB36_73
	leaq	(%rdi,%rbx), %rcx
	movq	%r14, %rdx
	movq	%r15, %r8
	callq	memcpy
	jmp	.LBB36_73
.LBB36_90:
	movq	%r14, %rdx
	shrq	$2, %rdx
	movabsq	$2951479051793528259, %rax
	mulxq	%rax, %rax, %rax
	shrl	$2, %eax
	addb	$48, %al
	movabsq	$-3689348814741910323, %rcx
	movq	%r14, %rdx
	mulxq	%rcx, %rcx, %rcx
	shrq	$3, %rcx
	movzbl	%cl, %edx
	imull	$205, %edx, %edx
	shrl	$10, %edx
	andl	$-2, %edx
	leal	(%rdx,%rdx,4), %edx
	movl	%ecx, %r8d
	subb	%dl, %r8b
	orb	$48, %r8b
	addl	%ecx, %ecx
	leal	(%rcx,%rcx,4), %ecx
	subl	%ecx, %r14d
	orb	$48, %r14b
	movb	%al, 64(%rsp)
	movb	%r8b, 65(%rsp)
	movb	%r14b, 66(%rsp)
	testq	%rbx, %rbx
	js	.LBB36_87
	movq	%r12, %rax
	subq	%rbx, %rax
	jl	.LBB36_87
	cmpq	$3, %rax
	movl	$3, %r14d
.LBB36_93:
	cmovlq	%rax, %r14
	testq	%rax, %rax
	jle	.LBB36_95
	leaq	(%rdi,%rbx), %rcx
	leaq	64(%rsp), %rdx
	movq	%r14, %r8
	callq	memcpy
.LBB36_95:
	addq	%rbx, %r14
	js	.LBB36_97
	cmpq	%r12, %r14
	jg	.LBB36_97
	movq	%rdi, (%rbp)
	movq	%r14, 8(%rbp)
.LBB36_99:
	movq	%rbp, %rax
	addq	$152, %rsp
	popq	%rbx
	popq	%rbp
	popq	%rdi
	popq	%rsi
	popq	%r12
	popq	%r13
	popq	%r14
	popq	%r15
	retq
.LBB36_87:
	movq	%r12, 40(%rsp)
	movq	%r12, 32(%rsp)
	leaq	".Lggv$strconv::format_digits.add_bytes-1$1"(%rip), %rcx
	movl	$146, %edx
	movl	$22, %r8d
	movq	%rbx, %r9
	callq	"runtime::slice_handle_error"
.LBB36_107:
	movq	%rcx, 32(%rsp)
	leaq	".Lggv$strconv::format_digits$2"(%rip), %rcx
	movl	$174, %edx
	movl	$22, %r8d
	callq	"runtime::bounds_check_error.handle_error-0"
.LBB36_105:
	movq	%r12, 40(%rsp)
	movq	%r12, 32(%rsp)
	leaq	".Lggv$strconv::format_digits.add_bytes-1$1"(%rip), %rcx
	movl	$146, %edx
	movl	$22, %r8d
	xorl	%r9d, %r9d
	callq	"runtime::slice_handle_error"
.LBB36_111:
	movq	%r12, 40(%rsp)
	movq	%r12, 32(%rsp)
	leaq	".Lggv$strconv::format_digits.add_bytes-1$1"(%rip), %rcx
	movl	$146, %edx
	movl	$22, %r8d
	movq	%r15, %r9
	callq	"runtime::slice_handle_error"
.LBB36_97:
	movq	%r12, 40(%rsp)
	movq	%r14, 32(%rsp)
	jmp	.LBB36_44
.LBB36_43:
	movq	%r12, 40(%rsp)
	movq	%rbx, 32(%rsp)
.LBB36_44:
	leaq	".Lggv$strconv::format_digits.to_bytes-0$1"(%rip), %rcx
	movl	$143, %edx
	movl	$13, %r8d
	xorl	%r9d, %r9d
	callq	"runtime::slice_handle_error"
.LBB36_108:
	movq	$0, 32(%rsp)
	leaq	".Lggv$strconv::format_digits$3"(%rip), %rcx
	movl	$186, %edx
	movl	$21, %r8d
	xorl	%r9d, %r9d
	callq	"runtime::bounds_check_error.handle_error-0"
.LBB36_106:
	movq	%rcx, 40(%rsp)
	movq	%rsi, 32(%rsp)
	leaq	".Lggv$strconv::format_digits$1"(%rip), %rcx
	movl	$159, %edx
	movl	$31, %r8d
	xorl	%r9d, %r9d
	callq	"runtime::slice_handle_error"
.LBB36_109:
	movq	%r12, 40(%rsp)
	movq	%r12, 32(%rsp)
	leaq	".Lggv$strconv::format_digits.add_bytes-1$1"(%rip), %rcx
	movl	$146, %edx
	movl	$22, %r8d
	movq	%r14, %r9
	callq	"runtime::slice_handle_error"
.LBB36_110:
	movq	%rax, 40(%rsp)
	movq	%rsi, 32(%rsp)
	leaq	".Lggv$strconv::format_digits$4"(%rip), %rcx
	movl	$1, %r9d
	movl	$195, %edx
	movl	$32, %r8d
	callq	"runtime::slice_handle_error"
	int3
	.seh_endproc

	.def	"runtime::print_encoded_rune";
	.scl	3;
	.type	32;
	.endef
	.p2align	4
"runtime::print_encoded_rune":
.seh_proc "runtime::print_encoded_rune"
	pushq	%rsi
	.seh_pushreg %rsi
	pushq	%rdi
	.seh_pushreg %rdi
	pushq	%rbx
	.seh_pushreg %rbx
	subq	$32, %rsp
	.seh_stackalloc 32
	.seh_endprologue
	movl	%ecx, %esi
	movb	$39, %cl
	callq	"runtime::print_byte"
	leal	-7(%rsi), %eax
	cmpl	$20, %eax
	ja	.LBB37_10
	leaq	.LJTI37_0(%rip), %rcx
	movslq	(%rcx,%rax,4), %rax
	addq	%rcx, %rax
	jmpq	*%rax
.LBB37_2:
	leaq	".Lggv$io::write_escaped_rune$9"(%rip), %rcx
	callq	"runtime::print_string"
	jmp	.LBB37_15
.LBB37_10:
	testl	%esi, %esi
	jle	.LBB37_11
	cmpl	$31, %esi
	ja	.LBB37_14
	movl	%esi, %edi
	shrl	$4, %edi
	andl	$15, %esi
	leaq	".Lggv$io::write_encoded_rune$9"(%rip), %rcx
	callq	"runtime::print_string"
	leaq	.Lcsbs$whatde$0(%rip), %rbx
	movzbl	(%rdi,%rbx), %ecx
	callq	"runtime::print_byte"
	movzbl	(%rsi,%rbx), %ecx
	callq	"runtime::print_byte"
	jmp	.LBB37_15
.LBB37_5:
	leaq	".Lggv$io::write_escaped_rune$12"(%rip), %rcx
	callq	"runtime::print_string"
	jmp	.LBB37_15
.LBB37_3:
	leaq	".Lggv$io::write_escaped_rune$10"(%rip), %rcx
	callq	"runtime::print_string"
	jmp	.LBB37_15
.LBB37_7:
	leaq	".Lggv$io::write_escaped_rune$14"(%rip), %rcx
	callq	"runtime::print_string"
	jmp	.LBB37_15
.LBB37_4:
	leaq	".Lggv$io::write_escaped_rune$11"(%rip), %rcx
	callq	"runtime::print_string"
	jmp	.LBB37_15
.LBB37_8:
	leaq	".Lggv$io::write_escaped_rune$15"(%rip), %rcx
	callq	"runtime::print_string"
	jmp	.LBB37_15
.LBB37_6:
	leaq	".Lggv$io::write_escaped_rune$13"(%rip), %rcx
	callq	"runtime::print_string"
	jmp	.LBB37_15
.LBB37_9:
	leaq	".Lggv$io::write_escaped_rune$16"(%rip), %rcx
	callq	"runtime::print_string"
	jmp	.LBB37_15
.LBB37_11:
	leaq	".Lggv$runtime::print_encoded_rune$9"(%rip), %rcx
	callq	"runtime::print_string"
	jmp	.LBB37_15
.LBB37_14:
	movl	%esi, %ecx
	callq	"runtime::print_rune"
.LBB37_15:
	movb	$39, %cl
	addq	$32, %rsp
	popq	%rbx
	popq	%rdi
	popq	%rsi
	jmp	"runtime::print_byte"
	.section	.rdata,"dr"
	.p2align	2, 0x0
.LJTI37_0:
	.long	.LBB37_2-.LJTI37_0
	.long	.LBB37_3-.LJTI37_0
	.long	.LBB37_8-.LJTI37_0
	.long	.LBB37_6-.LJTI37_0
	.long	.LBB37_9-.LJTI37_0
	.long	.LBB37_5-.LJTI37_0
	.long	.LBB37_7-.LJTI37_0
	.long	.LBB37_10-.LJTI37_0
	.long	.LBB37_10-.LJTI37_0
	.long	.LBB37_10-.LJTI37_0
	.long	.LBB37_10-.LJTI37_0
	.long	.LBB37_10-.LJTI37_0
	.long	.LBB37_10-.LJTI37_0
	.long	.LBB37_10-.LJTI37_0
	.long	.LBB37_10-.LJTI37_0
	.long	.LBB37_10-.LJTI37_0
	.long	.LBB37_10-.LJTI37_0
	.long	.LBB37_10-.LJTI37_0
	.long	.LBB37_10-.LJTI37_0
	.long	.LBB37_10-.LJTI37_0
	.long	.LBB37_4-.LJTI37_0
	.text
	.seh_endproc

	.def	"io::write_encoded_rune";
	.scl	3;
	.type	32;
	.endef
	.p2align	4
"io::write_encoded_rune":
.seh_proc "io::write_encoded_rune"
	pushq	%r15
	.seh_pushreg %r15
	pushq	%r14
	.seh_pushreg %r14
	pushq	%r13
	.seh_pushreg %r13
	pushq	%r12
	.seh_pushreg %r12
	pushq	%rsi
	.seh_pushreg %rsi
	pushq	%rdi
	.seh_pushreg %rdi
	pushq	%rbp
	.seh_pushreg %rbp
	pushq	%rbx
	.seh_pushreg %rbx
	subq	$184, %rsp
	.seh_stackalloc 184
	.seh_endprologue
	movq	%r9, %rsi
	movl	%r8d, %ebx
	movl	%edx, %r14d
	movq	296(%rsp), %rdi
	movq	288(%rsp), %r12
	vmovups	(%rcx), %xmm0
	vmovaps	%xmm0, 112(%rsp)
	movq	$0, 88(%rsp)
	testb	%r8b, %r8b
	je	.LBB38_3
	movq	112(%rsp), %rax
	movq	120(%rsp), %rcx
	movb	$39, 87(%rsp)
	leaq	87(%rsp), %rdx
	movq	%rdx, 96(%rsp)
	movq	$1, 104(%rsp)
	testq	%rax, %rax
	je	.LBB38_9
	movq	$0, 72(%rsp)
	movq	%rdi, 48(%rsp)
	leaq	72(%rsp), %rdx
	movq	%rdx, 40(%rsp)
	movq	$0, 32(%rsp)
	leaq	96(%rsp), %r8
	movl	$4, %edx
	xorl	%r9d, %r9d
	callq	*%rax
	movq	72(%rsp), %r13
	movq	%r13, 88(%rsp)
	testl	%eax, %eax
	jne	.LBB38_33
	jmp	.LBB38_4
.LBB38_3:
	xorl	%r13d, %r13d
.LBB38_4:
	leal	-7(%r14), %eax
	cmpl	$20, %eax
	ja	.LBB38_10
	leaq	.LJTI38_0(%rip), %rcx
	movslq	(%rcx,%rax,4), %rax
	addq	%rcx, %rax
	jmpq	*%rax
.LBB38_6:
	movq	112(%rsp), %rax
	movq	120(%rsp), %rcx
	vmovups	".Lggv$io::write_escaped_rune$9"(%rip), %xmm0
	jmp	.LBB38_7
.LBB38_9:
	movl	$-1, %eax
	xorl	%r13d, %r13d
	jmp	.LBB38_33
.LBB38_10:
	cmpl	$31, %r14d
	jg	.LBB38_30
	movq	112(%rsp), %rbp
	movq	120(%rsp), %r15
	vmovups	".Lggv$io::write_encoded_rune$9"(%rip), %xmm0
	vmovaps	%xmm0, 96(%rsp)
	testq	%rbp, %rbp
	je	.LBB38_8
	movq	$0, 72(%rsp)
	movq	%rdi, 48(%rsp)
	leaq	72(%rsp), %rax
	movq	%rax, 40(%rsp)
	movq	$0, 32(%rsp)
	leaq	96(%rsp), %r8
	movl	$4, %edx
	movq	%r15, %rcx
	xorl	%r9d, %r9d
	callq	*%rbp
	addq	72(%rsp), %r13
	movq	%r13, 88(%rsp)
	testl	%eax, %eax
	jne	.LBB38_33
	movw	$0, 142(%rsp)
	leaq	142(%rsp), %rax
	movq	%rax, 160(%rsp)
	movq	$2, 168(%rsp)
	movslq	%r14d, %r8
	vxorps	%xmm0, %xmm0, %xmm0
	vmovaps	%xmm0, 144(%rsp)
	movq	%rdi, 64(%rsp)
	leaq	"strconv::digits"(%rip), %rax
	movq	%rax, 48(%rsp)
	movb	$0, 56(%rsp)
	movq	$64, 40(%rsp)
	movb	$1, 32(%rsp)
	leaq	144(%rsp), %rcx
	leaq	160(%rsp), %rdx
	movl	$16, %r9d
	callq	"strconv::write_bits"
	movq	144(%rsp), %rcx
	movq	152(%rsp), %r14
	cmpq	$2, %r14
	je	.LBB38_36
	cmpq	$1, %r14
	je	.LBB38_34
	testq	%r14, %r14
	jne	.LBB38_26
	vmovups	".Lggv$io::write_encoded_rune$10"(%rip), %xmm0
	vmovaps	%xmm0, 96(%rsp)
	movq	$0, 72(%rsp)
	movq	%rdi, 48(%rsp)
	leaq	72(%rsp), %rax
	movq	%rax, 40(%rsp)
	movq	$0, 32(%rsp)
	leaq	96(%rsp), %r8
	movl	$4, %edx
	movq	%r15, %rcx
	xorl	%r9d, %r9d
	callq	*%rbp
	jmp	.LBB38_25
.LBB38_17:
	movq	112(%rsp), %rax
	movq	120(%rsp), %rcx
	vmovups	".Lggv$io::write_escaped_rune$12"(%rip), %xmm0
	jmp	.LBB38_7
.LBB38_18:
	movq	112(%rsp), %rax
	movq	120(%rsp), %rcx
	vmovups	".Lggv$io::write_escaped_rune$10"(%rip), %xmm0
	jmp	.LBB38_7
.LBB38_19:
	movq	112(%rsp), %rax
	movq	120(%rsp), %rcx
	vmovups	".Lggv$io::write_escaped_rune$14"(%rip), %xmm0
	jmp	.LBB38_7
.LBB38_20:
	movq	112(%rsp), %rax
	movq	120(%rsp), %rcx
	vmovups	".Lggv$io::write_escaped_rune$11"(%rip), %xmm0
	jmp	.LBB38_7
.LBB38_21:
	movq	112(%rsp), %rax
	movq	120(%rsp), %rcx
	vmovups	".Lggv$io::write_escaped_rune$15"(%rip), %xmm0
	jmp	.LBB38_7
.LBB38_22:
	movq	112(%rsp), %rax
	movq	120(%rsp), %rcx
	vmovups	".Lggv$io::write_escaped_rune$13"(%rip), %xmm0
	jmp	.LBB38_7
.LBB38_23:
	movq	112(%rsp), %rax
	movq	120(%rsp), %rcx
	vmovups	".Lggv$io::write_escaped_rune$16"(%rip), %xmm0
.LBB38_7:
	vmovaps	%xmm0, 96(%rsp)
	testq	%rax, %rax
	je	.LBB38_8
	movq	$0, 72(%rsp)
	movq	%rdi, 48(%rsp)
	leaq	72(%rsp), %rdx
	movq	%rdx, 40(%rsp)
	movq	$0, 32(%rsp)
	leaq	96(%rsp), %r8
	movl	$4, %edx
	xorl	%r9d, %r9d
	callq	*%rax
.LBB38_25:
	addq	72(%rsp), %r13
	movq	%r13, 88(%rsp)
	testl	%eax, %eax
	jne	.LBB38_33
.LBB38_26:
	testb	%bl, %bl
	je	.LBB38_29
	movq	112(%rsp), %rax
	movq	120(%rsp), %rcx
	movb	$39, 87(%rsp)
	leaq	87(%rsp), %rdx
	movq	%rdx, 96(%rsp)
	movq	$1, 104(%rsp)
	testq	%rax, %rax
	je	.LBB38_31
	movq	$0, 72(%rsp)
	movq	%rdi, 48(%rsp)
	leaq	72(%rsp), %rdx
	movq	%rdx, 40(%rsp)
	movq	$0, 32(%rsp)
	leaq	96(%rsp), %r8
	movl	$4, %edx
	xorl	%r9d, %r9d
	callq	*%rax
	movq	88(%rsp), %r13
	addq	72(%rsp), %r13
	jmp	.LBB38_33
.LBB38_8:
	movl	$-1, %eax
	jmp	.LBB38_33
.LBB38_29:
	xorl	%eax, %eax
	jmp	.LBB38_32
.LBB38_30:
	movq	%rdi, 32(%rsp)
	leaq	112(%rsp), %rcx
	leaq	88(%rsp), %r8
	leaq	176(%rsp), %r9
	movl	%r14d, %edx
	callq	"io::write_rune"
	testl	%eax, %eax
	jne	.LBB38_32
	jmp	.LBB38_26
.LBB38_31:
	movl	$-1, %eax
.LBB38_32:
	movq	88(%rsp), %r13
.LBB38_33:
	movq	%r13, (%r12)
	addq	%r13, (%rsi)
	addq	$184, %rsp
	popq	%rbx
	popq	%rbp
	popq	%rdi
	popq	%rsi
	popq	%r12
	popq	%r13
	popq	%r14
	popq	%r15
	retq
.LBB38_34:
	movq	%rcx, %r13
	leaq	112(%rsp), %rcx
	leaq	88(%rsp), %r8
	movb	$48, %dl
	movq	%rdi, %r9
	callq	"io::write_byte"
	movq	%r13, %rcx
	testl	%eax, %eax
	jne	.LBB38_32
.LBB38_36:
	movq	%rcx, 96(%rsp)
	movq	%r14, 104(%rsp)
	movq	$0, 72(%rsp)
	movq	%rdi, 48(%rsp)
	leaq	72(%rsp), %rax
	movq	%rax, 40(%rsp)
	movq	$0, 32(%rsp)
	leaq	96(%rsp), %r8
	movl	$4, %edx
	movq	%r15, %rcx
	xorl	%r9d, %r9d
	callq	*%rbp
	movq	88(%rsp), %r13
	jmp	.LBB38_25
	.section	.rdata,"dr"
	.p2align	2, 0x0
.LJTI38_0:
	.long	.LBB38_6-.LJTI38_0
	.long	.LBB38_18-.LJTI38_0
	.long	.LBB38_21-.LJTI38_0
	.long	.LBB38_22-.LJTI38_0
	.long	.LBB38_23-.LJTI38_0
	.long	.LBB38_17-.LJTI38_0
	.long	.LBB38_19-.LJTI38_0
	.long	.LBB38_10-.LJTI38_0
	.long	.LBB38_10-.LJTI38_0
	.long	.LBB38_10-.LJTI38_0
	.long	.LBB38_10-.LJTI38_0
	.long	.LBB38_10-.LJTI38_0
	.long	.LBB38_10-.LJTI38_0
	.long	.LBB38_10-.LJTI38_0
	.long	.LBB38_10-.LJTI38_0
	.long	.LBB38_10-.LJTI38_0
	.long	.LBB38_10-.LJTI38_0
	.long	.LBB38_10-.LJTI38_0
	.long	.LBB38_10-.LJTI38_0
	.long	.LBB38_10-.LJTI38_0
	.long	.LBB38_20-.LJTI38_0
	.text
	.seh_endproc

	.def	"runtime::mem_alloc";
	.scl	3;
	.type	32;
	.endef
	.p2align	4
"runtime::mem_alloc":
.seh_proc "runtime::mem_alloc"
	pushq	%rsi
	.seh_pushreg %rsi
	pushq	%rdi
	.seh_pushreg %rdi
	subq	$120, %rsp
	.seh_stackalloc 120
	.seh_endprologue
	movq	184(%rsp), %rax
	testq	%rdx, %rdx
	jle	.LBB39_6
	movq	%rdx, %r10
	movq	%rcx, %r11
	xorl	%ecx, %ecx
	popcntq	%rdx, %rcx
	cmpl	$2, %ecx
	jae	.LBB39_6
	movq	176(%rsp), %rsi
	movq	(%r8), %rdi
	testq	%r11, %r11
	sete	%cl
	testq	%rdi, %rdi
	sete	%dl
	orb	%cl, %dl
	cmpb	$1, %dl
	jne	.LBB39_5
	xorl	%ecx, %ecx
	xorl	%edx, %edx
	xorl	%eax, %eax
	jmp	.LBB39_4
.LBB39_5:
	movq	8(%r8), %rcx
	vxorps	%xmm0, %xmm0, %xmm0
	vmovaps	%xmm0, 80(%rsp)
	movq	%rax, 64(%rsp)
	leaq	80(%rsp), %rax
	movq	%rax, 56(%rsp)
	movq	%r9, 48(%rsp)
	vmovups	%xmm0, 32(%rsp)
	xorl	%edx, %edx
	movq	%r11, %r8
	movq	%r10, %r9
	callq	*%rdi
	movq	80(%rsp), %rcx
	movq	88(%rsp), %rdx
.LBB39_4:
	movq	%rcx, (%rsi)
	movq	%rdx, 8(%rsi)
	addq	$120, %rsp
	popq	%rdi
	popq	%rsi
	retq
.LBB39_6:
	vmovups	".Lggv$runtime::mem_alloc$1"(%rip), %xmm0
	vmovaps	%xmm0, 96(%rsp)
	movq	32(%rax), %rcx
	testq	%rcx, %rcx
	leaq	"runtime::default_assertion_failure_proc"(%rip), %r10
	cmovneq	%rcx, %r10
	leaq	".Lggv$runtime::assert.internal-0$1"(%rip), %rcx
	leaq	96(%rsp), %rdx
	movq	%r9, %r8
	movq	%rax, %r9
	callq	*%r10
	int3
	.seh_endproc

	.def	"strconv_decimal::assign";
	.scl	3;
	.type	32;
	.endef
	.p2align	4
"strconv_decimal::assign":
.seh_proc "strconv_decimal::assign"
	pushq	%rsi
	.seh_pushreg %rsi
	pushq	%rdi
	.seh_pushreg %rdi
	pushq	%rbx
	.seh_pushreg %rbx
	subq	$112, %rsp
	.seh_stackalloc 112
	.seh_endprologue
	vxorps	%xmm0, %xmm0, %xmm0
	vmovups	%ymm0, 80(%rsp)
	vmovups	%ymm0, 48(%rsp)
	testq	%rdx, %rdx
	je	.LBB40_7
	movq	%rdx, %rax
	xorl	%r8d, %r8d
	movabsq	$-3689348814741910323, %r9
	movabsq	$2951479051793528259, %r10
	movabsq	$2361183241434822607, %r11
	movabsq	$3777893186295716171, %rsi
	.p2align	4
.LBB40_2:
	cmpq	$64, %r8
	je	.LBB40_21
	movq	%rax, %rdx
	mulxq	%r9, %rdi, %rdi
	shrq	$3, %rdi
	imull	$246, %edi, %edx
	addl	%eax, %edx
	addb	$48, %dl
	movb	%dl, 48(%rsp,%r8)
	cmpq	$10, %rax
	jb	.LBB40_8
	movq	%rax, %rdx
	shrq	$2, %rdx
	mulxq	%r10, %rbx, %rbx
	shrq	$2, %rbx
	imull	$246, %ebx, %edx
	addl	%edx, %edi
	addb	$48, %dil
	movb	%dil, 49(%rsp,%r8)
	cmpq	$100, %rax
	jb	.LBB40_9
	movq	%rax, %rdx
	shrq	$3, %rdx
	mulxq	%r11, %rdi, %rdi
	shrq	$4, %rdi
	imull	$246, %edi, %edx
	addl	%edx, %ebx
	addb	$48, %bl
	movb	%bl, 50(%rsp,%r8)
	cmpq	$1000, %rax
	jb	.LBB40_10
	movq	%rax, %rdx
	mulxq	%rsi, %rdx, %rdx
	shrq	$11, %rdx
	imull	$246, %edx, %ebx
	addl	%ebx, %edi
	addb	$48, %dil
	movb	%dil, 51(%rsp,%r8)
	addq	$4, %r8
	cmpq	$10000, %rax
	movq	%rdx, %rax
	jae	.LBB40_2
	jmp	.LBB40_11
.LBB40_7:
	vxorps	%xmm0, %xmm0, %xmm0
	vmovups	%xmm0, 384(%rcx)
	addq	$392, %rcx
	movq	%rcx, %rdx
	jmp	.LBB40_19
.LBB40_8:
	incq	%r8
	jmp	.LBB40_11
.LBB40_9:
	addq	$2, %r8
	jmp	.LBB40_11
.LBB40_10:
	addq	$3, %r8
.LBB40_11:
	movq	$0, 384(%rcx)
	incq	%r8
	xorl	%r9d, %r9d
	.p2align	4
.LBB40_12:
	cmpq	$384, %r9
	jae	.LBB40_22
	movzbl	46(%rsp,%r8), %eax
	movb	%al, (%rcx,%r9)
	movq	384(%rcx), %rax
	leaq	1(%rax), %r9
	movq	%r9, 384(%rcx)
	decq	%r8
	cmpq	$1, %r8
	jg	.LBB40_12
	leaq	392(%rcx), %rdx
	movq	%r9, 392(%rcx)
	movabsq	$9223372036854775806, %r8
	cmpq	%r8, %rax
	ja	.LBB40_18
	.p2align	4
.LBB40_15:
	cmpq	$385, %r9
	jae	.LBB40_23
	cmpb	$48, (%rcx,%rax)
	jne	.LBB40_20
	movq	%rax, 384(%rcx)
	leaq	-1(%rax), %r8
	incq	%rax
	cmpq	$1, %rax
	movq	%r8, %rax
	ja	.LBB40_15
	jmp	.LBB40_19
.LBB40_18:
	testq	%r9, %r9
	jne	.LBB40_20
.LBB40_19:
	movq	$0, (%rdx)
.LBB40_20:
	addq	$112, %rsp
	popq	%rbx
	popq	%rdi
	popq	%rsi
	vzeroupper
	retq
.LBB40_22:
	movq	$384, 32(%rsp)
	leaq	".Lggv$strconv_decimal::assign$2"(%rip), %rcx
	movl	$187, %edx
	movl	$12, %r8d
	vzeroupper
	callq	"runtime::bounds_check_error.handle_error-0"
.LBB40_21:
	movq	$64, 32(%rsp)
	leaq	".Lggv$strconv_decimal::assign$1"(%rip), %rcx
	movl	$64, %r9d
	movl	$180, %edx
	movl	$7, %r8d
	vzeroupper
	callq	"runtime::bounds_check_error.handle_error-0"
.LBB40_23:
	movq	$384, 32(%rsp)
	leaq	".Lggv$strconv_decimal::trim$1"(%rip), %rcx
	movl	$158, %edx
	movl	$30, %r8d
	movq	%rax, %r9
	vzeroupper
	callq	"runtime::bounds_check_error.handle_error-0"
	int3
	.seh_endproc

	.def	"runtime::print_rune";
	.scl	3;
	.type	32;
	.endef
	.p2align	4
"runtime::print_rune":
.seh_proc "runtime::print_rune"
	pushq	%r14
	.seh_pushreg %r14
	pushq	%rsi
	.seh_pushreg %rsi
	pushq	%rdi
	.seh_pushreg %rdi
	pushq	%rbp
	.seh_pushreg %rbp
	pushq	%rbx
	.seh_pushreg %rbx
	subq	$48, %rsp
	.seh_stackalloc 48
	.seh_endprologue
	cmpl	$127, %ecx
	ja	.LBB41_1
	addq	$48, %rsp
	popq	%rbx
	popq	%rbp
	popq	%rdi
	popq	%rsi
	popq	%r14
	jmp	"runtime::print_byte"
.LBB41_1:
	cmpl	$2047, %ecx
	ja	.LBB41_3
	movl	%ecx, %edx
	shrl	$6, %edx
	orb	$-64, %dl
	movl	$2, %ebx
	xorl	%eax, %eax
	xorl	%r8d, %r8d
	jmp	.LBB41_6
.LBB41_3:
	movl	%ecx, %eax
	andl	$2095104, %eax
	cmpl	$55296, %eax
	movl	$65533, %edx
	movl	%ecx, %eax
	cmovel	%edx, %eax
	cmpl	$1114112, %ecx
	cmovael	%edx, %eax
	movl	%eax, %edx
	cmpl	$65535, %ecx
	ja	.LBB41_5
	shrl	$12, %edx
	orb	$-32, %dl
	movl	%eax, %ecx
	shrl	$6, %ecx
	andb	$63, %al
	orb	$-128, %al
	movl	$3, %ebx
	xorl	%r8d, %r8d
	jmp	.LBB41_6
.LBB41_5:
	shrl	$18, %edx
	orb	$-16, %dl
	movl	%eax, %ecx
	shrl	$12, %ecx
	movl	%eax, %r9d
	shrl	$6, %r9d
	andb	$63, %r9b
	orb	$-128, %r9b
	andb	$63, %al
	movl	%eax, %r8d
	orb	$-128, %r8b
	movl	$4, %ebx
	movl	%r9d, %eax
.LBB41_6:
	andb	$63, %cl
	orb	$-128, %cl
	movb	%dl, 40(%rsp)
	movb	%cl, 41(%rsp)
	movb	%al, 42(%rsp)
	movb	%r8b, 43(%rsp)
	movl	$-12, %ecx
	callq	GetStdHandle
	movq	%rax, %rsi
	xorl	%r14d, %r14d
	movq	%rax, %rcx
	movl	$1, %edx
	xorl	%r8d, %r8d
	callq	SetHandleInformation
	movl	$0, 44(%rsp)
	movl	$1073741824, %ebp
	leaq	44(%rsp), %rdi
	.p2align	4
.LBB41_8:
	movl	%ebx, %r8d
	subl	%r14d, %r8d
	cmpl	$1073741824, %r8d
	cmovgel	%ebp, %r8d
	leaq	(%rsp,%r14), %rdx
	addq	$40, %rdx
	movq	$0, 32(%rsp)
	movq	%rsi, %rcx
	movq	%rdi, %r9
	callq	WriteFile
	movl	44(%rsp), %ecx
	testq	%rcx, %rcx
	je	.LBB41_10
	testl	%eax, %eax
	je	.LBB41_10
	addq	%rcx, %r14
	cmpq	%rbx, %r14
	jl	.LBB41_8
	jmp	.LBB41_11
.LBB41_10:
	callq	GetLastError
.LBB41_11:
	nop
	addq	$48, %rsp
	popq	%rbx
	popq	%rbp
	popq	%rdi
	popq	%rsi
	popq	%r14
	retq
	.seh_endproc

	.def	"runtime::print_u64";
	.scl	3;
	.type	32;
	.endef
	.p2align	4
"runtime::print_u64":
.seh_proc "runtime::print_u64"
	pushq	%r15
	.seh_pushreg %r15
	pushq	%r14
	.seh_pushreg %r14
	pushq	%rsi
	.seh_pushreg %rsi
	pushq	%rdi
	.seh_pushreg %rdi
	pushq	%rbp
	.seh_pushreg %rbp
	pushq	%rbx
	.seh_pushreg %rbx
	subq	$184, %rsp
	.seh_stackalloc 184
	.seh_endprologue
	vxorps	%xmm0, %xmm0, %xmm0
	vmovups	%ymm0, 144(%rsp)
	vmovups	%ymm0, 112(%rsp)
	vmovups	%ymm0, 80(%rsp)
	vmovups	%ymm0, 48(%rsp)
	movb	$0, 176(%rsp)
	cmpq	$10, %rcx
	jb	.LBB42_11
	movl	$1, %r14d
	leaq	176(%rsp), %rbx
	leaq	.Lcsbs$whatde$0(%rip), %rax
	movabsq	$-3689348814741910323, %r8
	.p2align	4
.LBB42_2:
	movq	%rcx, %rdx
	mulxq	%r8, %rcx, %rcx
	shrq	$3, %rcx
	leaq	(%rcx,%rcx), %r9
	leaq	(%r9,%r9,4), %r9
	movq	%rdx, %r10
	subq	%r9, %r10
	movzbl	(%rax,%r10), %r9d
	movb	%r9b, (%rbx)
	incq	%r14
	decq	%rbx
	cmpq	$99, %rdx
	ja	.LBB42_2
	movzbl	(%rcx,%rax), %eax
	movb	%al, (%rbx)
	testq	%r14, %r14
	jne	.LBB42_4
	jmp	.LBB42_10
.LBB42_11:
	leaq	176(%rsp), %rbx
	leaq	.Lcsbs$whatde$0(%rip), %rax
	movzbl	(%rcx,%rax), %eax
	movb	%al, 176(%rsp)
	movl	$1, %r14d
.LBB42_4:
	movl	$-12, %ecx
	vzeroupper
	callq	GetStdHandle
	movq	%rax, %rsi
	movq	%rax, %rcx
	movl	$1, %edx
	xorl	%r8d, %r8d
	callq	SetHandleInformation
	movl	$0, 44(%rsp)
	testq	%r14, %r14
	jle	.LBB42_10
	xorl	%r15d, %r15d
	movl	$1073741824, %ebp
	leaq	44(%rsp), %rdi
	.p2align	4
.LBB42_7:
	movl	%r14d, %r8d
	subl	%r15d, %r8d
	cmpl	$1073741824, %r8d
	cmovgel	%ebp, %r8d
	leaq	(%rbx,%r15), %rdx
	movq	$0, 32(%rsp)
	movq	%rsi, %rcx
	movq	%rdi, %r9
	callq	WriteFile
	movl	44(%rsp), %ecx
	testq	%rcx, %rcx
	je	.LBB42_9
	testl	%eax, %eax
	je	.LBB42_9
	addq	%rcx, %r15
	cmpq	%r14, %r15
	jl	.LBB42_7
	jmp	.LBB42_10
.LBB42_9:
	callq	GetLastError
.LBB42_10:
	nop
	addq	$184, %rsp
	popq	%rbx
	popq	%rbp
	popq	%rdi
	popq	%rsi
	popq	%r14
	popq	%r15
	vzeroupper
	retq
	.seh_endproc

	.def	"runtime::mem_free";
	.scl	3;
	.type	32;
	.endef
	.p2align	4
"runtime::mem_free":
.seh_proc "runtime::mem_free"
	subq	$104, %rsp
	.seh_stackalloc 104
	.seh_endprologue
	movq	(%rdx), %r10
	testq	%r10, %r10
	je	.LBB43_2
	movq	8(%rdx), %rax
	vxorps	%xmm0, %xmm0, %xmm0
	vmovaps	%xmm0, 80(%rsp)
	movq	%r9, 64(%rsp)
	leaq	80(%rsp), %rdx
	movq	%rdx, 56(%rsp)
	movq	%r8, 48(%rsp)
	movq	%rcx, 32(%rsp)
	movq	$0, 40(%rsp)
	movq	%rax, %rcx
	movb	$1, %dl
	xorl	%r8d, %r8d
	xorl	%r9d, %r9d
	callq	*%r10
.LBB43_2:
	nop
	addq	$104, %rsp
	retq
	.seh_endproc

	.def	"strconv_decimal::shift_right";
	.scl	3;
	.type	32;
	.endef
	.p2align	4
"strconv_decimal::shift_right":
.seh_proc "strconv_decimal::shift_right"
	pushq	%rsi
	.seh_pushreg %rsi
	pushq	%rdi
	.seh_pushreg %rdi
	subq	$40, %rsp
	.seh_stackalloc 40
	.seh_endprologue
	movq	384(%rcx), %rax
	movq	%rax, %r8
	sarq	$63, %r8
	andnq	%rax, %r8, %r9
	movq	%rax, %r11
	negq	%r11
	movq	%r9, %rsi
	negq	%rsi
	movl	$3, %r10d
	xorl	%r8d, %r8d
.LBB44_1:
	leaq	(%rsi,%r10), %rdi
	cmpq	$3, %rdi
	je	.LBB44_2
	cmpq	$387, %r10
	je	.LBB44_39
	movzbl	-3(%rcx,%r10), %edi
	leaq	(%r8,%r8,4), %r8
	leaq	(%rdi,%r8,2), %r8
	addq	$-48, %r8
	shrxq	%rdx, %r8, %rdi
	testq	%rdi, %rdi
	jne	.LBB44_14
	leaq	(%r11,%r10), %rdi
	incq	%rdi
	cmpq	$3, %rdi
	je	.LBB44_2
	movzbl	-2(%rcx,%r10), %edi
	leaq	(%r8,%r8,4), %r8
	leaq	(%rdi,%r8,2), %r8
	addq	$-48, %r8
	shrxq	%rdx, %r8, %rdi
	testq	%rdi, %rdi
	jne	.LBB44_15
	leaq	(%r11,%r10), %rdi
	addq	$2, %rdi
	cmpq	$3, %rdi
	je	.LBB44_2
	movzbl	-1(%rcx,%r10), %edi
	leaq	(%r8,%r8,4), %r8
	leaq	(%rdi,%r8,2), %r8
	addq	$-48, %r8
	shrxq	%rdx, %r8, %rdi
	testq	%rdi, %rdi
	jne	.LBB44_16
	cmpq	%r10, %rax
	je	.LBB44_2
	movzbl	(%rcx,%r10), %edi
	leaq	(%r8,%r8,4), %r8
	leaq	(%rdi,%r8,2), %r8
	addq	$-48, %r8
	shrxq	%rdx, %r8, %rdi
	addq	$4, %r10
	testq	%rdi, %rdi
	je	.LBB44_1
	addq	$-3, %r10
	jmp	.LBB44_16
.LBB44_2:
	testq	%r8, %r8
	je	.LBB44_38
	.p2align	4
.LBB44_3:
	shrxq	%rdx, %r8, %r10
	testq	%r10, %r10
	jne	.LBB44_17
	addq	%r8, %r8
	leaq	(%r8,%r8,4), %r8
	incq	%r9
	jmp	.LBB44_3
.LBB44_38:
	movq	$0, 384(%rcx)
	jmp	.LBB44_37
.LBB44_14:
	addq	$-2, %r10
	jmp	.LBB44_16
.LBB44_15:
	decq	%r10
.LBB44_16:
	movq	%r10, %r9
.LBB44_17:
	movq	392(%rcx), %r10
	subq	%r9, %r10
	incq	%r10
	movq	%r10, 392(%rcx)
	movq	$-1, %r10
	shlxq	%rdx, %r10, %r10
	notq	%r10
	cmpq	%rax, %r9
	jge	.LBB44_18
	xorl	%eax, %eax
	.p2align	4
.LBB44_24:
	cmpq	$384, %r9
	jae	.LBB44_40
	shrxq	%rdx, %r8, %r11
	andq	%r10, %r8
	movzbl	(%rcx,%r9), %esi
	addb	$48, %r11b
	movb	%r11b, (%rcx,%rax)
	incq	%rax
	leaq	(%r8,%r8,4), %r8
	leaq	(%rsi,%r8,2), %r8
	addq	$-48, %r8
	incq	%r9
	cmpq	384(%rcx), %r9
	jl	.LBB44_24
	testq	%r8, %r8
	jne	.LBB44_20
	jmp	.LBB44_31
.LBB44_18:
	xorl	%eax, %eax
	testq	%r8, %r8
	jne	.LBB44_20
.LBB44_31:
	movq	%rax, 384(%rcx)
	testq	%rax, %rax
	jne	.LBB44_32
	jmp	.LBB44_36
	.p2align	4
.LBB44_29:
	andq	%r10, %r8
	leaq	(%r8,%r8), %r9
	leaq	(%r9,%r9,4), %r9
	testq	%r8, %r8
	movq	%r9, %r8
	je	.LBB44_30
.LBB44_20:
	shrxq	%rdx, %r8, %r9
	cmpq	$383, %rax
	jg	.LBB44_27
	ja	.LBB44_22
	addb	$48, %r9b
	movb	%r9b, (%rcx,%rax)
	incq	%rax
	jmp	.LBB44_29
	.p2align	4
.LBB44_27:
	testq	%r9, %r9
	je	.LBB44_29
	movb	$1, 401(%rcx)
	jmp	.LBB44_29
.LBB44_30:
	movq	%rax, 384(%rcx)
.LBB44_32:
	leaq	-1(%rax), %r9
	.p2align	4
.LBB44_33:
	cmpq	$385, %rax
	jae	.LBB44_41
	cmpb	$48, (%rcx,%r9)
	jne	.LBB44_37
	movq	%r9, 384(%rcx)
	leaq	-1(%r9), %rdx
	incq	%r9
	cmpq	$1, %r9
	movq	%rdx, %r9
	ja	.LBB44_33
.LBB44_36:
	movq	$0, 392(%rcx)
.LBB44_37:
	addq	$40, %rsp
	popq	%rdi
	popq	%rsi
	retq
.LBB44_40:
	movq	$384, 32(%rsp)
	leaq	".Lggv$strconv_decimal::shift_right$2"(%rip), %rcx
	movl	$228, %edx
	movl	$22, %r8d
	callq	"runtime::bounds_check_error.handle_error-0"
.LBB44_41:
	movq	$384, 32(%rsp)
	leaq	".Lggv$strconv_decimal::trim$1"(%rip), %rcx
	movl	$158, %edx
	movl	$30, %r8d
	callq	"runtime::bounds_check_error.handle_error-0"
.LBB44_22:
	movq	$384, 32(%rsp)
	leaq	".Lggv$strconv_decimal::shift_right$4"(%rip), %rcx
	movl	$240, %edx
	movl	$13, %r8d
	movq	%rax, %r9
	callq	"runtime::bounds_check_error.handle_error-0"
.LBB44_39:
	movq	$384, 32(%rsp)
	leaq	".Lggv$strconv_decimal::shift_right$1"(%rip), %rcx
	movl	$384, %r9d
	movl	$220, %edx
	movl	$22, %r8d
	callq	"runtime::bounds_check_error.handle_error-0"
	int3
	.seh_endproc

	.def	"runtime::[random_generator_chacha8.odin]::chacha8rand_refill";
	.scl	3;
	.type	32;
	.endef
	.globl	__ymm@0000000700000006000000050000000400000003000000020000000100000000
	.section	.rdata,"dr",discard,__ymm@0000000700000006000000050000000400000003000000020000000100000000
	.p2align	5, 0x0
__ymm@0000000700000006000000050000000400000003000000020000000100000000:
	.long	0
	.long	1
	.long	2
	.long	3
	.long	4
	.long	5
	.long	6
	.long	7
	.globl	__real@6b206574
	.section	.rdata,"dr",discard,__real@6b206574
	.p2align	2, 0x0
__real@6b206574:
	.long	1797285236
	.globl	__real@79622d32
	.section	.rdata,"dr",discard,__real@79622d32
	.p2align	2, 0x0
__real@79622d32:
	.long	2036477234
	.globl	__real@3320646e
	.section	.rdata,"dr",discard,__real@3320646e
	.p2align	2, 0x0
__real@3320646e:
	.long	857760878
	.globl	__real@61707865
	.section	.rdata,"dr",discard,__real@61707865
	.p2align	2, 0x0
__real@61707865:
	.long	1634760805
	.globl	__ymm@1d1c1f1e19181b1a15141716111013120d0c0f0e09080b0a0504070601000302
	.section	.rdata,"dr",discard,__ymm@1d1c1f1e19181b1a15141716111013120d0c0f0e09080b0a0504070601000302
	.p2align	5, 0x0
__ymm@1d1c1f1e19181b1a15141716111013120d0c0f0e09080b0a0504070601000302:
	.byte	2
	.byte	3
	.byte	0
	.byte	1
	.byte	6
	.byte	7
	.byte	4
	.byte	5
	.byte	10
	.byte	11
	.byte	8
	.byte	9
	.byte	14
	.byte	15
	.byte	12
	.byte	13
	.byte	18
	.byte	19
	.byte	16
	.byte	17
	.byte	22
	.byte	23
	.byte	20
	.byte	21
	.byte	26
	.byte	27
	.byte	24
	.byte	25
	.byte	30
	.byte	31
	.byte	28
	.byte	29
	.globl	__ymm@1e1d1c1f1a19181b16151417121110130e0d0c0f0a09080b0605040702010003
	.section	.rdata,"dr",discard,__ymm@1e1d1c1f1a19181b16151417121110130e0d0c0f0a09080b0605040702010003
	.p2align	5, 0x0
__ymm@1e1d1c1f1a19181b16151417121110130e0d0c0f0a09080b0605040702010003:
	.byte	3
	.byte	0
	.byte	1
	.byte	2
	.byte	7
	.byte	4
	.byte	5
	.byte	6
	.byte	11
	.byte	8
	.byte	9
	.byte	10
	.byte	15
	.byte	12
	.byte	13
	.byte	14
	.byte	19
	.byte	16
	.byte	17
	.byte	18
	.byte	23
	.byte	20
	.byte	21
	.byte	22
	.byte	27
	.byte	24
	.byte	25
	.byte	26
	.byte	31
	.byte	28
	.byte	29
	.byte	30
	.globl	__real@00000008
	.section	.rdata,"dr",discard,__real@00000008
	.p2align	2, 0x0
__real@00000008:
	.long	8
	.globl	__real@0706050403020100
	.section	.rdata,"dr",discard,__real@0706050403020100
	.p2align	3, 0x0
__real@0706050403020100:
	.byte	0
	.byte	1
	.byte	2
	.byte	3
	.byte	4
	.byte	5
	.byte	6
	.byte	7
	.text
	.p2align	4
"runtime::[random_generator_chacha8.odin]::chacha8rand_refill":
.seh_proc "runtime::[random_generator_chacha8.odin]::chacha8rand_refill"
	subq	$920, %rsp
	.seh_stackalloc 920
	vmovdqa	%xmm15, 896(%rsp)
	.seh_savexmm %xmm15, 896
	vmovaps	%xmm14, 880(%rsp)
	.seh_savexmm %xmm14, 880
	vmovaps	%xmm13, 864(%rsp)
	.seh_savexmm %xmm13, 864
	vmovdqa	%xmm12, 848(%rsp)
	.seh_savexmm %xmm12, 848
	vmovdqa	%xmm11, 832(%rsp)
	.seh_savexmm %xmm11, 832
	vmovaps	%xmm10, 816(%rsp)
	.seh_savexmm %xmm10, 816
	vmovaps	%xmm9, 800(%rsp)
	.seh_savexmm %xmm9, 800
	vmovaps	%xmm8, 784(%rsp)
	.seh_savexmm %xmm8, 784
	vmovaps	%xmm7, 768(%rsp)
	.seh_savexmm %xmm7, 768
	vmovaps	%xmm6, 752(%rsp)
	.seh_savexmm %xmm6, 752
	.seh_endprologue
	cmpb	$1, 1032(%rcx)
	jne	.LBB45_6
	vpbroadcastd	992(%rcx), %ymm10
	vpbroadcastd	996(%rcx), %ymm4
	vpbroadcastd	1000(%rcx), %ymm14
	vpbroadcastd	1004(%rcx), %ymm5
	vpbroadcastd	1008(%rcx), %ymm9
	vpbroadcastd	1012(%rcx), %ymm13
	vpbroadcastd	1016(%rcx), %ymm6
	vpbroadcastd	1020(%rcx), %ymm7
	movb	$1, %al
	vpmovsxbd	__real@0706050403020100(%rip), %ymm8
	vbroadcastss	__real@6b206574(%rip), %ymm0
	vmovups	%ymm0, 560(%rsp)
	vbroadcastss	__real@79622d32(%rip), %ymm0
	vmovups	%ymm0, 528(%rsp)
	vbroadcastss	__real@3320646e(%rip), %ymm0
	vmovups	%ymm0, 496(%rsp)
	vbroadcastss	__real@61707865(%rip), %ymm0
	vmovups	%ymm0, 464(%rsp)
	vpbroadcastd	__real@00000008(%rip), %ymm0
	vmovdqu	%ymm0, 432(%rsp)
	movq	%rcx, %rdx
	vmovdqu	%ymm10, 400(%rsp)
	vmovdqu	%ymm4, 368(%rsp)
	vmovdqu	%ymm14, 336(%rsp)
	vmovdqu	%ymm5, 304(%rsp)
	vmovdqu	%ymm9, 272(%rsp)
	vmovdqu	%ymm13, 240(%rsp)
	vmovdqu	%ymm6, 624(%rsp)
	vmovdqu	%ymm7, 592(%rsp)
	.p2align	4
.LBB45_2:
	vpxor	%xmm2, %xmm2, %xmm2
	movl	$10, %r8d
	vmovdqu	464(%rsp), %ymm12
	vmovdqu	496(%rsp), %ymm15
	vmovdqu	528(%rsp), %ymm0
	vmovups	560(%rsp), %ymm1
	vmovdqa	%ymm14, %ymm3
	vmovdqa	%ymm6, %ymm14
	vmovdqu	%ymm7, 160(%rsp)
	vmovdqu	%ymm8, 656(%rsp)
	vpxor	%xmm11, %xmm11, %xmm11
	vpxor	%xmm6, %xmm6, %xmm6
	vmovdqu	%ymm6, 192(%rsp)
	.p2align	4
.LBB45_3:
	vmovups	%ymm1, 32(%rsp)
	vpaddd	%ymm12, %ymm10, %ymm12
	vpxor	%ymm12, %ymm8, %ymm8
	vmovdqa	__ymm@1d1c1f1e19181b1a15141716111013120d0c0f0e09080b0a0504070601000302(%rip), %ymm6
	vpshufb	%ymm6, %ymm8, %ymm8
	vmovdqa	%ymm0, %ymm1
	vmovdqa	%ymm6, %ymm0
	vpaddd	%ymm9, %ymm8, %ymm9
	vpxor	%ymm10, %ymm9, %ymm10
	vpsrld	$20, %ymm10, %ymm6
	vpslld	$12, %ymm10, %ymm10
	vpor	%ymm6, %ymm10, %ymm6
	vpaddd	%ymm6, %ymm12, %ymm12
	vmovdqa	__ymm@1e1d1c1f1a19181b16151417121110130e0d0c0f0a09080b0605040702010003(%rip), %ymm7
	vpshufb	%ymm7, %ymm8, %ymm8
	vpshufb	%ymm7, %ymm12, %ymm10
	vpxor	%ymm8, %ymm10, %ymm8
	vpaddd	%ymm9, %ymm8, %ymm9
	vmovdqu	%ymm9, 96(%rsp)
	vpxor	%ymm6, %ymm9, %ymm6
	vpsrld	$25, %ymm6, %ymm10
	vpslld	$7, %ymm6, %ymm6
	vpor	%ymm6, %ymm10, %ymm6
	vmovdqu	%ymm6, 128(%rsp)
	vpaddd	%ymm4, %ymm15, %ymm6
	vpxor	%ymm6, %ymm2, %ymm2
	vpshufb	%ymm0, %ymm2, %ymm2
	vmovdqa	%ymm0, %ymm15
	vpaddd	%ymm2, %ymm13, %ymm13
	vpxor	%ymm4, %ymm13, %ymm4
	vpsrld	$20, %ymm4, %ymm10
	vpslld	$12, %ymm4, %ymm4
	vpor	%ymm4, %ymm10, %ymm4
	vpaddd	%ymm6, %ymm4, %ymm10
	vmovdqa	%ymm7, %ymm9
	vpshufb	%ymm7, %ymm2, %ymm2
	vpshufb	%ymm7, %ymm10, %ymm6
	vpxor	%ymm2, %ymm6, %ymm2
	vpaddd	%ymm2, %ymm13, %ymm6
	vmovdqu	%ymm6, 64(%rsp)
	vpxor	%ymm4, %ymm6, %ymm4
	vpsrld	$25, %ymm4, %ymm6
	vpslld	$7, %ymm4, %ymm4
	vpor	%ymm6, %ymm4, %ymm4
	vpaddd	%ymm1, %ymm3, %ymm0
	vpxor	%ymm0, %ymm11, %ymm6
	vmovdqa	%ymm15, %ymm13
	vpshufb	%ymm15, %ymm6, %ymm6
	vpaddd	%ymm6, %ymm14, %ymm15
	vpxor	%ymm3, %ymm15, %ymm3
	vpsrld	$20, %ymm3, %ymm11
	vpslld	$12, %ymm3, %ymm3
	vpor	%ymm3, %ymm11, %ymm3
	vpaddd	%ymm0, %ymm3, %ymm0
	vpshufb	%ymm7, %ymm6, %ymm6
	vpshufb	%ymm7, %ymm0, %ymm11
	vpxor	%ymm6, %ymm11, %ymm11
	vpaddd	%ymm15, %ymm11, %ymm6
	vpxor	%ymm3, %ymm6, %ymm3
	vpsrld	$25, %ymm3, %ymm15
	vpslld	$7, %ymm3, %ymm3
	vpor	%ymm3, %ymm15, %ymm3
	vpaddd	32(%rsp), %ymm5, %ymm1
	vpxor	192(%rsp), %ymm1, %ymm15
	vpshufb	%ymm13, %ymm15, %ymm15
	vpaddd	160(%rsp), %ymm15, %ymm7
	vpxor	%ymm5, %ymm7, %ymm5
	vpsrld	$20, %ymm5, %ymm14
	vpslld	$12, %ymm5, %ymm5
	vpor	%ymm5, %ymm14, %ymm5
	vpaddd	%ymm1, %ymm5, %ymm1
	vpshufb	%ymm9, %ymm15, %ymm14
	vpshufb	%ymm9, %ymm1, %ymm15
	vpxor	%ymm14, %ymm15, %ymm14
	vpaddd	%ymm7, %ymm14, %ymm7
	vpxor	%ymm5, %ymm7, %ymm5
	vpsrld	$25, %ymm5, %ymm15
	vpslld	$7, %ymm5, %ymm5
	vpor	%ymm5, %ymm15, %ymm5
	vpaddd	%ymm4, %ymm12, %ymm12
	vpshufb	%ymm13, %ymm14, %ymm14
	vpshufb	%ymm13, %ymm12, %ymm15
	vpxor	%ymm14, %ymm15, %ymm14
	vpaddd	%ymm6, %ymm14, %ymm6
	vpxor	%ymm4, %ymm6, %ymm4
	vpsrld	$20, %ymm4, %ymm15
	vpslld	$12, %ymm4, %ymm4
	vpor	%ymm4, %ymm15, %ymm4
	vpaddd	%ymm4, %ymm12, %ymm12
	vmovdqu	%ymm12, 32(%rsp)
	vpshufb	%ymm9, %ymm14, %ymm14
	vpshufb	%ymm9, %ymm12, %ymm15
	vpxor	%ymm14, %ymm15, %ymm14
	vmovdqu	%ymm14, 192(%rsp)
	vpaddd	%ymm6, %ymm14, %ymm6
	vmovdqu	%ymm6, 720(%rsp)
	vpxor	%ymm4, %ymm6, %ymm4
	vpsrld	$25, %ymm4, %ymm6
	vpslld	$7, %ymm4, %ymm4
	vpor	%ymm6, %ymm4, %ymm4
	vmovdqu	%ymm4, 688(%rsp)
	vpaddd	%ymm3, %ymm10, %ymm6
	vpshufb	%ymm13, %ymm8, %ymm8
	vpshufb	%ymm13, %ymm6, %ymm10
	vpxor	%ymm8, %ymm10, %ymm8
	vpaddd	%ymm7, %ymm8, %ymm7
	vpxor	%ymm3, %ymm7, %ymm3
	vpsrld	$20, %ymm3, %ymm10
	vpslld	$12, %ymm3, %ymm3
	vpor	%ymm3, %ymm10, %ymm3
	vpaddd	%ymm6, %ymm3, %ymm12
	vpshufb	%ymm9, %ymm8, %ymm6
	vpshufb	%ymm9, %ymm12, %ymm8
	vmovdqa	%ymm9, %ymm15
	vpxor	%ymm6, %ymm8, %ymm8
	vpaddd	%ymm7, %ymm8, %ymm6
	vmovdqu	%ymm6, 160(%rsp)
	vpxor	%ymm3, %ymm6, %ymm3
	vpsrld	$25, %ymm3, %ymm6
	vpslld	$7, %ymm3, %ymm3
	vpor	%ymm6, %ymm3, %ymm3
	vpaddd	%ymm0, %ymm5, %ymm0
	vpshufb	%ymm13, %ymm2, %ymm2
	vpshufb	%ymm13, %ymm0, %ymm6
	vpxor	%ymm2, %ymm6, %ymm2
	vpaddd	96(%rsp), %ymm2, %ymm6
	vpxor	%ymm5, %ymm6, %ymm5
	vpsrld	$20, %ymm5, %ymm9
	vpslld	$12, %ymm5, %ymm5
	vpor	%ymm5, %ymm9, %ymm5
	vpaddd	%ymm0, %ymm5, %ymm0
	vpshufb	%ymm15, %ymm2, %ymm2
	vpshufb	%ymm15, %ymm0, %ymm9
	vpxor	%ymm2, %ymm9, %ymm2
	vpaddd	%ymm6, %ymm2, %ymm9
	vpxor	%ymm5, %ymm9, %ymm5
	vpsrld	$25, %ymm5, %ymm6
	vpslld	$7, %ymm5, %ymm5
	vpor	%ymm6, %ymm5, %ymm5
	vmovdqu	128(%rsp), %ymm7
	vpaddd	%ymm1, %ymm7, %ymm1
	vpshufb	%ymm13, %ymm11, %ymm6
	vpshufb	%ymm13, %ymm1, %ymm10
	vpxor	%ymm6, %ymm10, %ymm6
	vpaddd	64(%rsp), %ymm6, %ymm10
	vpxor	%ymm7, %ymm10, %ymm11
	vpsrld	$20, %ymm11, %ymm13
	vpslld	$12, %ymm11, %ymm11
	vpor	%ymm13, %ymm11, %ymm14
	vpaddd	%ymm1, %ymm14, %ymm1
	vpshufb	%ymm15, %ymm6, %ymm6
	vpshufb	%ymm15, %ymm1, %ymm11
	vmovdqa	%ymm12, %ymm15
	vmovdqu	688(%rsp), %ymm4
	vpxor	%ymm6, %ymm11, %ymm11
	vpaddd	%ymm10, %ymm11, %ymm13
	vpxor	%ymm14, %ymm13, %ymm6
	vmovdqu	720(%rsp), %ymm14
	vmovdqu	32(%rsp), %ymm12
	vpsrld	$25, %ymm6, %ymm10
	vpslld	$7, %ymm6, %ymm6
	vpor	%ymm6, %ymm10, %ymm10
	addq	$-2, %r8
	cmpq	$2, %r8
	ja	.LBB45_3
	vinserti128	$1, %xmm15, %ymm12, %ymm6
	vmovdqu	%ymm6, (%rdx)
	vinserti128	$1, %xmm1, %ymm0, %ymm6
	vmovdqu	%ymm6, 32(%rdx)
	vpaddd	400(%rsp), %ymm10, %ymm6
	vmovdqu	%ymm6, 96(%rsp)
	vpaddd	368(%rsp), %ymm4, %ymm4
	vmovdqu	%ymm4, 128(%rsp)
	vinserti128	$1, %xmm4, %ymm6, %ymm10
	vmovdqu	%ymm10, 64(%rdx)
	vpaddd	336(%rsp), %ymm3, %ymm3
	vmovdqu	%ymm3, 64(%rsp)
	vpaddd	304(%rsp), %ymm5, %ymm5
	vinserti128	$1, %xmm5, %ymm3, %ymm10
	vmovdqu	%ymm10, 96(%rdx)
	vpaddd	272(%rsp), %ymm9, %ymm9
	vpaddd	240(%rsp), %ymm13, %ymm10
	vinserti128	$1, %xmm10, %ymm9, %ymm13
	vmovdqu	%ymm13, 128(%rdx)
	vmovdqu	624(%rsp), %ymm6
	vpaddd	%ymm6, %ymm14, %ymm13
	vmovdqu	592(%rsp), %ymm4
	vpaddd	160(%rsp), %ymm4, %ymm7
	vinserti128	$1, %xmm7, %ymm13, %ymm14
	vmovdqu	%ymm14, 160(%rdx)
	vinserti128	$1, %xmm2, %ymm8, %ymm14
	vmovdqu	%ymm14, 192(%rdx)
	vmovdqu	192(%rsp), %ymm3
	vinserti128	$1, %xmm3, %ymm11, %ymm14
	vmovdqu	%ymm14, 224(%rdx)
	vperm2i128	$49, %ymm15, %ymm12, %ymm12
	vmovdqu	%ymm12, 256(%rdx)
	vperm2i128	$49, %ymm1, %ymm0, %ymm0
	vmovdqu	%ymm0, 288(%rdx)
	vmovups	96(%rsp), %ymm0
	vperm2f128	$49, 128(%rsp), %ymm0, %ymm0
	vmovups	%ymm0, 320(%rdx)
	vperm2i128	$19, 64(%rsp), %ymm5, %ymm0
	vmovdqu	304(%rsp), %ymm5
	vmovdqu	336(%rsp), %ymm14
	vmovdqu	%ymm0, 352(%rdx)
	vperm2i128	$49, %ymm10, %ymm9, %ymm0
	vmovdqu	272(%rsp), %ymm9
	vmovdqu	400(%rsp), %ymm10
	vmovdqu	%ymm0, 384(%rdx)
	vperm2i128	$49, %ymm7, %ymm13, %ymm0
	vmovdqa	%ymm4, %ymm7
	vmovdqu	368(%rsp), %ymm4
	vmovdqu	240(%rsp), %ymm13
	vmovdqu	%ymm0, 416(%rdx)
	vperm2i128	$49, %ymm2, %ymm8, %ymm0
	vmovdqu	%ymm0, 448(%rdx)
	vperm2i128	$49, %ymm3, %ymm11, %ymm0
	vmovdqu	%ymm0, 480(%rdx)
	vmovdqu	656(%rsp), %ymm8
	vpaddd	432(%rsp), %ymm8, %ymm8
	addq	$512, %rdx
	testb	$1, %al
	movl	$0, %eax
	jne	.LBB45_2
	movq	$0, 1024(%rcx)
	vmovaps	752(%rsp), %xmm6
	vmovaps	768(%rsp), %xmm7
	vmovaps	784(%rsp), %xmm8
	vmovaps	800(%rsp), %xmm9
	vmovaps	816(%rsp), %xmm10
	vmovaps	832(%rsp), %xmm11
	vmovaps	848(%rsp), %xmm12
	vmovaps	864(%rsp), %xmm13
	vmovaps	880(%rsp), %xmm14
	vmovaps	896(%rsp), %xmm15
	addq	$920, %rsp
	vzeroupper
	retq
.LBB45_6:
	movq	%rdx, %r9
	vmovups	".Lggv$runtime::[random_generator_chacha8.odin]::chacha8rand_refill$1"(%rip), %xmm0
	vmovaps	%xmm0, 224(%rsp)
	movq	32(%rdx), %rax
	testq	%rax, %rax
	leaq	"runtime::default_assertion_failure_proc"(%rip), %r10
	cmovneq	%rax, %r10
	leaq	".Lggv$runtime::assert.internal-0$1"(%rip), %rcx
	leaq	".Lscl$[chacha8rand_refill4587]"(%rip), %r8
	leaq	224(%rsp), %rdx
	callq	*%r10
	int3
	.seh_endproc

	.def	"io::write_escaped_rune";
	.scl	3;
	.type	32;
	.endef
	.p2align	4
"io::write_escaped_rune":
.seh_proc "io::write_escaped_rune"
	pushq	%r15
	.seh_pushreg %r15
	pushq	%r14
	.seh_pushreg %r14
	pushq	%r13
	.seh_pushreg %r13
	pushq	%r12
	.seh_pushreg %r12
	pushq	%rsi
	.seh_pushreg %rsi
	pushq	%rdi
	.seh_pushreg %rdi
	pushq	%rbx
	.seh_pushreg %rbx
	subq	$128, %rsp
	.seh_stackalloc 128
	.seh_endprologue
	movq	%r9, %rsi
	movl	%edx, %ebx
	vmovups	(%rcx), %xmm0
	vmovaps	%xmm0, 80(%rsp)
	movq	224(%rsp), %rdi
	movq	$0, 56(%rsp)
	movzbl	%r8b, %eax
	cmpl	%eax, %edx
	sete	%al
	cmpl	$92, %edx
	sete	%cl
	orb	%al, %cl
	je	.LBB46_5
	movq	80(%rsp), %r15
	movq	88(%rsp), %r14
	movb	$92, 79(%rsp)
	leaq	79(%rsp), %r12
	movq	%r12, 96(%rsp)
	movq	$1, 104(%rsp)
	testq	%r15, %r15
	je	.LBB46_2
	movq	$0, 64(%rsp)
	movq	%rdi, 48(%rsp)
	leaq	64(%rsp), %r13
	movq	%r13, 40(%rsp)
	movq	$0, 32(%rsp)
	leaq	96(%rsp), %r8
	movl	$4, %edx
	movq	%r14, %rcx
	xorl	%r9d, %r9d
	callq	*%r15
	movq	56(%rsp), %rcx
	addq	64(%rsp), %rcx
	movq	%rcx, 56(%rsp)
	testl	%eax, %eax
	jne	.LBB46_40
	movb	%bl, 79(%rsp)
	movq	%r12, 96(%rsp)
	movq	$1, 104(%rsp)
	movq	$0, 64(%rsp)
	movq	%rdi, 48(%rsp)
	movq	%r13, 40(%rsp)
	movq	$0, 32(%rsp)
	leaq	96(%rsp), %r8
	movl	$4, %edx
	movq	%r14, %rcx
	xorl	%r9d, %r9d
	callq	*%r15
	movq	56(%rsp), %rcx
	addq	64(%rsp), %rcx
	jmp	.LBB46_40
.LBB46_5:
	cmpl	$255, %ebx
	jg	.LBB46_9
	leal	-32(%rbx), %eax
	cmpl	$95, %eax
	jb	.LBB46_8
	cmpl	$161, %ebx
	setl	%al
	cmpl	$173, %ebx
	sete	%cl
	orb	%al, %cl
	je	.LBB46_8
.LBB46_9:
	leal	-7(%rbx), %eax
	cmpl	$20, %eax
	ja	.LBB46_22
	leaq	.LJTI46_0(%rip), %rcx
	movslq	(%rcx,%rax,4), %rax
	addq	%rcx, %rax
	jmpq	*%rax
.LBB46_11:
	movq	80(%rsp), %rax
	movq	88(%rsp), %rcx
	vmovups	".Lggv$io::write_escaped_rune$9"(%rip), %xmm0
	jmp	.LBB46_12
.LBB46_8:
	movq	%rdi, 40(%rsp)
	leaq	120(%rsp), %rax
	movq	%rax, 32(%rsp)
	leaq	80(%rsp), %rcx
	leaq	56(%rsp), %r9
	movl	%ebx, %edx
	xorl	%r8d, %r8d
	callq	"io::write_encoded_rune"
	jmp	.LBB46_39
.LBB46_22:
	cmpl	$32, %ebx
	jge	.LBB46_23
	leaq	80(%rsp), %rcx
	leaq	56(%rsp), %r8
	movb	$92, %dl
	movq	%rdi, %r9
	callq	"io::write_byte"
	testl	%eax, %eax
	jne	.LBB46_39
	leaq	80(%rsp), %rcx
	leaq	56(%rsp), %r8
	movb	$120, %dl
	movq	%rdi, %r9
	callq	"io::write_byte"
	testl	%eax, %eax
	jne	.LBB46_39
	movzbl	%bl, %ebx
	movl	%ebx, %eax
	shrl	$4, %eax
	leaq	.Lcsbs$whatde$3(%rip), %r14
.LBB46_35:
	movzbl	(%rax,%r14), %edx
	leaq	80(%rsp), %rcx
	leaq	56(%rsp), %r8
	movq	%rdi, %r9
	callq	"io::write_byte"
	testl	%eax, %eax
	jne	.LBB46_39
	andl	$15, %ebx
	movzbl	(%rbx,%r14), %edx
.LBB46_37:
	leaq	80(%rsp), %rcx
	leaq	56(%rsp), %r8
	movq	%rdi, %r9
	callq	"io::write_byte"
	testl	%eax, %eax
	jne	.LBB46_39
	jmp	.LBB46_14
.LBB46_17:
	movq	80(%rsp), %rax
	movq	88(%rsp), %rcx
	vmovups	".Lggv$io::write_escaped_rune$12"(%rip), %xmm0
	jmp	.LBB46_12
.LBB46_15:
	movq	80(%rsp), %rax
	movq	88(%rsp), %rcx
	vmovups	".Lggv$io::write_escaped_rune$10"(%rip), %xmm0
	jmp	.LBB46_12
.LBB46_19:
	movq	80(%rsp), %rax
	movq	88(%rsp), %rcx
	vmovups	".Lggv$io::write_escaped_rune$14"(%rip), %xmm0
	jmp	.LBB46_12
.LBB46_16:
	movq	80(%rsp), %rax
	movq	88(%rsp), %rcx
	vmovups	".Lggv$io::write_escaped_rune$11"(%rip), %xmm0
	jmp	.LBB46_12
.LBB46_20:
	movq	80(%rsp), %rax
	movq	88(%rsp), %rcx
	vmovups	".Lggv$io::write_escaped_rune$15"(%rip), %xmm0
	jmp	.LBB46_12
.LBB46_18:
	movq	80(%rsp), %rax
	movq	88(%rsp), %rcx
	vmovups	".Lggv$io::write_escaped_rune$13"(%rip), %xmm0
	jmp	.LBB46_12
.LBB46_21:
	movq	80(%rsp), %rax
	movq	88(%rsp), %rcx
	vmovups	".Lggv$io::write_escaped_rune$16"(%rip), %xmm0
.LBB46_12:
	vmovaps	%xmm0, 96(%rsp)
	testq	%rax, %rax
	je	.LBB46_2
	movq	$0, 64(%rsp)
	movq	%rdi, 48(%rsp)
	leaq	64(%rsp), %rdx
	movq	%rdx, 40(%rsp)
	movq	$0, 32(%rsp)
	leaq	96(%rsp), %r8
	movl	$4, %edx
	xorl	%r9d, %r9d
	callq	*%rax
	movq	56(%rsp), %rcx
	addq	64(%rsp), %rcx
	movq	%rcx, 56(%rsp)
	testl	%eax, %eax
	jne	.LBB46_40
.LBB46_14:
	xorl	%eax, %eax
.LBB46_39:
	movq	56(%rsp), %rcx
	jmp	.LBB46_40
.LBB46_2:
	movl	$-1, %eax
	xorl	%ecx, %ecx
.LBB46_40:
	movq	%rcx, (%rsi)
	addq	$128, %rsp
	popq	%rbx
	popq	%rdi
	popq	%rsi
	popq	%r12
	popq	%r13
	popq	%r14
	popq	%r15
	retq
.LBB46_23:
	movl	$65533, %r14d
	cmpl	$1114111, %ebx
	ja	.LBB46_26
	cmpl	$65535, %ebx
	ja	.LBB46_38
	movl	%ebx, %r14d
.LBB46_26:
	leaq	80(%rsp), %rcx
	leaq	56(%rsp), %r8
	movb	$92, %dl
	movq	%rdi, %r9
	callq	"io::write_byte"
	testl	%eax, %eax
	jne	.LBB46_39
	leaq	80(%rsp), %rcx
	leaq	56(%rsp), %r8
	movb	$117, %dl
	movq	%rdi, %r9
	callq	"io::write_byte"
	testl	%eax, %eax
	jne	.LBB46_39
	movl	%r14d, %eax
	shrl	$12, %eax
	leaq	.Lcsbs$whatde$3(%rip), %rbx
	movzbl	(%rax,%rbx), %edx
	leaq	80(%rsp), %rcx
	leaq	56(%rsp), %r8
	movq	%rdi, %r9
	callq	"io::write_byte"
	testl	%eax, %eax
	jne	.LBB46_39
	movl	%r14d, %eax
	shrl	$8, %eax
	andl	$15, %eax
	movzbl	(%rax,%rbx), %edx
	leaq	80(%rsp), %rcx
	leaq	56(%rsp), %r8
	movq	%rdi, %r9
	callq	"io::write_byte"
	testl	%eax, %eax
	jne	.LBB46_39
	movl	%r14d, %eax
	shrl	$4, %eax
	andl	$15, %eax
	movzbl	(%rax,%rbx), %edx
	leaq	80(%rsp), %rcx
	leaq	56(%rsp), %r8
	movq	%rdi, %r9
	callq	"io::write_byte"
	testl	%eax, %eax
	jne	.LBB46_39
	andl	$15, %r14d
	movzbl	(%r14,%rbx), %edx
	jmp	.LBB46_37
.LBB46_38:
	leaq	80(%rsp), %rcx
	leaq	56(%rsp), %r8
	movb	$92, %dl
	movq	%rdi, %r9
	callq	"io::write_byte"
	testl	%eax, %eax
	jne	.LBB46_39
	leaq	80(%rsp), %rcx
	leaq	56(%rsp), %r8
	movb	$85, %dl
	movq	%rdi, %r9
	callq	"io::write_byte"
	testl	%eax, %eax
	jne	.LBB46_39
	leaq	80(%rsp), %rcx
	leaq	56(%rsp), %r8
	movb	$48, %dl
	movq	%rdi, %r9
	callq	"io::write_byte"
	testl	%eax, %eax
	jne	.LBB46_39
	leaq	80(%rsp), %rcx
	leaq	56(%rsp), %r8
	movb	$48, %dl
	movq	%rdi, %r9
	callq	"io::write_byte"
	testl	%eax, %eax
	jne	.LBB46_39
	movl	%ebx, %eax
	shrl	$20, %eax
	leaq	.Lcsbs$whatde$3(%rip), %r14
	movzbl	(%rax,%r14), %edx
	leaq	80(%rsp), %rcx
	leaq	56(%rsp), %r8
	movq	%rdi, %r9
	callq	"io::write_byte"
	testl	%eax, %eax
	jne	.LBB46_39
	movl	%ebx, %eax
	shrl	$16, %eax
	andl	$15, %eax
	movzbl	(%rax,%r14), %edx
	leaq	80(%rsp), %rcx
	leaq	56(%rsp), %r8
	movq	%rdi, %r9
	callq	"io::write_byte"
	testl	%eax, %eax
	jne	.LBB46_39
	movl	%ebx, %eax
	shrl	$12, %eax
	andl	$15, %eax
	movzbl	(%rax,%r14), %edx
	leaq	80(%rsp), %rcx
	leaq	56(%rsp), %r8
	movq	%rdi, %r9
	callq	"io::write_byte"
	testl	%eax, %eax
	jne	.LBB46_39
	movl	%ebx, %eax
	shrl	$8, %eax
	andl	$15, %eax
	movzbl	(%rax,%r14), %edx
	leaq	80(%rsp), %rcx
	leaq	56(%rsp), %r8
	movq	%rdi, %r9
	callq	"io::write_byte"
	testl	%eax, %eax
	jne	.LBB46_39
	movl	%ebx, %eax
	shrl	$4, %eax
	andl	$15, %eax
	jmp	.LBB46_35
	.section	.rdata,"dr"
	.p2align	2, 0x0
.LJTI46_0:
	.long	.LBB46_11-.LJTI46_0
	.long	.LBB46_15-.LJTI46_0
	.long	.LBB46_20-.LJTI46_0
	.long	.LBB46_18-.LJTI46_0
	.long	.LBB46_21-.LJTI46_0
	.long	.LBB46_17-.LJTI46_0
	.long	.LBB46_19-.LJTI46_0
	.long	.LBB46_22-.LJTI46_0
	.long	.LBB46_22-.LJTI46_0
	.long	.LBB46_22-.LJTI46_0
	.long	.LBB46_22-.LJTI46_0
	.long	.LBB46_22-.LJTI46_0
	.long	.LBB46_22-.LJTI46_0
	.long	.LBB46_22-.LJTI46_0
	.long	.LBB46_22-.LJTI46_0
	.long	.LBB46_22-.LJTI46_0
	.long	.LBB46_22-.LJTI46_0
	.long	.LBB46_22-.LJTI46_0
	.long	.LBB46_22-.LJTI46_0
	.long	.LBB46_22-.LJTI46_0
	.long	.LBB46_16-.LJTI46_0
	.text
	.seh_endproc

	.def	"runtime::print_i64";
	.scl	3;
	.type	32;
	.endef
	.p2align	4
"runtime::print_i64":
.seh_proc "runtime::print_i64"
	pushq	%r15
	.seh_pushreg %r15
	pushq	%r14
	.seh_pushreg %r14
	pushq	%rsi
	.seh_pushreg %rsi
	pushq	%rdi
	.seh_pushreg %rdi
	pushq	%rbp
	.seh_pushreg %rbp
	pushq	%rbx
	.seh_pushreg %rbx
	subq	$184, %rsp
	.seh_stackalloc 184
	.seh_endprologue
	movq	%rcx, %rdx
	negq	%rdx
	cmovsq	%rcx, %rdx
	vxorps	%xmm0, %xmm0, %xmm0
	vmovups	%ymm0, 144(%rsp)
	vmovups	%ymm0, 112(%rsp)
	vmovups	%ymm0, 80(%rsp)
	vmovups	%ymm0, 48(%rsp)
	movb	$0, 176(%rsp)
	movl	$129, %edi
	leaq	.Lcsbs$whatde$0(%rip), %r9
	cmpq	$10, %rdx
	jl	.LBB47_1
	movl	$129, %r10d
	movabsq	$-3689348814741910323, %rax
	.p2align	4
.LBB47_3:
	mulxq	%rax, %r8, %r8
	leaq	-1(%r10), %rdi
	shrq	$3, %r8
	leaq	(%r8,%r8), %r11
	leaq	(%r11,%r11,4), %r11
	movq	%rdx, %rsi
	subq	%r11, %rsi
	movzbl	(%r9,%rsi), %r11d
	movb	%r11b, 47(%rsp,%r10)
	movq	%rdi, %r10
	cmpq	$99, %rdx
	movq	%r8, %rdx
	ja	.LBB47_3
	jmp	.LBB47_4
.LBB47_1:
	movq	%rdx, %r8
.LBB47_4:
	movabsq	$7378697629483820647, %rdx
	movq	%r8, %rax
	imulq	%rdx
	movq	%rdx, %rax
	shrq	$63, %rax
	sarq	$2, %rdx
	addq	%rax, %rdx
	addq	%rdx, %rdx
	leaq	(%rdx,%rdx,4), %rax
	subq	%rax, %r8
	movzbl	(%r9,%r8), %eax
	movb	%al, 47(%rsp,%rdi)
	testq	%rcx, %rcx
	js	.LBB47_6
	decq	%rdi
	jmp	.LBB47_7
.LBB47_6:
	movb	$45, 46(%rsp,%rdi)
	addq	$-2, %rdi
.LBB47_7:
	movq	%rdi, %rbx
	subq	$129, %rbx
	je	.LBB47_14
	negq	%rbx
	movl	$-12, %ecx
	vzeroupper
	callq	GetStdHandle
	movq	%rax, %rsi
	movq	%rax, %rcx
	movl	$1, %edx
	xorl	%r8d, %r8d
	callq	SetHandleInformation
	movl	$0, 44(%rsp)
	testq	%rbx, %rbx
	jle	.LBB47_14
	leaq	(%rsp,%rdi), %r14
	addq	$48, %r14
	xorl	%r15d, %r15d
	movl	$1073741824, %ebp
	leaq	44(%rsp), %rdi
	.p2align	4
.LBB47_11:
	movl	%ebx, %r8d
	subl	%r15d, %r8d
	cmpl	$1073741824, %r8d
	cmovgel	%ebp, %r8d
	leaq	(%r14,%r15), %rdx
	movq	$0, 32(%rsp)
	movq	%rsi, %rcx
	movq	%rdi, %r9
	callq	WriteFile
	movl	44(%rsp), %ecx
	testq	%rcx, %rcx
	je	.LBB47_13
	testl	%eax, %eax
	je	.LBB47_13
	addq	%rcx, %r15
	cmpq	%rbx, %r15
	jl	.LBB47_11
	jmp	.LBB47_14
.LBB47_13:
	callq	GetLastError
.LBB47_14:
	nop
	addq	$184, %rsp
	popq	%rbx
	popq	%rbp
	popq	%rdi
	popq	%rsi
	popq	%r14
	popq	%r15
	vzeroupper
	retq
	.seh_endproc

	.def	"runtime::mem_free_with_size";
	.scl	3;
	.type	32;
	.endef
	.p2align	4
"runtime::mem_free_with_size":
.seh_proc "runtime::mem_free_with_size"
	subq	$104, %rsp
	.seh_stackalloc 104
	.seh_endprologue
	movq	(%r8), %r10
	testq	%rcx, %rcx
	sete	%al
	testq	%r10, %r10
	sete	%r11b
	orb	%al, %r11b
	cmpb	$1, %r11b
	je	.LBB48_2
	movq	144(%rsp), %r11
	movq	8(%r8), %rax
	vxorps	%xmm0, %xmm0, %xmm0
	vmovaps	%xmm0, 80(%rsp)
	movq	%r11, 64(%rsp)
	leaq	80(%rsp), %r8
	movq	%r8, 56(%rsp)
	movq	%r9, 48(%rsp)
	movq	%rdx, 40(%rsp)
	movq	%rcx, 32(%rsp)
	movq	%rax, %rcx
	movb	$1, %dl
	xorl	%r8d, %r8d
	xorl	%r9d, %r9d
	callq	*%r10
.LBB48_2:
	nop
	addq	$104, %rsp
	retq
	.seh_endproc

	.def	"runtime::print_caller_location";
	.scl	3;
	.type	32;
	.endef
	.p2align	4
"runtime::print_caller_location":
.seh_proc "runtime::print_caller_location"
	pushq	%rsi
	.seh_pushreg %rsi
	subq	$32, %rsp
	.seh_stackalloc 32
	.seh_endprologue
	movq	%rcx, %rsi
	callq	"runtime::print_string"
	movb	$40, %cl
	callq	"runtime::print_byte"
	movslq	16(%rsi), %rcx
	callq	"runtime::print_u64"
	cmpl	$0, 20(%rsi)
	je	.LBB49_2
	movb	$58, %cl
	callq	"runtime::print_byte"
	movslq	20(%rsi), %rcx
	callq	"runtime::print_u64"
.LBB49_2:
	movb	$41, %cl
	addq	$32, %rsp
	popq	%rsi
	jmp	"runtime::print_byte"
	.seh_endproc

	.def	"bufio::_writer_proc";
	.scl	3;
	.type	32;
	.endef
	.p2align	4
"bufio::_writer_proc":
.seh_proc "bufio::_writer_proc"
	pushq	%r15
	.seh_pushreg %r15
	pushq	%r14
	.seh_pushreg %r14
	pushq	%r13
	.seh_pushreg %r13
	pushq	%r12
	.seh_pushreg %r12
	pushq	%rsi
	.seh_pushreg %rsi
	pushq	%rdi
	.seh_pushreg %rdi
	pushq	%rbp
	.seh_pushreg %rbp
	pushq	%rbx
	.seh_pushreg %rbx
	subq	$88, %rsp
	.seh_stackalloc 88
	.seh_endprologue
	decq	%rdx
	cmpq	$8, %rdx
	ja	.LBB50_21
	movq	%rcx, %rsi
	movq	208(%rsp), %rbx
	leaq	.LJTI50_0(%rip), %rax
	movslq	(%rax,%rdx,4), %rcx
	addq	%rax, %rcx
	jmpq	*%rcx
.LBB50_2:
	movq	%rsi, %rcx
	movq	%rbx, %rdx
	callq	"bufio::writer_flush"
	xorl	%r13d, %r13d
	jmp	.LBB50_30
.LBB50_3:
	movq	(%rsi), %rcx
	movq	8(%rsi), %rdx
	vmovups	16(%rsi), %xmm0
	vmovaps	%xmm0, 64(%rsp)
	movq	%rbx, 32(%rsp)
	leaq	".Lscl$[writer_destroy987]"(%rip), %r9
	leaq	64(%rsp), %r8
	callq	"runtime::mem_free_with_size"
	vxorps	%xmm0, %xmm0, %xmm0
	vmovups	%ymm0, 32(%rsi)
	vmovups	%ymm0, (%rsi)
	movq	$0, 64(%rsi)
	xorl	%r13d, %r13d
	jmp	.LBB50_29
.LBB50_4:
	movq	(%r8), %rdi
	movq	8(%r8), %r12
	movq	8(%rsi), %rcx
	movq	48(%rsi), %r9
	movq	%rcx, %r15
	subq	%r9, %r15
	xorl	%r13d, %r13d
	cmpq	%r15, %r12
	jle	.LBB50_23
	leaq	64(%rsp), %r14
	movq	%r12, %rbp
	.p2align	4
.LBB50_6:
	cmpl	$0, 56(%rsi)
	jne	.LBB50_22
	testq	%r9, %r9
	je	.LBB50_13
	js	.LBB50_32
	cmpq	%rcx, %r9
	jg	.LBB50_32
	testq	%r15, %r15
	jle	.LBB50_12
	addq	(%rsi), %r9
	movq	%r9, %rcx
	movq	%rdi, %rdx
	movq	%r15, %r8
	callq	memmove
	movq	48(%rsi), %r9
.LBB50_12:
	addq	%r15, %r9
	movq	%r9, 48(%rsi)
	movq	%rsi, %rcx
	movq	%rbx, %rdx
	callq	"bufio::writer_flush"
	testq	%r15, %r15
	jns	.LBB50_16
	jmp	.LBB50_19
	.p2align	4
.LBB50_13:
	movq	32(%rsi), %rax
	movq	40(%rsi), %rcx
	movq	%rdi, 64(%rsp)
	movq	%rbp, 72(%rsp)
	testq	%rax, %rax
	je	.LBB50_18
	movq	$0, 56(%rsp)
	movq	%rbx, 48(%rsp)
	leaq	56(%rsp), %rdx
	movq	%rdx, 40(%rsp)
	movq	$0, 32(%rsp)
	movl	$4, %edx
	movq	%r14, %r8
	xorl	%r9d, %r9d
	callq	*%rax
	movq	56(%rsp), %r15
	movl	%eax, 56(%rsi)
	testq	%r15, %r15
	sets	%cl
	testl	%eax, %eax
	sete	%al
	andb	%cl, %al
	cmpb	$1, %al
	je	.LBB50_31
	testq	%r15, %r15
	js	.LBB50_19
.LBB50_16:
	movq	%rbp, %r12
	subq	%r15, %r12
	jl	.LBB50_19
	addq	%r15, %r13
	addq	%r15, %rdi
	movq	8(%rsi), %rcx
	movq	48(%rsi), %r9
	movq	%rcx, %r15
	subq	%r9, %r15
	movq	%r12, %rbp
	cmpq	%r15, %r12
	jg	.LBB50_6
	jmp	.LBB50_23
.LBB50_18:
	movl	$-1, 56(%rsi)
	xorl	%r15d, %r15d
	testq	%r15, %r15
	jns	.LBB50_16
.LBB50_19:
	movq	%rbp, 40(%rsp)
	movq	%rbp, 32(%rsp)
	leaq	".Lggv$bufio::writer_write$2"(%rip), %rcx
	movl	$110, %edx
	movl	$8, %r8d
	movq	%r15, %r9
	callq	"runtime::slice_handle_error"
.LBB50_20:
	xorl	%eax, %eax
	movl	$786, %r13d
	jmp	.LBB50_30
.LBB50_21:
	movl	$-1, %eax
	xorl	%r13d, %r13d
	jmp	.LBB50_30
.LBB50_22:
	movq	%rbp, %r12
.LBB50_23:
	movl	56(%rsi), %eax
	testl	%eax, %eax
	jne	.LBB50_30
	testq	%r9, %r9
	js	.LBB50_33
	movq	%rcx, %rax
	subq	%r9, %rax
	jl	.LBB50_33
	cmpq	%r12, %rax
	cmovlq	%rax, %r12
	testq	%r12, %r12
	jle	.LBB50_28
	addq	(%rsi), %r9
	movq	%r9, %rcx
	movq	%rdi, %rdx
	movq	%r12, %r8
	callq	memmove
	movq	48(%rsi), %r9
.LBB50_28:
	addq	%r12, %r9
	movq	%r9, 48(%rsi)
	addq	%r12, %r13
.LBB50_29:
	xorl	%eax, %eax
.LBB50_30:
	movq	200(%rsp), %rcx
	movq	%r13, (%rcx)
	addq	$88, %rsp
	popq	%rbx
	popq	%rbp
	popq	%rdi
	popq	%rsi
	popq	%r12
	popq	%r13
	popq	%r14
	popq	%r15
	vzeroupper
	retq
.LBB50_31:
	movl	$11, 56(%rsi)
	movl	$11, %eax
	jmp	.LBB50_30
.LBB50_32:
	movq	%rcx, 40(%rsp)
	movq	%rcx, 32(%rsp)
	leaq	".Lggv$bufio::writer_write$1"(%rip), %rcx
	movl	$105, %edx
	movl	$18, %r8d
	callq	"runtime::slice_handle_error"
.LBB50_33:
	movq	%rcx, 40(%rsp)
	movq	%rcx, 32(%rsp)
	leaq	".Lggv$bufio::writer_write$3"(%rip), %rcx
	movl	$115, %edx
	movl	$17, %r8d
	callq	"runtime::slice_handle_error"
	int3
	.section	.rdata,"dr"
	.p2align	2, 0x0
.LJTI50_0:
	.long	.LBB50_2-.LJTI50_0
	.long	.LBB50_21-.LJTI50_0
	.long	.LBB50_21-.LJTI50_0
	.long	.LBB50_4-.LJTI50_0
	.long	.LBB50_21-.LJTI50_0
	.long	.LBB50_21-.LJTI50_0
	.long	.LBB50_21-.LJTI50_0
	.long	.LBB50_3-.LJTI50_0
	.long	.LBB50_20-.LJTI50_0
	.text
	.seh_endproc

	.def	"runtime::print_typeid";
	.scl	3;
	.type	32;
	.endef
	.p2align	4
"runtime::print_typeid":
	testq	%rcx, %rcx
	je	.LBB51_22
	movabsq	$-4678911762136241955, %rax
	movq	%rcx, %rdx
	mulxq	%rax, %rax, %rax
	shrq	$8, %rax
	imulq	$343, %rax, %rax
	movq	%rcx, %r10
	subq	%rax, %r10
	movl	$340, %edx
	leaq	.L__$type_info_data(%rip), %r8
	leaq	".L__$ti-0"(%rip), %r9
	jmp	.LBB51_2
	.p2align	4
.LBB51_21:
	addq	$-4, %rdx
.LBB51_2:
	movq	(%r8,%r10,8), %rax
	testq	%rax, %rax
	je	.LBB51_4
	cmpq	%rcx, 24(%rax)
	je	.LBB51_16
.LBB51_4:
	incq	%r10
	cmpq	$343, %r10
	jb	.LBB51_6
	xorl	%r10d, %r10d
.LBB51_6:
	movq	(%r8,%r10,8), %rax
	testq	%rax, %rax
	je	.LBB51_8
	cmpq	%rcx, 24(%rax)
	je	.LBB51_16
.LBB51_8:
	incq	%r10
	cmpq	$343, %r10
	jb	.LBB51_10
	xorl	%r10d, %r10d
.LBB51_10:
	movq	(%r8,%r10,8), %rax
	testq	%rax, %rax
	je	.LBB51_12
	cmpq	%rcx, 24(%rax)
	je	.LBB51_16
.LBB51_12:
	incq	%r10
	cmpq	$343, %r10
	jb	.LBB51_14
	xorl	%r10d, %r10d
.LBB51_14:
	testq	%rdx, %rdx
	je	.LBB51_15
	movq	(%r8,%r10,8), %rax
	testq	%rax, %rax
	je	.LBB51_19
	cmpq	%rcx, 24(%rax)
	je	.LBB51_16
.LBB51_19:
	incq	%r10
	cmpq	$343, %r10
	jb	.LBB51_21
	xorl	%r10d, %r10d
	jmp	.LBB51_21
.LBB51_22:
	leaq	".Lggv$fmt::fmt_union$8"(%rip), %rcx
	jmp	"runtime::print_string"
.LBB51_15:
	movq	%r9, %rax
.LBB51_16:
	movq	%rax, %rcx
	jmp	"runtime::print_type"

	.def	"runtime::print_type";
	.scl	3;
	.type	32;
	.endef
"runtime::print_type":
.seh_proc "runtime::print_type"
	pushq	%r15
	.seh_pushreg %r15
	pushq	%r14
	.seh_pushreg %r14
	pushq	%r13
	.seh_pushreg %r13
	pushq	%r12
	.seh_pushreg %r12
	pushq	%rsi
	.seh_pushreg %rsi
	pushq	%rdi
	.seh_pushreg %rdi
	pushq	%rbp
	.seh_pushreg %rbp
	pushq	%rbx
	.seh_pushreg %rbx
	subq	$184, %rsp
	.seh_stackalloc 184
	.seh_endprologue
	testq	%rcx, %rcx
	je	.LBB52_41
	movq	%rcx, %rsi
	leaq	.LJTI52_0(%rip), %rbx
	movabsq	$9223372036854775807, %r12
.LBB52_2:
	movq	104(%rsi), %rcx
	decq	%rcx
	cmpq	$26, %rcx
	ja	.LBB52_83
	leaq	32(%rsi), %rax
	movslq	(%rbx,%rcx,4), %rcx
	addq	%rbx, %rcx
	jmpq	*%rcx
.LBB52_4:
	movq	(%rax), %rsi
	movq	%rsi, 48(%rsp)
	testq	%rsi, %rsi
	je	.LBB52_101
	leaq	".Lggv$reflect::write_type_writer$18"(%rip), %rcx
	jmp	.LBB52_35
.LBB52_6:
	movq	(%rax), %rsi
	movq	%rsi, 48(%rsp)
	leaq	".Lggv$reflect::write_type_writer$20"(%rip), %rcx
	jmp	.LBB52_35
.LBB52_7:
	movq	16(%rax), %rcx
	movq	%rcx, 64(%rsp)
	vmovups	(%rax), %xmm0
	vmovaps	%xmm0, 48(%rsp)
	leaq	".Lggv$reflect::write_type_writer$40"(%rip), %rcx
	callq	"runtime::print_string"
	movq	48(%rsp), %rcx
	callq	"runtime::print_type"
	movb	$93, %cl
	callq	"runtime::print_byte"
	movq	56(%rsp), %rsi
	jmp	.LBB52_36
.LBB52_8:
	vmovups	(%rax), %xmm0
	vmovaps	%xmm0, 48(%rsp)
	leaq	".Lggv$reflect::write_type_writer$39"(%rip), %rcx
	jmp	.LBB52_27
.LBB52_9:
	movq	16(%rax), %rcx
	movq	%rcx, 64(%rsp)
	vmovups	(%rax), %xmm0
	vmovaps	%xmm0, 48(%rsp)
	leaq	".Lggv$reflect::write_type_writer$21"(%rip), %rcx
	callq	"runtime::print_string"
	movq	48(%rsp), %rax
	testq	%rax, %rax
	je	.LBB52_32
	cmpq	$18, 104(%rax)
	jne	.LBB52_130
	movq	32(%rax), %r14
	movq	40(%rax), %r15
	movb	$40, %cl
	callq	"runtime::print_byte"
	leaq	".Lggv$fmt::fmt_enum$3"(%rip), %rsi
	testq	%r15, %r15
	jle	.LBB52_33
	negq	%r15
	movq	$-1, %r13
.LBB52_13:
	movq	8(%r14,%r13,8), %rdi
	cmpq	%r12, %r13
	jae	.LBB52_15
	leaq	".Lggv$fmt::fmt_value$11"(%rip), %rcx
	callq	"runtime::print_string"
.LBB52_15:
	movq	%rdi, %rcx
	callq	"runtime::print_type"
	leaq	(%r15,%r13), %rax
	incq	%rax
	incq	%r13
	cmpq	$-1, %rax
	jne	.LBB52_13
	jmp	.LBB52_33
.LBB52_16:
	vmovups	(%rax), %xmm0
	vmovaps	%xmm0, 48(%rsp)
	leaq	".Lggv$reflect::write_type_writer$38"(%rip), %rcx
	jmp	.LBB52_27
.LBB52_17:
	vmovups	(%rax), %ymm0
	vmovups	24(%rax), %ymm1
	vmovups	%ymm1, 72(%rsp)
	vmovups	%ymm0, 48(%rsp)
	cmpb	$0, 96(%rsp)
	je	.LBB52_19
	leaq	".Lggv$reflect::write_type_writer$35"(%rip), %rcx
	vzeroupper
	callq	"runtime::print_string"
.LBB52_19:
	movb	$91, %cl
	vzeroupper
	callq	"runtime::print_byte"
	movq	56(%rsp), %rcx
	callq	"runtime::print_type"
	jmp	.LBB52_31
.LBB52_20:
	vmovups	(%rax), %ymm0
	vmovups	32(%rax), %ymm1
	vmovups	%ymm1, 80(%rsp)
	movq	64(%rax), %rax
	movq	%rax, 112(%rsp)
	vmovups	%ymm0, 48(%rsp)
	movzbl	93(%rsp), %eax
	cmpl	$3, %eax
	je	.LBB52_38
	cmpl	$2, %eax
	je	.LBB52_37
	cmpl	$1, %eax
	jne	.LBB52_108
	leaq	".Lggv$reflect::write_type_writer$41"(%rip), %rcx
	vzeroupper
	callq	"runtime::print_string"
	movslq	96(%rsp), %rcx
	callq	"runtime::print_u64"
	movb	$93, %cl
	callq	"runtime::print_byte"
	jmp	.LBB52_40
.LBB52_24:
	movq	(%rax), %rsi
	movq	%rsi, 48(%rsp)
	leaq	".Lggv$reflect::write_type_writer$19"(%rip), %rcx
	jmp	.LBB52_35
.LBB52_25:
	movq	16(%rax), %rcx
	movq	%rcx, 64(%rsp)
	vmovups	(%rax), %xmm0
	vmovaps	%xmm0, 48(%rsp)
	movb	$91, %cl
	callq	"runtime::print_byte"
	jmp	.LBB52_30
.LBB52_26:
	vmovups	(%rax), %ymm0
	vmovups	16(%rax), %ymm1
	vmovups	%ymm1, 64(%rsp)
	vmovups	%ymm0, 48(%rsp)
	leaq	".Lggv$reflect::write_type_writer$75"(%rip), %rcx
	vzeroupper
	callq	"runtime::print_string"
	movq	72(%rsp), %rcx
	callq	"runtime::print_u64"
	leaq	".Lggv$runtime::print_type$65"(%rip), %rcx
	callq	"runtime::print_string"
	movq	80(%rsp), %rcx
	callq	"runtime::print_u64"
	leaq	".Lggv$reflect::write_type_writer$77"(%rip), %rcx
.LBB52_27:
	callq	"runtime::print_string"
	jmp	.LBB52_28
.LBB52_29:
	movq	16(%rax), %rcx
	movq	%rcx, 64(%rsp)
	vmovups	(%rax), %xmm0
	vmovaps	%xmm0, 48(%rsp)
	leaq	".Lggv$reflect::write_type_writer$73"(%rip), %rcx
	callq	"runtime::print_string"
.LBB52_30:
	movq	64(%rsp), %rcx
	callq	"runtime::print_u64"
.LBB52_31:
	movb	$93, %cl
	callq	"runtime::print_byte"
.LBB52_28:
	movq	48(%rsp), %rsi
	jmp	.LBB52_36
.LBB52_32:
	leaq	".Lggv$reflect::write_type_writer$22"(%rip), %rsi
.LBB52_33:
	movq	%rsi, %rcx
	callq	"runtime::print_string"
	movq	56(%rsp), %rsi
	testq	%rsi, %rsi
	je	.LBB52_83
	leaq	".Lggv$reflect::write_type_writer$27"(%rip), %rcx
.LBB52_35:
	callq	"runtime::print_string"
	jmp	.LBB52_36
.LBB52_37:
	leaq	".Lggv$reflect::write_type_writer$42"(%rip), %rcx
	jmp	.LBB52_39
.LBB52_38:
	leaq	".Lggv$reflect::write_type_writer$43"(%rip), %rcx
.LBB52_39:
	vzeroupper
	callq	"runtime::print_string"
.LBB52_40:
	movq	104(%rsp), %rsi
.LBB52_36:
	testq	%rsi, %rsi
	jne	.LBB52_2
.LBB52_41:
	leaq	".Lggv$runtime::print_type$1"(%rip), %rcx
.LBB52_42:
	addq	$184, %rsp
	popq	%rbx
	popq	%rbp
	popq	%rdi
	popq	%rsi
	popq	%r12
	popq	%r13
	popq	%r14
	popq	%r15
	jmp	"runtime::print_string"
.LBB52_43:
	vmovups	(%rax), %ymm0
	vmovups	%ymm0, 48(%rsp)
	leaq	".Lggv$reflect::write_type_writer$62"(%rip), %rcx
	vzeroupper
	callq	"runtime::print_string"
	movq	48(%rsp), %rcx
	movq	104(%rcx), %rax
	cmpq	$1, %rax
	jne	.LBB52_46
	movq	%rcx, %rdx
.LBB52_45:
	movq	48(%rdx), %rdx
	movq	104(%rdx), %rax
	cmpq	$1, %rax
	je	.LBB52_45
.LBB52_46:
	cmpq	$3, %rax
	je	.LBB52_103
	cmpq	$21, %rax
	jne	.LBB52_104
	callq	"runtime::print_type"
	jmp	.LBB52_105
.LBB52_49:
	movq	32(%rax), %rcx
	movq	%rcx, 80(%rsp)
	vmovups	(%rax), %ymm0
	vmovups	%ymm0, 48(%rsp)
	leaq	".Lggv$reflect::write_type_writer$59"(%rip), %rcx
	vzeroupper
	callq	"runtime::print_string"
	movq	48(%rsp), %rcx
	callq	"runtime::print_type"
	leaq	".Lggv$reflect::write_type_writer$67"(%rip), %rcx
	callq	"runtime::print_string"
	movq	64(%rsp), %rbx
	testq	%rbx, %rbx
	jle	.LBB52_54
	movabsq	$9223372036854775807, %r14
	movq	56(%rsp), %r15
	negq	%rbx
	addq	$8, %r15
	movq	$-1, %r12
	leaq	".Lggv$runtime::print_type$51"(%rip), %rsi
	leaq	152(%rsp), %rdi
.LBB52_51:
	vmovups	-8(%r15), %xmm0
	vmovups	%xmm0, 152(%rsp)
	cmpq	%r14, %r12
	jae	.LBB52_53
	movq	%rsi, %rcx
	callq	"runtime::print_string"
.LBB52_53:
	movq	%rdi, %rcx
	callq	"runtime::print_string"
	leaq	(%rbx,%r12), %rax
	incq	%rax
	incq	%r12
	addq	$16, %r15
	cmpq	$-1, %rax
	jne	.LBB52_51
.LBB52_54:
	leaq	".Lggv$runtime::print_type$52"(%rip), %rcx
	jmp	.LBB52_42
.LBB52_55:
	vmovups	(%rax), %ymm0
	vmovups	24(%rax), %ymm1
	vmovups	%ymm1, 72(%rsp)
	vmovups	%ymm0, 48(%rsp)
	leaq	".Lggv$reflect::write_type_writer$66"(%rip), %rcx
	vzeroupper
	callq	"runtime::print_string"
	movq	48(%rsp), %rcx
	callq	"runtime::print_type"
	leaq	".Lggv$runtime::print_type$58"(%rip), %rcx
	callq	"runtime::print_string"
	movq	96(%rsp), %r15
	testq	%r15, %r15
	js	.LBB52_131
	je	.LBB52_122
	movq	56(%rsp), %r12
	movq	64(%rsp), %rbp
	movq	72(%rsp), %rsi
	negq	%r15
	addq	$8, %r12
	movq	$-1, %r13
	leaq	136(%rsp), %rdi
	leaq	".Lggv$runtime::print_type$61"(%rip), %rbx
	leaq	".Lggv$reflect::write_type_writer$71"(%rip), %r14
.LBB52_58:
	vmovups	-8(%r12), %xmm0
	vmovups	%xmm0, 136(%rsp)
	movabsq	$9223372036854775807, %rax
	cmpq	%rax, %r13
	jae	.LBB52_60
	leaq	".Lggv$runtime::print_type$60"(%rip), %rcx
	callq	"runtime::print_string"
.LBB52_60:
	movq	%rdi, %rcx
	callq	"runtime::print_string"
	movq	%rbx, %rcx
	callq	"runtime::print_string"
	movq	8(%rbp,%r13,8), %rcx
	callq	"runtime::print_type"
	movq	%r14, %rcx
	callq	"runtime::print_string"
	movq	8(%rsi,%r13,8), %rcx
	callq	"runtime::print_u64"
	leaq	(%r15,%r13), %rax
	incq	%rax
	incq	%r13
	addq	$16, %r12
	cmpq	$-1, %rax
	je	.LBB52_122
	jmp	.LBB52_58
.LBB52_61:
	leaq	".Lggv$reflect::write_type_writer$7"(%rip), %rcx
	jmp	.LBB52_42
.LBB52_62:
	leaq	".Lggv$reflect::write_type_writer$16"(%rip), %rcx
	jmp	.LBB52_42
.LBB52_63:
	vmovups	(%rax), %ymm0
	vmovups	%ymm0, 48(%rsp)
	movq	72(%rsp), %r12
	cmpq	$1, %r12
	je	.LBB52_65
	movb	$40, %cl
	vzeroupper
	callq	"runtime::print_byte"
	testq	%r12, %r12
	jle	.LBB52_73
.LBB52_65:
	movabsq	$9223372036854775807, %rbp
	movq	64(%rsp), %rdi
	movq	48(%rsp), %rbx
	movq	56(%rsp), %r13
	addq	$8, %rdi
	xorl	%esi, %esi
.LBB52_66:
	leaq	-1(%rsi), %rax
	movq	-8(%rdi), %rcx
	movq	(%rdi), %r14
	movq	%rcx, 120(%rsp)
	movq	%r14, 128(%rsp)
	cmpq	%rbp, %rax
	jae	.LBB52_68
	leaq	".Lggv$runtime::print_type$23"(%rip), %rcx
	vzeroupper
	callq	"runtime::print_string"
.LBB52_68:
	cmpq	%r13, %rsi
	jae	.LBB52_129
	movq	(%rbx,%rsi,8), %r15
	testq	%r14, %r14
	jle	.LBB52_71
	leaq	120(%rsp), %rcx
	vzeroupper
	callq	"runtime::print_string"
	leaq	".Lggv$reflect::write_type_writer$70"(%rip), %rcx
	callq	"runtime::print_string"
.LBB52_71:
	movq	%r15, %rcx
	vzeroupper
	callq	"runtime::print_type"
	incq	%rsi
	addq	$16, %rdi
	cmpq	%rsi, %r12
	jne	.LBB52_66
	cmpq	$1, %r12
	je	.LBB52_83
.LBB52_73:
	leaq	".Lggv$runtime::print_type$26"(%rip), %rcx
	jmp	.LBB52_42
.LBB52_74:
	leaq	".Lggv$reflect::write_type_writer$10"(%rip), %rcx
	jmp	.LBB52_77
.LBB52_75:
	movb	32(%rsi), %al
	movb	%al, 48(%rsp)
	movb	$102, %cl
	jmp	.LBB52_127
.LBB52_76:
	leaq	".Lggv$reflect::write_type_writer$11"(%rip), %rcx
.LBB52_77:
	callq	"runtime::print_string"
	jmp	.LBB52_128
.LBB52_78:
	vmovups	(%rax), %ymm0
	vmovups	16(%rax), %ymm1
	leaq	48(%rsp), %rcx
	vmovups	%ymm1, 16(%rcx)
	vmovups	%ymm0, (%rcx)
	vzeroupper
	callq	"runtime::print_string"
	jmp	.LBB52_83
.LBB52_79:
	movzwl	(%rax), %esi
	testb	%sil, %sil
	je	.LBB52_81
	movb	$99, %cl
	callq	"runtime::print_byte"
.LBB52_81:
	leaq	".Lggv$reflect::write_type_writer$12"(%rip), %rcx
	callq	"runtime::print_string"
	andl	$65280, %esi
	cmpl	$256, %esi
	jne	.LBB52_83
	leaq	".Lggv$reflect::write_type_writer$13"(%rip), %rcx
	jmp	.LBB52_42
.LBB52_83:
	addq	$184, %rsp
	popq	%rbx
	popq	%rbp
	popq	%rdi
	popq	%rsi
	popq	%r12
	popq	%r13
	popq	%r14
	popq	%r15
	retq
.LBB52_84:
	leaq	".Lggv$reflect::write_type_writer$15"(%rip), %rcx
	jmp	.LBB52_42
.LBB52_85:
	movzwl	32(%rsi), %eax
	movw	%ax, 48(%rsp)
	movq	24(%rsi), %rcx
	movabsq	$-6857881182832595735, %rdx
	cmpq	%rdx, %rcx
	je	.LBB52_125
	movabsq	$-7020262207686496998, %rdx
	cmpq	%rdx, %rcx
	je	.LBB52_124
	movabsq	$-7606200713319706250, %rdx
	cmpq	%rdx, %rcx
	jne	.LBB52_126
	leaq	".Lggv$reflect::write_type_writer$2"(%rip), %rcx
	jmp	.LBB52_42
.LBB52_89:
	movabsq	$3210247593019005365, %rax
	cmpq	%rax, 24(%rsi)
	jne	.LBB52_102
	leaq	".Lggv$reflect::write_type_writer$14"(%rip), %rcx
	jmp	.LBB52_42
.LBB52_91:
	vmovups	(%rax), %ymm0
	vmovups	16(%rax), %ymm1
	vmovups	%ymm1, 64(%rsp)
	vmovups	%ymm0, 48(%rsp)
	leaq	".Lggv$reflect::write_type_writer$53"(%rip), %rcx
	vzeroupper
	callq	"runtime::print_string"
	cmpb	$0, 88(%rsp)
	je	.LBB52_93
	leaq	".Lggv$runtime::print_type$44"(%rip), %rcx
	callq	"runtime::print_string"
	movq	8(%rsi), %rcx
	callq	"runtime::print_u64"
	leaq	".Lggv$runtime::print_type$45"(%rip), %rcx
	callq	"runtime::print_string"
.LBB52_93:
	cmpb	$0, 89(%rsp)
	je	.LBB52_95
	leaq	".Lggv$reflect::write_type_writer$54"(%rip), %rcx
	callq	"runtime::print_string"
.LBB52_95:
	movb	$123, %cl
	callq	"runtime::print_byte"
	movq	56(%rsp), %rbx
	testq	%rbx, %rbx
	jle	.LBB52_100
	movabsq	$9223372036854775807, %r14
	movq	48(%rsp), %r15
	negq	%rbx
	movq	$-1, %r12
	leaq	".Lggv$runtime::print_type$47"(%rip), %rsi
.LBB52_97:
	movq	8(%r15,%r12,8), %rdi
	cmpq	%r14, %r12
	jae	.LBB52_99
	movq	%rsi, %rcx
	callq	"runtime::print_string"
.LBB52_99:
	movq	%rdi, %rcx
	callq	"runtime::print_type"
	leaq	(%rbx,%r12), %rax
	incq	%rax
	incq	%r12
	cmpq	$-1, %rax
	jne	.LBB52_97
.LBB52_100:
	leaq	".Lggv$fmt::fmt_soa_pointer$3"(%rip), %rcx
	jmp	.LBB52_42
.LBB52_101:
	leaq	".Lggv$reflect::write_type_writer$17"(%rip), %rcx
	jmp	.LBB52_42
.LBB52_102:
	movb	$98, %cl
	jmp	.LBB52_127
.LBB52_103:
	movl	64(%rsp), %ecx
	callq	"runtime::print_encoded_rune"
	leaq	".Lggv$runtime::print_type$54"(%rip), %rcx
	callq	"runtime::print_string"
	movl	72(%rsp), %ecx
	callq	"runtime::print_encoded_rune"
	jmp	.LBB52_105
.LBB52_104:
	movq	64(%rsp), %rcx
	callq	"runtime::print_i64"
	leaq	".Lggv$runtime::print_type$55"(%rip), %rcx
	callq	"runtime::print_string"
	movq	72(%rsp), %rcx
	callq	"runtime::print_i64"
.LBB52_105:
	movq	56(%rsp), %rsi
	testq	%rsi, %rsi
	je	.LBB52_107
	leaq	".Lggv$reflect::write_type_writer$65"(%rip), %rcx
	callq	"runtime::print_string"
	movq	%rsi, %rcx
	callq	"runtime::print_type"
.LBB52_107:
	movb	$93, %cl
	jmp	.LBB52_123
.LBB52_108:
	leaq	".Lggv$reflect::write_type_writer$44"(%rip), %rcx
	vzeroupper
	callq	"runtime::print_string"
	movb	92(%rsp), %bl
	testb	$1, %bl
	je	.LBB52_110
	leaq	".Lggv$reflect::write_type_writer$45"(%rip), %rcx
	callq	"runtime::print_string"
.LBB52_110:
	testb	$2, %bl
	je	.LBB52_112
	leaq	".Lggv$reflect::write_type_writer$46"(%rip), %rcx
	callq	"runtime::print_string"
.LBB52_112:
	testb	$4, %bl
	je	.LBB52_114
	leaq	".Lggv$reflect::write_type_writer$47"(%rip), %rcx
	callq	"runtime::print_string"
.LBB52_114:
	testb	$8, %bl
	je	.LBB52_116
	leaq	".Lggv$reflect::write_type_writer$56"(%rip), %rcx
	callq	"runtime::print_string"
	movq	8(%rsi), %rcx
	callq	"runtime::print_u64"
	leaq	".Lggv$reflect::write_type_writer$57"(%rip), %rcx
	callq	"runtime::print_string"
.LBB52_116:
	movb	$123, %cl
	callq	"runtime::print_byte"
	movslq	88(%rsp), %r14
	testq	%r14, %r14
	js	.LBB52_132
	testl	%r14d, %r14d
	je	.LBB52_122
	movq	56(%rsp), %r15
	movabsq	$9223372036854775807, %r12
	movq	48(%rsp), %r13
	negq	%r14
	addq	$8, %r15
	movq	$-1, %rbp
	leaq	".Lggv$runtime::print_type$41"(%rip), %rsi
	leaq	168(%rsp), %rdi
	leaq	".Lggv$runtime::print_type$42"(%rip), %rbx
.LBB52_119:
	vmovups	-8(%r15), %xmm0
	vmovups	%xmm0, 168(%rsp)
	cmpq	%r12, %rbp
	jae	.LBB52_121
	movq	%rsi, %rcx
	callq	"runtime::print_string"
.LBB52_121:
	movq	%rdi, %rcx
	callq	"runtime::print_string"
	movq	%rbx, %rcx
	callq	"runtime::print_string"
	movq	8(%r13,%rbp,8), %rcx
	callq	"runtime::print_type"
	leaq	(%r14,%rbp), %rax
	incq	%rax
	incq	%rbp
	addq	$16, %r15
	cmpq	$-1, %rax
	jne	.LBB52_119
.LBB52_122:
	movb	$125, %cl
.LBB52_123:
	addq	$184, %rsp
	popq	%rbx
	popq	%rbp
	popq	%rdi
	popq	%rsi
	popq	%r12
	popq	%r13
	popq	%r14
	popq	%r15
	jmp	"runtime::print_byte"
.LBB52_124:
	leaq	".Lggv$reflect::write_type_writer$4"(%rip), %rcx
	jmp	.LBB52_42
.LBB52_125:
	leaq	".Lggv$reflect::write_type_writer$3"(%rip), %rcx
	jmp	.LBB52_42
.LBB52_126:
	testb	%al, %al
	movl	$117, %eax
	movl	$105, %ecx
	cmovel	%eax, %ecx
.LBB52_127:
	callq	"runtime::print_byte"
.LBB52_128:
	movq	(%rsi), %rcx
	shlq	$3, %rcx
	addq	$184, %rsp
	popq	%rbx
	popq	%rbp
	popq	%rdi
	popq	%rsi
	popq	%r12
	popq	%r13
	popq	%r14
	popq	%r15
	jmp	"runtime::print_u64"
.LBB52_129:
	movq	%r13, 32(%rsp)
	leaq	".Lggv$runtime::print_type$24"(%rip), %rcx
	movl	$352, %edx
	movl	$20, %r8d
	movq	%rsi, %r9
	vzeroupper
	callq	"runtime::bounds_check_error.handle_error-0"
.LBB52_130:
	addq	$32, %rax
	movq	%rax, 40(%rsp)
	movabsq	$-686033851217794410, %rax
	movq	%rax, 32(%rsp)
	leaq	".Lggv$runtime::print_type$19"(%rip), %rcx
	movabsq	$3269448003691120859, %r9
	movl	$334, %edx
	movl	$9, %r8d
	callq	"runtime::type_assertion_check2.handle_error-1"
.LBB52_131:
	movq	%r15, 32(%rsp)
	leaq	".Lggv$runtime::print_type$59"(%rip), %rcx
	movl	$480, %edx
	jmp	.LBB52_133
.LBB52_132:
	movq	%r14, 32(%rsp)
	leaq	".Lggv$runtime::print_type$40"(%rip), %rcx
	movl	$420, %edx
.LBB52_133:
	movl	$28, %r8d
	xorl	%r9d, %r9d
	callq	"runtime::multi_pointer_slice_handle_error"
	int3
	.section	.rdata,"dr"
	.p2align	2, 0x0
.LJTI52_0:
	.long	.LBB52_78-.LJTI52_0
	.long	.LBB52_85-.LJTI52_0
	.long	.LBB52_61-.LJTI52_0
	.long	.LBB52_75-.LJTI52_0
	.long	.LBB52_74-.LJTI52_0
	.long	.LBB52_76-.LJTI52_0
	.long	.LBB52_79-.LJTI52_0
	.long	.LBB52_89-.LJTI52_0
	.long	.LBB52_84-.LJTI52_0
	.long	.LBB52_62-.LJTI52_0
	.long	.LBB52_4-.LJTI52_0
	.long	.LBB52_24-.LJTI52_0
	.long	.LBB52_9-.LJTI52_0
	.long	.LBB52_25-.LJTI52_0
	.long	.LBB52_17-.LJTI52_0
	.long	.LBB52_16-.LJTI52_0
	.long	.LBB52_8-.LJTI52_0
	.long	.LBB52_63-.LJTI52_0
	.long	.LBB52_20-.LJTI52_0
	.long	.LBB52_91-.LJTI52_0
	.long	.LBB52_49-.LJTI52_0
	.long	.LBB52_7-.LJTI52_0
	.long	.LBB52_43-.LJTI52_0
	.long	.LBB52_29-.LJTI52_0
	.long	.LBB52_26-.LJTI52_0
	.long	.LBB52_6-.LJTI52_0
	.long	.LBB52_55-.LJTI52_0
	.text
	.seh_endproc

	.def	"io::write_byte";
	.scl	3;
	.type	32;
	.endef
	.p2align	4
"io::write_byte":
.seh_proc "io::write_byte"
	pushq	%rsi
	.seh_pushreg %rsi
	subq	$96, %rsp
	.seh_stackalloc 96
	.seh_endprologue
	movq	(%rcx), %rax
	movq	8(%rcx), %rcx
	movb	%dl, 71(%rsp)
	leaq	71(%rsp), %rdx
	movq	%rdx, 80(%rsp)
	movq	$1, 88(%rsp)
	testq	%rax, %rax
	je	.LBB53_1
	movq	%r8, %rsi
	movq	$0, 72(%rsp)
	movq	%r9, 48(%rsp)
	leaq	72(%rsp), %rdx
	movq	%rdx, 40(%rsp)
	movq	$0, 32(%rsp)
	leaq	80(%rsp), %r8
	movl	$4, %edx
	xorl	%r9d, %r9d
	callq	*%rax
	testq	%rsi, %rsi
	je	.LBB53_4
	movq	72(%rsp), %rcx
	addq	%rcx, (%rsi)
	jmp	.LBB53_4
.LBB53_1:
	movl	$-1, %eax
.LBB53_4:
	addq	$96, %rsp
	popq	%rsi
	retq
	.seh_endproc

	.def	"strconv_decimal::shift_left";
	.scl	3;
	.type	32;
	.endef
	.p2align	4
"strconv_decimal::shift_left":
	pushq	%r15
	pushq	%r14
	pushq	%r13
	pushq	%r12
	pushq	%rsi
	pushq	%rdi
	pushq	%rbx
	movq	%rdx, %rax
	leaq	(%rdx,%rdx,2), %r9
	leaq	"strconv_decimal::[decimal.odin]::_shift_left_offsets"(%rip), %r11
	movq	(%r11,%r9,8), %r8
	movq	384(%rcx), %r10
	movq	16(%r11,%r9,8), %rdx
	testq	%rdx, %rdx
	jle	.LBB54_7
	movq	8(%r11,%r9,8), %r9
	movq	%r10, %r11
	sarq	$63, %r11
	andnq	%r10, %r11, %r11
	xorl	%esi, %esi
	.p2align	4
.LBB54_3:
	cmpq	%rsi, %r11
	je	.LBB54_6
	movzbl	(%rcx,%rsi), %ebx
	movzbl	(%r9,%rsi), %edi
	cmpb	%dil, %bl
	jne	.LBB54_5
	incq	%rsi
	cmpq	%rsi, %rdx
	jne	.LBB54_3
	jmp	.LBB54_7
.LBB54_5:
	jae	.LBB54_7
.LBB54_6:
	decq	%r8
.LBB54_7:
	movq	%r10, %rdi
	decq	%rdi
	js	.LBB54_33
	leaq	(%r8,%r10), %r11
	movabsq	$-3689348814741910323, %r9
	testq	%rdi, %rdi
	je	.LBB54_9
	addq	%rcx, %rdi
	leaq	(%r8,%r10), %rdx
	leaq	(%rcx,%rdx), %rbx
	decq	%rbx
	movq	%r10, %r14
	andq	$-2, %r14
	negq	%r14
	xorl	%r15d, %r15d
	xorl	%esi, %esi
	jmp	.LBB54_21
	.p2align	4
.LBB54_28:
	addb	$48, %r12b
	movb	%r12b, -1(%rbx,%r15)
.LBB54_29:
	addq	$-2, %r15
	cmpq	%r15, %r14
	je	.LBB54_10
.LBB54_21:
	movzbl	(%rdi,%r15), %edx
	addq	$-48, %rdx
	shlxq	%rax, %rdx, %rdx
	addq	%rsi, %rdx
	mulxq	%r9, %rsi, %rsi
	shrq	$3, %rsi
	leaq	(%rsi,%rsi), %r12
	leaq	(%r12,%r12,4), %r12
	subq	%r12, %rdx
	leaq	(%r11,%r15), %r12
	decq	%r12
	cmpq	$383, %r12
	jg	.LBB54_23
	addb	$48, %dl
	movb	%dl, (%rbx,%r15)
	jmp	.LBB54_25
	.p2align	4
.LBB54_23:
	testq	%rdx, %rdx
	je	.LBB54_25
	movb	$1, 401(%rcx)
.LBB54_25:
	movzbl	-1(%rdi,%r15), %edx
	addq	$-48, %rdx
	shlxq	%rax, %rdx, %rdx
	addq	%rsi, %rdx
	mulxq	%r9, %rsi, %rsi
	shrq	$3, %rsi
	leaq	(%rsi,%rsi), %r12
	leaq	(%r12,%r12,4), %r13
	movq	%rdx, %r12
	subq	%r13, %r12
	leaq	(%r11,%r15), %r13
	addq	$-2, %r13
	cmpq	$384, %r13
	jl	.LBB54_28
	testq	%r12, %r12
	je	.LBB54_29
	movb	$1, 401(%rcx)
	jmp	.LBB54_29
.LBB54_10:
	leaq	(%r10,%r15), %rdi
	decq	%rdi
	addq	%r15, %r11
	testb	$1, %r10b
	jne	.LBB54_12
	jmp	.LBB54_16
.LBB54_9:
	xorl	%esi, %esi
	testb	$1, %r10b
	je	.LBB54_16
.LBB54_12:
	movzbl	(%rcx,%rdi), %edx
	addq	$-48, %rdx
	shlxq	%rax, %rdx, %rdx
	addq	%rsi, %rdx
	mulxq	%r9, %rsi, %rsi
	shrq	$3, %rsi
	leaq	(%rsi,%rsi), %rax
	leaq	(%rax,%rax,4), %r10
	movq	%rdx, %rax
	subq	%r10, %rax
	decq	%r11
	cmpq	$384, %r11
	jge	.LBB54_13
	addb	$48, %al
	movb	%al, (%rcx,%r11)
	jmp	.LBB54_16
.LBB54_13:
	testq	%rax, %rax
	je	.LBB54_16
	movb	$1, 401(%rcx)
.LBB54_16:
	cmpq	$10, %rdx
	jae	.LBB54_17
.LBB54_33:
	addq	%r8, 392(%rcx)
	addq	384(%rcx), %r8
	xorl	%edx, %edx
	testq	%r8, %r8
	cmovgq	%r8, %rdx
	cmpq	$384, %rdx
	movl	$384, %eax
	cmovlq	%rdx, %rax
	movq	%rax, 384(%rcx)
	testq	%r8, %r8
	jle	.LBB54_37
	decq	%rax
	.p2align	4
.LBB54_35:
	cmpb	$48, (%rcx,%rax)
	jne	.LBB54_38
	movq	%rax, 384(%rcx)
	leaq	-1(%rax), %rdx
	incq	%rax
	cmpq	$1, %rax
	movq	%rdx, %rax
	ja	.LBB54_35
.LBB54_37:
	movq	$0, 392(%rcx)
.LBB54_38:
	popq	%rbx
	popq	%rdi
	popq	%rsi
	popq	%r12
	popq	%r13
	popq	%r14
	popq	%r15
	retq
.LBB54_17:
	leaq	-1(%r8), %rax
	jmp	.LBB54_18
	.p2align	4
.LBB54_19:
	addb	$48, %r10b
	movb	%r10b, (%rcx,%rax)
.LBB54_32:
	decq	%rax
	cmpq	$9, %rdx
	jbe	.LBB54_33
.LBB54_18:
	movq	%rsi, %rdx
	mulxq	%r9, %rsi, %rsi
	shrq	$3, %rsi
	leaq	(%rsi,%rsi), %r10
	leaq	(%r10,%r10,4), %r11
	movq	%rdx, %r10
	subq	%r11, %r10
	cmpq	$383, %rax
	jle	.LBB54_19
	testq	%r10, %r10
	je	.LBB54_32
	movb	$1, 401(%rcx)
	jmp	.LBB54_32

	.def	"io::write_string";
	.scl	3;
	.type	32;
	.endef
	.p2align	4
"io::write_string":
.seh_proc "io::write_string"
	pushq	%rsi
	.seh_pushreg %rsi
	pushq	%rdi
	.seh_pushreg %rdi
	subq	$88, %rsp
	.seh_stackalloc 88
	.seh_endprologue
	movq	%r9, %rsi
	movq	(%rcx), %rax
	movq	8(%rcx), %rcx
	vmovups	(%rdx), %xmm0
	vmovaps	%xmm0, 64(%rsp)
	testq	%rax, %rax
	je	.LBB55_1
	movq	%r8, %rdi
	movq	144(%rsp), %rdx
	movq	$0, 56(%rsp)
	movq	%rdx, 48(%rsp)
	leaq	56(%rsp), %rdx
	movq	%rdx, 40(%rsp)
	movq	$0, 32(%rsp)
	leaq	64(%rsp), %r8
	movl	$4, %edx
	xorl	%r9d, %r9d
	callq	*%rax
	movq	56(%rsp), %rax
	testq	%rdi, %rdi
	je	.LBB55_4
	addq	%rax, (%rdi)
	jmp	.LBB55_4
.LBB55_1:
	xorl	%eax, %eax
.LBB55_4:
	movq	%rax, (%rsi)
	addq	$88, %rsp
	popq	%rdi
	popq	%rsi
	retq
	.seh_endproc

	.def	"io::write_string16";
	.scl	3;
	.type	32;
	.endef
	.p2align	4
"io::write_string16":
.seh_proc "io::write_string16"
	pushq	%r15
	.seh_pushreg %r15
	pushq	%r14
	.seh_pushreg %r14
	pushq	%r13
	.seh_pushreg %r13
	pushq	%r12
	.seh_pushreg %r12
	pushq	%rsi
	.seh_pushreg %rsi
	pushq	%rdi
	.seh_pushreg %rdi
	pushq	%rbp
	.seh_pushreg %rbp
	pushq	%rbx
	.seh_pushreg %rbx
	subq	$88, %rsp
	.seh_stackalloc 88
	.seh_endprologue
	movq	%r9, 48(%rsp)
	vmovups	(%rcx), %xmm0
	vmovaps	%xmm0, 64(%rsp)
	movq	8(%rdx), %r12
	testq	%r12, %r12
	jle	.LBB56_1
	movq	%r8, %rdi
	movq	192(%rsp), %rbp
	movq	(%rdx), %rsi
	xorl	%r13d, %r13d
	leaq	64(%rsp), %rbx
	leaq	56(%rsp), %r15
	xorl	%r14d, %r14d
	.p2align	4
.LBB56_3:
	cmpq	%r12, %r14
	jae	.LBB56_14
	movzwl	(%rsi,%r14,2), %eax
	leal	8192(%rax), %ecx
	movzwl	%cx, %ecx
	cmpl	$63487, %ecx
	ja	.LBB56_6
	movl	%eax, %edx
	jmp	.LBB56_11
	.p2align	4
.LBB56_6:
	movl	$65533, %edx
	cmpl	$56319, %eax
	ja	.LBB56_11
	leaq	1(%r14), %r9
	cmpq	%r12, %r9
	jge	.LBB56_11
	jae	.LBB56_15
	movzwl	2(%rsi,%r14,2), %ecx
	movl	%ecx, %r8d
	andl	$64512, %r8d
	cmpl	$56320, %r8d
	jne	.LBB56_11
	shll	$10, %eax
	leal	(%rax,%rcx), %edx
	addl	$-56613888, %edx
	movq	%r9, %r14
	.p2align	4
.LBB56_11:
	movq	%rbp, 32(%rsp)
	movq	%rbx, %rcx
	movq	%rdi, %r8
	movq	%r15, %r9
	callq	"io::write_rune"
	addq	56(%rsp), %r13
	testl	%eax, %eax
	jne	.LBB56_13
	incq	%r14
	cmpq	%r12, %r14
	jl	.LBB56_3
	jmp	.LBB56_13
.LBB56_1:
	xorl	%r13d, %r13d
.LBB56_13:
	movq	48(%rsp), %rax
	movq	%r13, (%rax)
	addq	$88, %rsp
	popq	%rbx
	popq	%rbp
	popq	%rdi
	popq	%rsi
	popq	%r12
	popq	%r13
	popq	%r14
	popq	%r15
	retq
.LBB56_14:
	movq	%r12, 32(%rsp)
	leaq	".Lggv$io::write_string16$1"(%rip), %rcx
	movl	$336, %edx
	movl	$19, %r8d
	movq	%r14, %r9
	callq	"runtime::bounds_check_error.handle_error-0"
.LBB56_15:
	movq	%r12, 32(%rsp)
	leaq	".Lggv$io::write_string16$2"(%rip), %rcx
	movl	$340, %edx
	movl	$28, %r8d
	callq	"runtime::bounds_check_error.handle_error-0"
	int3
	.seh_endproc

	.def	"io::write_quoted_rune";
	.scl	3;
	.type	32;
	.endef
	.p2align	4
"io::write_quoted_rune":
.seh_proc "io::write_quoted_rune"
	pushq	%r15
	.seh_pushreg %r15
	pushq	%r14
	.seh_pushreg %r14
	pushq	%r12
	.seh_pushreg %r12
	pushq	%rsi
	.seh_pushreg %rsi
	pushq	%rdi
	.seh_pushreg %rdi
	pushq	%rbx
	.seh_pushreg %rbx
	subq	$120, %rsp
	.seh_stackalloc 120
	.seh_endprologue
	vmovups	(%rcx), %xmm0
	vmovaps	%xmm0, 96(%rsp)
	movq	%r8, %rdi
	movq	96(%rsp), %r14
	movq	104(%rsp), %rsi
	movb	$39, 71(%rsp)
	leaq	71(%rsp), %r12
	movq	%r12, 80(%rsp)
	movq	$1, 88(%rsp)
	testq	%r14, %r14
	je	.LBB57_1
	movq	$0, 72(%rsp)
	movq	%rdi, 48(%rsp)
	leaq	72(%rsp), %rax
	movq	%rax, 40(%rsp)
	movq	$0, 32(%rsp)
	leaq	80(%rsp), %r8
	movl	%edx, %ebx
	movl	$4, %edx
	movq	%rsi, %rcx
	xorl	%r9d, %r9d
	callq	*%r14
	movl	%ebx, %edx
	xorl	%r15d, %r15d
	testl	%eax, %eax
	sete	%r15b
	jmp	.LBB57_3
.LBB57_1:
	xorl	%r15d, %r15d
.LBB57_3:
	movq	%rdi, 32(%rsp)
	leaq	96(%rsp), %rcx
	leaq	112(%rsp), %r9
	movb	$39, %r8b
	callq	"io::write_escaped_rune"
	movq	112(%rsp), %rbx
	movb	$39, 71(%rsp)
	movq	%r12, 80(%rsp)
	movq	$1, 88(%rsp)
	testq	%r14, %r14
	je	.LBB57_4
	movq	$0, 72(%rsp)
	movq	%rdi, 48(%rsp)
	leaq	72(%rsp), %rax
	movq	%rax, 40(%rsp)
	movq	$0, 32(%rsp)
	leaq	80(%rsp), %r8
	movl	$4, %edx
	movq	%rsi, %rcx
	xorl	%r9d, %r9d
	callq	*%r14
	xorl	%ecx, %ecx
	testl	%eax, %eax
	sete	%cl
	jmp	.LBB57_6
.LBB57_4:
	xorl	%ecx, %ecx
.LBB57_6:
	addq	%r15, %rbx
	addq	%rcx, %rbx
	movq	%rbx, %rax
	addq	$120, %rsp
	popq	%rbx
	popq	%rdi
	popq	%rsi
	popq	%r12
	popq	%r14
	popq	%r15
	retq
	.seh_endproc

	.def	"io::write_rune";
	.scl	3;
	.type	32;
	.endef
	.p2align	4
"io::write_rune":
.seh_proc "io::write_rune"
	pushq	%rsi
	.seh_pushreg %rsi
	pushq	%rdi
	.seh_pushreg %rdi
	pushq	%rbp
	.seh_pushreg %rbp
	pushq	%rbx
	.seh_pushreg %rbx
	subq	$88, %rsp
	.seh_stackalloc 88
	.seh_endprologue
	movq	%r9, %rdi
	movq	%r8, %rsi
	movq	160(%rsp), %r8
	movq	(%rcx), %rax
	movq	8(%rcx), %rcx
	cmpl	$127, %edx
	jg	.LBB58_4
	movb	%dl, 59(%rsp)
	leaq	59(%rsp), %rdx
	movq	%rdx, 72(%rsp)
	movq	$1, 80(%rsp)
	testq	%rax, %rax
	je	.LBB58_12
	movq	$0, 64(%rsp)
	movq	%r8, 48(%rsp)
	leaq	64(%rsp), %rdx
	movq	%rdx, 40(%rsp)
	movq	$0, 32(%rsp)
	xorl	%ebx, %ebx
	leaq	72(%rsp), %r8
	movl	$4, %edx
	xorl	%r9d, %r9d
	callq	*%rax
	xorl	%ecx, %ecx
	testl	%eax, %eax
	sete	%cl
	movq	%rcx, (%rdi)
	jne	.LBB58_3
	incq	(%rsi)
	jmp	.LBB58_15
.LBB58_4:
	cmpl	$2047, %edx
	ja	.LBB58_6
	movl	%edx, %r10d
	shrl	$6, %r10d
	orb	$-64, %r10b
	movl	$2, %r11d
	xorl	%r9d, %r9d
	xorl	%ebx, %ebx
	jmp	.LBB58_9
.LBB58_6:
	movl	%edx, %r9d
	andl	$2095104, %r9d
	cmpl	$55296, %r9d
	movl	$65533, %r10d
	movl	%edx, %r9d
	cmovel	%r10d, %r9d
	cmpl	$1114112, %edx
	cmovael	%r10d, %r9d
	movl	%r9d, %r10d
	cmpl	$65535, %edx
	ja	.LBB58_8
	shrl	$12, %r10d
	orb	$-32, %r10b
	movl	%r9d, %edx
	shrl	$6, %edx
	andb	$63, %r9b
	orb	$-128, %r9b
	movl	$3, %r11d
	xorl	%ebx, %ebx
	jmp	.LBB58_9
.LBB58_8:
	shrl	$18, %r10d
	orb	$-16, %r10b
	movl	%r9d, %edx
	shrl	$12, %edx
	movl	%r9d, %ebp
	shrl	$6, %ebp
	andb	$63, %bpl
	orb	$-128, %bpl
	andb	$63, %r9b
	movl	%r9d, %ebx
	orb	$-128, %bl
	movl	$4, %r11d
	movl	%ebp, %r9d
.LBB58_9:
	andb	$63, %dl
	orb	$-128, %dl
	movb	%r10b, 60(%rsp)
	movb	%dl, 61(%rsp)
	movb	%r9b, 62(%rsp)
	movb	%bl, 63(%rsp)
	leaq	60(%rsp), %rdx
	movq	%rdx, 72(%rsp)
	movq	%r11, 80(%rsp)
	testq	%rax, %rax
	je	.LBB58_12
	movq	$0, 64(%rsp)
	movq	%r8, 48(%rsp)
	leaq	64(%rsp), %rdx
	movq	%rdx, 40(%rsp)
	movq	$0, 32(%rsp)
	xorl	%ebx, %ebx
	leaq	72(%rsp), %r8
	movl	$4, %edx
	xorl	%r9d, %r9d
	callq	*%rax
	movq	64(%rsp), %rcx
	movq	%rcx, (%rdi)
	testl	%eax, %eax
	je	.LBB58_14
.LBB58_3:
	movl	%eax, %ebx
	jmp	.LBB58_15
.LBB58_12:
	movq	$0, (%rdi)
	movl	$-1, %ebx
	jmp	.LBB58_15
.LBB58_14:
	addq	%rcx, (%rsi)
.LBB58_15:
	movl	%ebx, %eax
	addq	$88, %rsp
	popq	%rbx
	popq	%rbp
	popq	%rdi
	popq	%rsi
	retq
	.seh_endproc

	.def	"strconv_decimal::shift";
	.scl	3;
	.type	32;
	.endef
	.p2align	4
"strconv_decimal::shift":
.seh_proc "strconv_decimal::shift"
	pushq	%rsi
	.seh_pushreg %rsi
	pushq	%rdi
	.seh_pushreg %rdi
	subq	$40, %rsp
	.seh_stackalloc 40
	.seh_endprologue
	cmpq	$0, 384(%rcx)
	je	.LBB59_11
	movq	%rdx, %rdi
	movq	%rcx, %rsi
	testq	%rdx, %rdx
	jle	.LBB59_4
	cmpq	$61, %rdi
	jb	.LBB59_3
	.p2align	4
.LBB59_7:
	movl	$60, %edx
	movq	%rsi, %rcx
	callq	"strconv_decimal::shift_left"
	leaq	-60(%rdi), %rdx
	cmpq	$120, %rdi
	movq	%rdx, %rdi
	ja	.LBB59_7
	jmp	.LBB59_8
.LBB59_4:
	js	.LBB59_5
.LBB59_11:
	addq	$40, %rsp
	popq	%rdi
	popq	%rsi
	retq
.LBB59_3:
	movq	%rdi, %rdx
.LBB59_8:
	movq	%rsi, %rcx
	addq	$40, %rsp
	popq	%rdi
	popq	%rsi
	jmp	"strconv_decimal::shift_left"
.LBB59_5:
	cmpq	$-61, %rdi
	ja	.LBB59_6
	.p2align	4
.LBB59_9:
	movl	$60, %edx
	movq	%rsi, %rcx
	callq	"strconv_decimal::shift_right"
	leaq	60(%rdi), %rdx
	cmpq	$-120, %rdi
	movq	%rdx, %rdi
	jb	.LBB59_9
	jmp	.LBB59_10
.LBB59_6:
	movq	%rdi, %rdx
.LBB59_10:
	negq	%rdx
	movq	%rsi, %rcx
	addq	$40, %rsp
	popq	%rdi
	popq	%rsi
	jmp	"strconv_decimal::shift_right"
	.seh_endproc

	.def	"strconv_decimal::round";
	.scl	3;
	.type	32;
	.endef
	.p2align	4
"strconv_decimal::round":
.seh_proc "strconv_decimal::round"
	subq	$40, %rsp
	.seh_stackalloc 40
	.seh_endprologue
	testq	%rdx, %rdx
	js	.LBB60_19
	movq	%rdx, %r9
	movq	384(%rcx), %rdx
	cmpq	%rdx, %r9
	jge	.LBB60_19
	cmpq	$384, %r9
	jae	.LBB60_20
	movzbl	(%rcx,%r9), %r8d
	cmpb	$53, %r8b
	sete	%r10b
	leaq	1(%r9), %rax
	cmpq	%rdx, %rax
	sete	%dl
	andb	%r10b, %dl
	cmpb	$1, %dl
	jne	.LBB60_8
	cmpb	$0, 401(%rcx)
	jne	.LBB60_13
	testq	%r9, %r9
	je	.LBB60_17
	testb	$1, -1(%r9,%rcx)
	jne	.LBB60_13
	movq	%r9, 384(%rcx)
	jmp	.LBB60_10
.LBB60_8:
	cmpb	$53, %r8b
	jae	.LBB60_13
	movq	%r9, 384(%rcx)
	testq	%r9, %r9
	je	.LBB60_18
.LBB60_10:
	decq	%r9
	.p2align	4
.LBB60_11:
	cmpb	$48, (%rcx,%r9)
	jne	.LBB60_19
	movq	%r9, 384(%rcx)
	leaq	-1(%r9), %rax
	incq	%r9
	cmpq	$1, %r9
	movq	%rax, %r9
	ja	.LBB60_11
	jmp	.LBB60_18
	.p2align	4
.LBB60_13:
	cmpq	$1, %rax
	je	.LBB60_16
	movzbl	-2(%rcx,%rax), %edx
	decq	%rax
	cmpb	$56, %dl
	ja	.LBB60_13
	incb	%dl
	movb	%dl, -1(%rcx,%rax)
	movq	%rax, 384(%rcx)
.LBB60_19:
	addq	$40, %rsp
	retq
.LBB60_16:
	movb	$49, (%rcx)
	movq	$1, 384(%rcx)
	incq	392(%rcx)
	addq	$40, %rsp
	retq
.LBB60_17:
	movq	$0, 384(%rcx)
.LBB60_18:
	movq	$0, 392(%rcx)
	addq	$40, %rsp
	retq
.LBB60_20:
	movq	$384, 32(%rsp)
	leaq	".Lggv$strconv_decimal::can_round_up$1"(%rip), %rcx
	movl	$447, %edx
	movl	$14, %r8d
	callq	"runtime::bounds_check_error.handle_error-0"
	int3
	.seh_endproc

	.def	"os::seek";
	.scl	3;
	.type	32;
	.endef
	.p2align	4
"os::seek":
.seh_proc "os::seek"
	pushq	%r15
	.seh_pushreg %r15
	pushq	%r14
	.seh_pushreg %r14
	pushq	%r12
	.seh_pushreg %r12
	pushq	%rsi
	.seh_pushreg %rsi
	pushq	%rdi
	.seh_pushreg %rdi
	pushq	%rbx
	.seh_pushreg %rbx
	subq	$40, %rsp
	.seh_stackalloc 40
	.seh_endprologue
	movq	%r9, %rsi
	movabsq	$8589934593, %r12
	cmpq	$3, %r8
	jae	.LBB61_1
	movq	%r8, %rbx
	movq	%rdx, %r14
	movabsq	$4294967297, %rdi
	movq	%rdx, %rax
	shrq	$32, %rax
	movl	%eax, 36(%rsp)
	movq	%rcx, %r15
	callq	GetFileType
	cmpl	$3, %eax
	jne	.LBB61_6
	addq	$9, %rdi
	xorl	%ecx, %ecx
	jmp	.LBB61_3
.LBB61_1:
	orq	$6, %r12
.LBB61_2:
	xorl	%ecx, %ecx
	movq	%r12, %rdi
	jmp	.LBB61_3
.LBB61_6:
	leaq	36(%rsp), %r8
	movq	%r15, %rcx
	movl	%r14d, %edx
	movl	%ebx, %r9d
	callq	SetFilePointer
	cmpl	$-1, %eax
	je	.LBB61_7
	movl	36(%rsp), %edx
	shlq	$32, %rdx
	movl	%eax, %ecx
	orq	%rdx, %rcx
	xorl	%edi, %edi
.LBB61_3:
	movq	%rcx, (%rsi)
	movq	%rdi, %rax
	addq	$40, %rsp
	popq	%rbx
	popq	%rdi
	popq	%rsi
	popq	%r12
	popq	%r14
	popq	%r15
	retq
.LBB61_7:
	callq	GetLastError
	movl	%eax, %ecx
	cmpl	$130, %eax
	jg	.LBB61_11
	cmpl	$80, %eax
	ja	.LBB61_25
	leaq	.LJTI61_0(%rip), %rax
	movslq	(%rax,%rcx,4), %rdx
	addq	%rax, %rdx
	jmpq	*%rdx
.LBB61_20:
	incq	%rdi
	xorl	%ecx, %ecx
	jmp	.LBB61_3
.LBB61_11:
	cmpl	$231, %eax
	jle	.LBB61_12
	cmpl	$232, %eax
	je	.LBB61_21
	cmpl	$258, %eax
	je	.LBB61_18
	cmpl	$1460, %eax
	jne	.LBB61_25
.LBB61_18:
	addq	$2, %rdi
	xorl	%ecx, %ecx
	jmp	.LBB61_3
.LBB61_12:
	cmpl	$131, %eax
	je	.LBB61_24
	cmpl	$183, %eax
	jne	.LBB61_25
.LBB61_14:
	xorl	%ecx, %ecx
	jmp	.LBB61_3
.LBB61_19:
	addq	$15, %r12
	jmp	.LBB61_2
.LBB61_23:
	addq	$4, %rdi
	xorl	%ecx, %ecx
	jmp	.LBB61_3
.LBB61_10:
	movq	%rcx, %rdi
	jmp	.LBB61_3
.LBB61_22:
	movabsq	$12884901887, %rdi
	xorl	%ecx, %ecx
	jmp	.LBB61_3
.LBB61_24:
	addq	$7, %r12
	jmp	.LBB61_2
.LBB61_21:
	addq	$16, %r12
	jmp	.LBB61_2
.LBB61_25:
	movabsq	$17179869184, %rdi
	orq	%rcx, %rdi
	xorl	%ecx, %ecx
	jmp	.LBB61_3
	.section	.rdata,"dr"
	.p2align	2, 0x0
.LJTI61_0:
	.long	.LBB61_10-.LJTI61_0
	.long	.LBB61_25-.LJTI61_0
	.long	.LBB61_20-.LJTI61_0
	.long	.LBB61_20-.LJTI61_0
	.long	.LBB61_25-.LJTI61_0
	.long	.LBB61_19-.LJTI61_0
	.long	.LBB61_23-.LJTI61_0
	.long	.LBB61_25-.LJTI61_0
	.long	.LBB61_25-.LJTI61_0
	.long	.LBB61_25-.LJTI61_0
	.long	.LBB61_25-.LJTI61_0
	.long	.LBB61_25-.LJTI61_0
	.long	.LBB61_25-.LJTI61_0
	.long	.LBB61_25-.LJTI61_0
	.long	.LBB61_25-.LJTI61_0
	.long	.LBB61_25-.LJTI61_0
	.long	.LBB61_25-.LJTI61_0
	.long	.LBB61_25-.LJTI61_0
	.long	.LBB61_25-.LJTI61_0
	.long	.LBB61_25-.LJTI61_0
	.long	.LBB61_25-.LJTI61_0
	.long	.LBB61_25-.LJTI61_0
	.long	.LBB61_25-.LJTI61_0
	.long	.LBB61_25-.LJTI61_0
	.long	.LBB61_25-.LJTI61_0
	.long	.LBB61_25-.LJTI61_0
	.long	.LBB61_25-.LJTI61_0
	.long	.LBB61_25-.LJTI61_0
	.long	.LBB61_25-.LJTI61_0
	.long	.LBB61_25-.LJTI61_0
	.long	.LBB61_25-.LJTI61_0
	.long	.LBB61_25-.LJTI61_0
	.long	.LBB61_19-.LJTI61_0
	.long	.LBB61_25-.LJTI61_0
	.long	.LBB61_25-.LJTI61_0
	.long	.LBB61_25-.LJTI61_0
	.long	.LBB61_25-.LJTI61_0
	.long	.LBB61_25-.LJTI61_0
	.long	.LBB61_2-.LJTI61_0
	.long	.LBB61_25-.LJTI61_0
	.long	.LBB61_25-.LJTI61_0
	.long	.LBB61_25-.LJTI61_0
	.long	.LBB61_25-.LJTI61_0
	.long	.LBB61_25-.LJTI61_0
	.long	.LBB61_25-.LJTI61_0
	.long	.LBB61_25-.LJTI61_0
	.long	.LBB61_25-.LJTI61_0
	.long	.LBB61_25-.LJTI61_0
	.long	.LBB61_25-.LJTI61_0
	.long	.LBB61_25-.LJTI61_0
	.long	.LBB61_22-.LJTI61_0
	.long	.LBB61_25-.LJTI61_0
	.long	.LBB61_25-.LJTI61_0
	.long	.LBB61_25-.LJTI61_0
	.long	.LBB61_25-.LJTI61_0
	.long	.LBB61_25-.LJTI61_0
	.long	.LBB61_25-.LJTI61_0
	.long	.LBB61_25-.LJTI61_0
	.long	.LBB61_25-.LJTI61_0
	.long	.LBB61_25-.LJTI61_0
	.long	.LBB61_25-.LJTI61_0
	.long	.LBB61_25-.LJTI61_0
	.long	.LBB61_25-.LJTI61_0
	.long	.LBB61_25-.LJTI61_0
	.long	.LBB61_25-.LJTI61_0
	.long	.LBB61_25-.LJTI61_0
	.long	.LBB61_25-.LJTI61_0
	.long	.LBB61_25-.LJTI61_0
	.long	.LBB61_25-.LJTI61_0
	.long	.LBB61_25-.LJTI61_0
	.long	.LBB61_25-.LJTI61_0
	.long	.LBB61_25-.LJTI61_0
	.long	.LBB61_25-.LJTI61_0
	.long	.LBB61_25-.LJTI61_0
	.long	.LBB61_25-.LJTI61_0
	.long	.LBB61_25-.LJTI61_0
	.long	.LBB61_25-.LJTI61_0
	.long	.LBB61_25-.LJTI61_0
	.long	.LBB61_25-.LJTI61_0
	.long	.LBB61_25-.LJTI61_0
	.long	.LBB61_14-.LJTI61_0
	.text
	.seh_endproc

	.def	"runtime::map_kvh_data_dynamic";
	.scl	3;
	.type	32;
	.endef
	.p2align	4
"runtime::map_kvh_data_dynamic":
	pushq	%r14
	pushq	%rsi
	pushq	%rdi
	pushq	%rbx
	movq	(%rcx), %r11
	movl	%r11d, %esi
	andl	$63, %esi
	movl	$1, %eax
	shlxq	%rsi, %rax, %r10
	andq	$-64, %r11
	movq	(%rdx), %rdi
	movq	16(%rdi), %rbx
	movq	24(%rdi), %rcx
	cmpq	$1, %rcx
	je	.LBB62_4
	cmpq	$2, %rcx
	je	.LBB62_5
	testq	%rcx, %rcx
	je	.LBB62_3
	movq	%rdx, %r14
	movq	%r10, %rax
	orq	%rcx, %rax
	shrq	$32, %rax
	je	.LBB62_10
	movq	%r10, %rax
	xorl	%edx, %edx
	divq	%rcx
	movq	%rdx, %rcx
	jmp	.LBB62_12
.LBB62_5:
	movq	%r10, %rcx
	shrq	%rcx
	imulq	%rbx, %rcx
	addq	%r11, %rcx
	testq	%rsi, %rsi
	jne	.LBB62_6
	movq	(%rdi), %rax
	addq	%rax, %rcx
	jmp	.LBB62_13
.LBB62_4:
	shlxq	%rsi, %rbx, %rcx
	addq	%r11, %rcx
	jmp	.LBB62_13
.LBB62_6:
	xorl	%eax, %eax
	addq	%rax, %rcx
	jmp	.LBB62_13
.LBB62_10:
	movl	%r10d, %eax
	xorl	%edx, %edx
	divl	%ecx
	movl	%edx, %ecx
.LBB62_12:
	imulq	%rbx, %rax
	imulq	(%rdi), %rcx
	addq	%r11, %rcx
	addq	%rax, %rcx
	movq	%r14, %rdx
.LBB62_13:
	movq	8(%rdx), %rbx
	movq	16(%rbx), %rdi
	movq	24(%rbx), %r14
	cmpq	$1, %r14
	je	.LBB62_18
	cmpq	$2, %r14
	je	.LBB62_19
	testq	%r14, %r14
	je	.LBB62_3
	movq	%r10, %rax
	orq	%r14, %rax
	shrq	$32, %rax
	je	.LBB62_17
	movq	%r10, %rax
	xorl	%edx, %edx
	divq	%r14
	jmp	.LBB62_24
.LBB62_19:
	shrq	%r10
	imulq	%r10, %rdi
	addq	%rcx, %rdi
	testq	%rsi, %rsi
	jne	.LBB62_20
	movq	(%rbx), %rax
	addq	%rax, %rdi
	jmp	.LBB62_25
.LBB62_18:
	shlxq	%rsi, %rdi, %rdi
	addq	%rcx, %rdi
	jmp	.LBB62_25
.LBB62_20:
	xorl	%eax, %eax
	addq	%rax, %rdi
	jmp	.LBB62_25
.LBB62_17:
	movl	%r10d, %eax
	xorl	%edx, %edx
	divl	%r14d
.LBB62_24:
	imulq	%rdi, %rax
	imulq	(%rbx), %rdx
	addq	%rcx, %rdx
	addq	%rax, %rdx
	movq	%rdx, %rdi
.LBB62_25:
	movq	80(%rsp), %rax
	movq	72(%rsp), %rdx
	movl	$8, %r10d
	shlxq	%rsi, %r10, %r10
	addq	%rdi, %r10
	movq	%r11, (%r8)
	movq	%rcx, (%r9)
	movq	%rdi, (%rdx)
	movq	%r10, (%rax)
	popq	%rbx
	popq	%rdi
	popq	%rsi
	popq	%r14
	retq
.LBB62_3:
	ud2

	.def	"reflect::write_typeid_writer";
	.scl	3;
	.type	32;
	.endef
	.p2align	4
"reflect::write_typeid_writer":
.seh_proc "reflect::write_typeid_writer"
	pushq	%rsi
	.seh_pushreg %rsi
	pushq	%rdi
	.seh_pushreg %rdi
	subq	$72, %rsp
	.seh_stackalloc 72
	.seh_endprologue
	movq	%r9, %rsi
	movq	128(%rsp), %r9
	vmovups	(%rcx), %xmm0
	vmovaps	%xmm0, 48(%rsp)
	movabsq	$-4678911762136241955, %rax
	mulxq	%rax, %rax, %rax
	shrq	$8, %rax
	imulq	$343, %rax, %rax
	movq	%rdx, %rdi
	subq	%rax, %rdi
	movl	$340, %ecx
	leaq	.L__$type_info_data(%rip), %r10
	leaq	".L__$ti-0"(%rip), %r11
	jmp	.LBB63_1
	.p2align	4
.LBB63_20:
	addq	$-4, %rcx
.LBB63_1:
	movq	(%r10,%rdi,8), %rax
	testq	%rax, %rax
	je	.LBB63_3
	cmpq	%rdx, 24(%rax)
	je	.LBB63_15
.LBB63_3:
	incq	%rdi
	cmpq	$343, %rdi
	jb	.LBB63_5
	xorl	%edi, %edi
.LBB63_5:
	movq	(%r10,%rdi,8), %rax
	testq	%rax, %rax
	je	.LBB63_7
	cmpq	%rdx, 24(%rax)
	je	.LBB63_15
.LBB63_7:
	incq	%rdi
	cmpq	$343, %rdi
	jb	.LBB63_9
	xorl	%edi, %edi
.LBB63_9:
	movq	(%r10,%rdi,8), %rax
	testq	%rax, %rax
	je	.LBB63_11
	cmpq	%rdx, 24(%rax)
	je	.LBB63_15
.LBB63_11:
	incq	%rdi
	cmpq	$343, %rdi
	jb	.LBB63_13
	xorl	%edi, %edi
.LBB63_13:
	testq	%rcx, %rcx
	je	.LBB63_14
	movq	(%r10,%rdi,8), %rax
	testq	%rax, %rax
	je	.LBB63_18
	cmpq	%rdx, 24(%rax)
	je	.LBB63_15
.LBB63_18:
	incq	%rdi
	cmpq	$343, %rdi
	jb	.LBB63_20
	xorl	%edi, %edi
	jmp	.LBB63_20
.LBB63_14:
	movq	%r11, %rax
.LBB63_15:
	movq	$0, 40(%rsp)
	movq	%r9, 32(%rsp)
	leaq	48(%rsp), %rcx
	leaq	40(%rsp), %r9
	movq	%rax, %rdx
	callq	"reflect::write_type_writer"
	movq	40(%rsp), %rax
	movq	%rax, (%rsi)
	addq	$72, %rsp
	popq	%rdi
	popq	%rsi
	retq
	.seh_endproc

	.def	"runtime::string_eq";
	.scl	3;
	.type	32;
	.endef
	.p2align	4
"runtime::string_eq":
	movq	8(%rcx), %r8
	cmpq	8(%rdx), %r8
	jne	.LBB64_1
	movq	(%rdx), %rdx
	movq	(%rcx), %rcx
	testq	%r8, %r8
	sete	%al
	cmpq	%rdx, %rcx
	sete	%r9b
	orb	%al, %r9b
	movb	$1, %al
	jne	.LBB64_2
	cmpq	$8, %r8
	jb	.LBB64_5
	movq	%r8, %r10
	xorl	%r9d, %r9d
	andq	$-32, %r10
	je	.LBB64_10
	.p2align	4
.LBB64_8:
	vmovdqu	(%rcx,%r9), %ymm0
	vpxor	(%rdx,%r9), %ymm0, %ymm0
	vptest	%ymm0, %ymm0
	jne	.LBB64_1
	addq	$32, %r9
	cmpq	%r10, %r9
	jb	.LBB64_8
.LBB64_10:
	movq	%r8, %r10
	subq	%r9, %r10
	movq	%r10, %r11
	andq	$-16, %r11
	cmpq	%r11, %r9
	jae	.LBB64_14
	.p2align	4
.LBB64_11:
	vmovdqu	(%rcx,%r9), %xmm0
	vpxor	(%rdx,%r9), %xmm0, %xmm0
	vptest	%xmm0, %xmm0
	jne	.LBB64_1
	addq	$16, %r9
	cmpq	%r11, %r9
	jb	.LBB64_11
	movq	%r8, %r10
	subq	%r9, %r10
.LBB64_14:
	andq	$-8, %r10
	cmpq	%r10, %r9
	jae	.LBB64_6
	.p2align	4
.LBB64_16:
	movq	(%rcx,%r9), %r11
	cmpq	(%rdx,%r9), %r11
	jne	.LBB64_1
	addq	$8, %r9
	cmpq	%r10, %r9
	jb	.LBB64_16
	jmp	.LBB64_6
.LBB64_5:
	xorl	%r9d, %r9d
.LBB64_6:
	cmpq	%r8, %r9
	jae	.LBB64_2
	.p2align	4
.LBB64_19:
	movzbl	(%rcx,%r9), %r10d
	cmpb	(%rdx,%r9), %r10b
	jne	.LBB64_1
	incq	%r9
	cmpq	%r9, %r8
	jne	.LBB64_19
.LBB64_2:
	vzeroupper
	retq
.LBB64_1:
	xorl	%eax, %eax
	vzeroupper
	retq

	.def	"reflect::write_type_writer";
	.scl	3;
	.type	32;
	.endef
	.p2align	4
"reflect::write_type_writer":
.seh_proc "reflect::write_type_writer"
	pushq	%r15
	.seh_pushreg %r15
	pushq	%r14
	.seh_pushreg %r14
	pushq	%r13
	.seh_pushreg %r13
	pushq	%r12
	.seh_pushreg %r12
	pushq	%rsi
	.seh_pushreg %rsi
	pushq	%rdi
	.seh_pushreg %rdi
	pushq	%rbp
	.seh_pushreg %rbp
	pushq	%rbx
	.seh_pushreg %rbx
	subq	$504, %rsp
	.seh_stackalloc 504
	.seh_endprologue
	movq	%r9, %rbp
	movq	%r8, %r13
	movq	608(%rsp), %rbx
	vmovups	(%rcx), %xmm0
	vmovaps	%xmm0, 80(%rsp)
	movq	$0, 64(%rsp)
	testq	%rdx, %rdx
	je	.LBB65_4
	movq	104(%rdx), %rax
	decq	%rax
	cmpq	$26, %rax
	ja	.LBB65_171
	leaq	.LJTI65_0(%rip), %rcx
	movslq	(%rcx,%rax,4), %rax
	addq	%rcx, %rax
	jmpq	*%rax
.LBB65_3:
	movq	80(%rsp), %rax
	movq	88(%rsp), %rcx
	vmovups	32(%rdx), %xmm0
	jmp	.LBB65_168
.LBB65_4:
	movq	80(%rsp), %rax
	movq	88(%rsp), %rcx
	vmovups	".Lggv$fmt::fmt_union$8"(%rip), %xmm0
	vmovaps	%xmm0, 96(%rsp)
	testq	%rax, %rax
	je	.LBB65_199
	movq	$0, 72(%rsp)
	movq	%rbx, 48(%rsp)
	leaq	72(%rsp), %rdx
	movq	%rdx, 40(%rsp)
	movq	$0, 32(%rsp)
	leaq	96(%rsp), %r8
	movl	$4, %edx
	xorl	%r9d, %r9d
	callq	*%rax
	movq	64(%rsp), %rdx
	addq	72(%rsp), %rdx
	jmp	.LBB65_200
.LBB65_6:
	movq	32(%rdx), %r14
	movq	80(%rsp), %rax
	movq	88(%rsp), %rcx
	vmovups	".Lggv$reflect::write_type_writer$39"(%rip), %xmm0
	vmovaps	%xmm0, 96(%rsp)
	testq	%rax, %rax
	je	.LBB65_199
	movq	$0, 72(%rsp)
	movq	%rbx, 48(%rsp)
	leaq	72(%rsp), %rdx
	movq	%rdx, 40(%rsp)
	movq	$0, 32(%rsp)
	leaq	96(%rsp), %r8
	movl	$4, %edx
	xorl	%r9d, %r9d
	callq	*%rax
	movq	64(%rsp), %rdx
	addq	72(%rsp), %rdx
	movq	%rdx, 64(%rsp)
	testl	%eax, %eax
	jne	.LBB65_200
	movq	%rbx, 32(%rsp)
	leaq	80(%rsp), %rcx
	leaq	64(%rsp), %r8
	leaq	392(%rsp), %r9
	jmp	.LBB65_9
.LBB65_10:
	movq	32(%rdx), %r14
	movq	40(%rdx), %r15
	cmpb	$0, 80(%rdx)
	je	.LBB65_151
	movq	80(%rsp), %rax
	movq	88(%rsp), %rcx
	vmovups	".Lggv$reflect::write_type_writer$35"(%rip), %xmm0
	vmovaps	%xmm0, 96(%rsp)
	testq	%rax, %rax
	je	.LBB65_199
	movq	$0, 72(%rsp)
	movq	%rbx, 48(%rsp)
	leaq	72(%rsp), %rdx
	movq	%rdx, 40(%rsp)
	movq	$0, 32(%rsp)
	leaq	96(%rsp), %r8
	movl	$4, %edx
	xorl	%r9d, %r9d
	callq	*%rax
	movq	64(%rsp), %rdx
	addq	72(%rsp), %rdx
	movq	%rdx, 64(%rsp)
	testl	%eax, %eax
	jne	.LBB65_200
	jmp	.LBB65_152
.LBB65_13:
	movq	32(%rdx), %r14
	movq	80(%rsp), %rax
	movq	88(%rsp), %rcx
	vmovups	".Lggv$reflect::write_type_writer$19"(%rip), %xmm0
	vmovaps	%xmm0, 96(%rsp)
	testq	%rax, %rax
	je	.LBB65_199
	movq	$0, 72(%rsp)
	movq	%rbx, 48(%rsp)
	leaq	72(%rsp), %rdx
	movq	%rdx, 40(%rsp)
	movq	$0, 32(%rsp)
	leaq	96(%rsp), %r8
	movl	$4, %edx
	xorl	%r9d, %r9d
	callq	*%rax
	movq	64(%rsp), %rdx
	addq	72(%rsp), %rdx
	movq	%rdx, 64(%rsp)
	testl	%eax, %eax
	jne	.LBB65_200
	movq	%rbx, 32(%rsp)
	leaq	80(%rsp), %rcx
	leaq	64(%rsp), %r8
	leaq	448(%rsp), %r9
	jmp	.LBB65_9
.LBB65_16:
	movq	80(%rsp), %rax
	movq	88(%rsp), %rcx
	vmovups	".Lggv$reflect::write_type_writer$10"(%rip), %xmm0
	vmovaps	%xmm0, 96(%rsp)
	testq	%rax, %rax
	je	.LBB65_199
	movq	%rdx, %rsi
	movq	$0, 72(%rsp)
	movq	%rbx, 48(%rsp)
	leaq	72(%rsp), %rdx
	movq	%rdx, 40(%rsp)
	movq	$0, 32(%rsp)
	leaq	96(%rsp), %r8
	movl	$4, %edx
	xorl	%r9d, %r9d
	callq	*%rax
	movq	64(%rsp), %rdx
	addq	72(%rsp), %rdx
	movq	%rdx, 64(%rsp)
	testl	%eax, %eax
	jne	.LBB65_200
	movq	(%rsi), %rdx
	shlq	$3, %rdx
	movq	%rbx, 32(%rsp)
	leaq	80(%rsp), %rcx
	leaq	64(%rsp), %r8
	leaq	480(%rsp), %r9
	jmp	.LBB65_19
.LBB65_20:
	movq	32(%rdx), %rdi
	movq	40(%rdx), %r14
	movq	80(%rsp), %rax
	movq	88(%rsp), %rcx
	vmovups	".Lggv$reflect::write_type_writer$21"(%rip), %xmm0
	vmovaps	%xmm0, 96(%rsp)
	testq	%rax, %rax
	je	.LBB65_199
	movq	$0, 72(%rsp)
	movq	%rbx, 48(%rsp)
	leaq	72(%rsp), %r12
	movq	%r12, 40(%rsp)
	movq	$0, 32(%rsp)
	leaq	96(%rsp), %r8
	movl	$4, %edx
	xorl	%r9d, %r9d
	callq	*%rax
	movq	64(%rsp), %rdx
	addq	72(%rsp), %rdx
	movq	%rdx, 64(%rsp)
	testl	%eax, %eax
	jne	.LBB65_200
	testq	%rdi, %rdi
	je	.LBB65_241
	cmpq	$18, 104(%rdi)
	jne	.LBB65_302
	movq	32(%rdi), %rsi
	movq	40(%rdi), %rdi
	movq	80(%rsp), %rax
	movq	88(%rsp), %rcx
	vmovups	".Lggv$reflect::write_type_writer$28"(%rip), %xmm0
	vmovaps	%xmm0, 96(%rsp)
	testq	%rax, %rax
	je	.LBB65_300
	movq	$0, 72(%rsp)
	movq	%rbx, 48(%rsp)
	movq	%r12, 40(%rsp)
	movq	$0, 32(%rsp)
	leaq	96(%rsp), %r8
	movl	$4, %edx
	xorl	%r9d, %r9d
	callq	*%rax
	movq	64(%rsp), %rdx
	addq	72(%rsp), %rdx
	movq	%rdx, 64(%rsp)
	testl	%eax, %eax
	jne	.LBB65_200
	movq	%rbp, 128(%rsp)
	movq	%r13, 120(%rsp)
	movq	%rdi, %rax
	sarq	$63, %rax
	andnq	%rdi, %rax, %rbx
	negq	%rbx
	movq	$-1, %rdi
	leaq	64(%rsp), %r13
	leaq	248(%rsp), %rbp
	jmp	.LBB65_162
.LBB65_27:
	movq	80(%rsp), %rax
	movq	88(%rsp), %rcx
	vmovups	".Lggv$reflect::write_type_writer$16"(%rip), %xmm0
	jmp	.LBB65_168
.LBB65_28:
	movq	32(%rdx), %r14
	movq	80(%rsp), %rax
	movq	88(%rsp), %rcx
	vmovups	".Lggv$reflect::write_type_writer$20"(%rip), %xmm0
	vmovaps	%xmm0, 96(%rsp)
	testq	%rax, %rax
	je	.LBB65_199
	movq	$0, 72(%rsp)
	movq	%rbx, 48(%rsp)
	leaq	72(%rsp), %rdx
	movq	%rdx, 40(%rsp)
	movq	$0, 32(%rsp)
	leaq	96(%rsp), %r8
	movl	$4, %edx
	xorl	%r9d, %r9d
	callq	*%rax
	movq	64(%rsp), %rdx
	addq	72(%rsp), %rdx
	movq	%rdx, 64(%rsp)
	testl	%eax, %eax
	jne	.LBB65_200
	movq	%rbx, 32(%rsp)
	leaq	80(%rsp), %rcx
	leaq	64(%rsp), %r8
	leaq	440(%rsp), %r9
	jmp	.LBB65_9
.LBB65_31:
	movq	32(%rdx), %r14
	movq	56(%rdx), %r12
	movq	64(%rdx), %r15
	cmpb	$1, 72(%rdx)
	jne	.LBB65_136
	movq	80(%rsp), %rax
	movq	88(%rsp), %rcx
	vmovups	".Lggv$reflect::write_type_writer$74"(%rip), %xmm0
	vmovaps	%xmm0, 96(%rsp)
	testq	%rax, %rax
	je	.LBB65_199
	movq	$0, 72(%rsp)
	movq	%rbx, 48(%rsp)
	leaq	72(%rsp), %rdx
	movq	%rdx, 40(%rsp)
	movq	$0, 32(%rsp)
	leaq	96(%rsp), %r8
	movl	$4, %edx
	xorl	%r9d, %r9d
	callq	*%rax
	movq	64(%rsp), %rdx
	addq	72(%rsp), %rdx
	movq	%rdx, 64(%rsp)
	testl	%eax, %eax
	jne	.LBB65_200
	jmp	.LBB65_137
.LBB65_34:
	movq	80(%rsp), %rax
	movq	88(%rsp), %rcx
	vmovups	".Lggv$reflect::write_type_writer$7"(%rip), %xmm0
	jmp	.LBB65_168
.LBB65_35:
	movq	32(%rdx), %r14
	movq	80(%rsp), %rax
	movq	88(%rsp), %rcx
	vmovups	".Lggv$reflect::write_type_writer$38"(%rip), %xmm0
	vmovaps	%xmm0, 96(%rsp)
	testq	%rax, %rax
	je	.LBB65_199
	movq	$0, 72(%rsp)
	movq	%rbx, 48(%rsp)
	leaq	72(%rsp), %rdx
	movq	%rdx, 40(%rsp)
	movq	$0, 32(%rsp)
	leaq	96(%rsp), %r8
	movl	$4, %edx
	xorl	%r9d, %r9d
	callq	*%rax
	movq	64(%rsp), %rdx
	addq	72(%rsp), %rdx
	movq	%rdx, 64(%rsp)
	testl	%eax, %eax
	jne	.LBB65_200
	movq	%rbx, 32(%rsp)
	leaq	80(%rsp), %rcx
	leaq	64(%rsp), %r8
	leaq	400(%rsp), %r9
	jmp	.LBB65_9
.LBB65_38:
	movzbl	32(%rdx), %edi
	movq	80(%rsp), %rax
	movq	88(%rsp), %rcx
	movb	$102, 143(%rsp)
	leaq	143(%rsp), %r8
	movq	%r8, 96(%rsp)
	movq	$1, 104(%rsp)
	testq	%rax, %rax
	je	.LBB65_199
	movq	%rbx, %r14
	movq	%rdx, %rbx
	movq	$0, 72(%rsp)
	movq	%r14, 48(%rsp)
	leaq	72(%rsp), %rsi
	movq	%rsi, 40(%rsp)
	movq	$0, 32(%rsp)
	leaq	96(%rsp), %r8
	movl	$4, %edx
	xorl	%r9d, %r9d
	callq	*%rax
	movq	64(%rsp), %rdx
	addq	72(%rsp), %rdx
	movq	%rdx, 64(%rsp)
	testl	%eax, %eax
	jne	.LBB65_200
	movq	(%rbx), %rdx
	shlq	$3, %rdx
	movq	%r14, 32(%rsp)
	leaq	80(%rsp), %rcx
	leaq	64(%rsp), %r8
	leaq	488(%rsp), %r9
	callq	"io::write_i64"
	testl	%eax, %eax
	jne	.LBB65_173
	cmpl	$2, %edi
	je	.LBB65_259
	cmpl	$1, %edi
	jne	.LBB65_171
	movq	80(%rsp), %rax
	movq	88(%rsp), %rcx
	vmovups	".Lggv$reflect::write_type_writer$8"(%rip), %xmm0
	jmp	.LBB65_260
.LBB65_44:
	movabsq	$3210247593019005365, %rax
	cmpq	%rax, 24(%rdx)
	jne	.LBB65_146
	movq	80(%rsp), %rax
	movq	88(%rsp), %rcx
	vmovups	".Lggv$reflect::write_type_writer$14"(%rip), %xmm0
	jmp	.LBB65_168
.LBB65_46:
	movq	24(%rdx), %rax
	movabsq	$-6857881182832595735, %rcx
	cmpq	%rcx, %rax
	je	.LBB65_167
	movabsq	$-7020262207686496998, %rcx
	cmpq	%rcx, %rax
	je	.LBB65_166
	movabsq	$-7606200713319706250, %rcx
	cmpq	%rcx, %rax
	jne	.LBB65_172
	movq	80(%rsp), %rax
	movq	88(%rsp), %rcx
	vmovups	".Lggv$reflect::write_type_writer$2"(%rip), %xmm0
	jmp	.LBB65_168
.LBB65_50:
	movq	%rbp, 128(%rsp)
	movq	32(%rdx), %rax
	movq	%rax, 144(%rsp)
	movq	40(%rdx), %rsi
	movq	48(%rdx), %rbp
	movq	56(%rdx), %rdi
	cmpq	$1, %rdi
	jne	.LBB65_148
.LBB65_51:
	movq	%r13, 120(%rsp)
	movq	%rdi, %rax
	sarq	$63, %rax
	movq	%rdi, 160(%rsp)
	andnq	%rdi, %rax, %r13
	movq	%rsi, 152(%rsp)
	negq	%rsi
	negq	%r13
	addq	$8, %rbp
	movq	$-1, %rdi
	jmp	.LBB65_53
.LBB65_52:
	movq	$0, 240(%rsp)
	movq	%rbx, 32(%rsp)
	leaq	80(%rsp), %rcx
	movq	%r14, %rdx
	leaq	64(%rsp), %r8
	leaq	240(%rsp), %r9
	callq	"reflect::write_type_writer"
	addq	$16, %rbp
	incq	%rdi
	testl	%eax, %eax
	jne	.LBB65_269
.LBB65_53:
	leaq	(%rdi,%r13), %rax
	cmpq	$-1, %rax
	je	.LBB65_233
	movq	-8(%rbp), %r12
	movq	(%rbp), %r15
	movabsq	$9223372036854775807, %rax
	cmpq	%rax, %rdi
	jae	.LBB65_57
	movq	80(%rsp), %rax
	movq	88(%rsp), %rcx
	vmovups	".Lggv$fmt::fmt_value$11"(%rip), %xmm0
	vmovaps	%xmm0, 96(%rsp)
	testq	%rax, %rax
	je	.LBB65_268
	movq	$0, 72(%rsp)
	movq	%rbx, 48(%rsp)
	leaq	72(%rsp), %rdx
	movq	%rdx, 40(%rsp)
	movq	$0, 32(%rsp)
	movl	$4, %edx
	leaq	96(%rsp), %r8
	xorl	%r9d, %r9d
	callq	*%rax
	movq	64(%rsp), %rdx
	addq	72(%rsp), %rdx
	movq	%rdx, 64(%rsp)
	testl	%eax, %eax
	jne	.LBB65_270
.LBB65_57:
	leaq	(%rsi,%rdi), %rax
	cmpq	$-1, %rax
	je	.LBB65_301
	movq	144(%rsp), %rax
	movq	8(%rax,%rdi,8), %r14
	testq	%r15, %r15
	jle	.LBB65_52
	movq	80(%rsp), %rax
	movq	88(%rsp), %rcx
	movq	%r12, 96(%rsp)
	movq	%r15, 104(%rsp)
	testq	%rax, %rax
	je	.LBB65_268
	movq	$0, 72(%rsp)
	movq	%rbx, %r15
	movq	%rbx, 48(%rsp)
	leaq	72(%rsp), %rdx
	movq	%rdx, 40(%rsp)
	movq	$0, 32(%rsp)
	movl	$4, %edx
	leaq	96(%rsp), %r8
	xorl	%r9d, %r9d
	callq	*%rax
	movq	64(%rsp), %rdx
	addq	72(%rsp), %rdx
	movq	%rdx, 64(%rsp)
	testl	%eax, %eax
	jne	.LBB65_270
	movq	80(%rsp), %rax
	movq	88(%rsp), %rcx
	vmovups	".Lggv$reflect::write_type_writer$70"(%rip), %xmm0
	vmovaps	%xmm0, 96(%rsp)
	testq	%rax, %rax
	je	.LBB65_254
	movq	$0, 72(%rsp)
	movq	%r15, 48(%rsp)
	leaq	72(%rsp), %rdx
	movq	%rdx, 40(%rsp)
	movq	$0, 32(%rsp)
	movl	$4, %edx
	leaq	96(%rsp), %r8
	xorl	%r9d, %r9d
	callq	*%rax
	movq	64(%rsp), %rdx
	addq	72(%rsp), %rdx
	movq	%rdx, 64(%rsp)
	testl	%eax, %eax
	je	.LBB65_52
	jmp	.LBB65_270
.LBB65_63:
	movq	32(%rdx), %r14
	movq	40(%rdx), %r15
	movq	48(%rdx), %rdi
	movq	80(%rsp), %rax
	movq	88(%rsp), %rcx
	vmovups	".Lggv$reflect::write_type_writer$59"(%rip), %xmm0
	vmovaps	%xmm0, 96(%rsp)
	testq	%rax, %rax
	je	.LBB65_199
	movq	$0, 72(%rsp)
	movq	%rbx, 48(%rsp)
	leaq	72(%rsp), %r12
	movq	%r12, 40(%rsp)
	movq	$0, 32(%rsp)
	leaq	96(%rsp), %r8
	movl	$4, %edx
	xorl	%r9d, %r9d
	callq	*%rax
	movq	64(%rsp), %rdx
	addq	72(%rsp), %rdx
	movq	%rdx, 64(%rsp)
	testl	%eax, %eax
	jne	.LBB65_200
	movq	$0, 200(%rsp)
	movq	%rbx, 32(%rsp)
	leaq	80(%rsp), %rcx
	leaq	64(%rsp), %r8
	leaq	200(%rsp), %r9
	movq	%r14, %rdx
	callq	"reflect::write_type_writer"
	testl	%eax, %eax
	jne	.LBB65_173
	movq	80(%rsp), %rax
	movq	88(%rsp), %rcx
	vmovups	".Lggv$reflect::write_type_writer$67"(%rip), %xmm0
	vmovaps	%xmm0, 96(%rsp)
	testq	%rax, %rax
	je	.LBB65_236
	movq	$0, 72(%rsp)
	movq	%rbx, 48(%rsp)
	movq	%r12, 40(%rsp)
	movq	$0, 32(%rsp)
	leaq	96(%rsp), %r8
	movl	$4, %edx
	xorl	%r9d, %r9d
	callq	*%rax
	movq	64(%rsp), %rdx
	addq	72(%rsp), %rdx
	movq	%rdx, 64(%rsp)
	testl	%eax, %eax
	jne	.LBB65_200
	movq	%rdi, %rax
	sarq	$63, %rax
	andnq	%rdi, %rax, %rdi
	negq	%rdi
	addq	$8, %r15
	movq	$-1, %rbx
.LBB65_69:
	leaq	(%rdi,%rbx), %rax
	cmpq	$-1, %rax
	je	.LBB65_279
	movq	%rbp, %r14
	movq	%r13, %rsi
	movq	-8(%r15), %r13
	movq	(%r15), %rbp
	movabsq	$9223372036854775807, %rax
	cmpq	%rax, %rbx
	jae	.LBB65_73
	movq	80(%rsp), %rax
	movq	88(%rsp), %rcx
	vmovups	".Lggv$fmt::fmt_value$11"(%rip), %xmm0
	vmovaps	%xmm0, 96(%rsp)
	testq	%rax, %rax
	je	.LBB65_291
	movq	$0, 72(%rsp)
	movq	608(%rsp), %rdx
	movq	%rdx, 48(%rsp)
	movq	%r12, 40(%rsp)
	movq	$0, 32(%rsp)
	movl	$4, %edx
	leaq	96(%rsp), %r8
	xorl	%r9d, %r9d
	callq	*%rax
	movq	64(%rsp), %rdx
	addq	72(%rsp), %rdx
	movq	%rdx, 64(%rsp)
	testl	%eax, %eax
	jne	.LBB65_292
.LBB65_73:
	movq	80(%rsp), %rax
	movq	88(%rsp), %rcx
	movq	%r13, 96(%rsp)
	movq	%rbp, 104(%rsp)
	testq	%rax, %rax
	je	.LBB65_291
	movq	$0, 72(%rsp)
	movq	608(%rsp), %rdx
	movq	%rdx, 48(%rsp)
	movq	%r12, 40(%rsp)
	movq	$0, 32(%rsp)
	movl	$4, %edx
	leaq	96(%rsp), %r8
	xorl	%r9d, %r9d
	callq	*%rax
	movq	64(%rsp), %rdx
	addq	72(%rsp), %rdx
	movq	%rdx, 64(%rsp)
	addq	$16, %r15
	incq	%rbx
	testl	%eax, %eax
	movq	%rsi, %r13
	movq	%r14, %rbp
	je	.LBB65_69
	jmp	.LBB65_200
.LBB65_75:
	movq	80(%rsp), %rax
	movq	88(%rsp), %rcx
	vmovups	".Lggv$reflect::write_type_writer$11"(%rip), %xmm0
	vmovaps	%xmm0, 96(%rsp)
	testq	%rax, %rax
	je	.LBB65_199
	movq	%rdx, %rsi
	movq	$0, 72(%rsp)
	movq	%rbx, 48(%rsp)
	leaq	72(%rsp), %rdx
	movq	%rdx, 40(%rsp)
	movq	$0, 32(%rsp)
	leaq	96(%rsp), %r8
	movl	$4, %edx
	xorl	%r9d, %r9d
	callq	*%rax
	movq	64(%rsp), %rdx
	addq	72(%rsp), %rdx
	movq	%rdx, 64(%rsp)
	testl	%eax, %eax
	jne	.LBB65_200
	movq	(%rsi), %rdx
	shlq	$3, %rdx
	movq	%rbx, 32(%rsp)
	leaq	80(%rsp), %rcx
	leaq	64(%rsp), %r8
	leaq	472(%rsp), %r9
	jmp	.LBB65_19
.LBB65_78:
	movq	32(%rdx), %r15
	movq	40(%rdx), %r14
	movq	80(%rsp), %rax
	movq	88(%rsp), %rcx
	vmovups	".Lggv$reflect::write_type_writer$40"(%rip), %xmm0
	vmovaps	%xmm0, 96(%rsp)
	testq	%rax, %rax
	je	.LBB65_199
	movq	$0, 72(%rsp)
	movq	%rbx, 48(%rsp)
	leaq	72(%rsp), %rdx
	movq	%rdx, 40(%rsp)
	movq	$0, 32(%rsp)
	leaq	96(%rsp), %r8
	movl	$4, %edx
	xorl	%r9d, %r9d
	callq	*%rax
	movq	64(%rsp), %rdx
	addq	72(%rsp), %rdx
	movq	%rdx, 64(%rsp)
	testl	%eax, %eax
	jne	.LBB65_200
	movq	$0, 224(%rsp)
	movq	%rbx, 32(%rsp)
	leaq	80(%rsp), %rcx
	leaq	64(%rsp), %r8
	leaq	224(%rsp), %r9
	movq	%r15, %rdx
	callq	"reflect::write_type_writer"
	testl	%eax, %eax
	jne	.LBB65_173
	leaq	80(%rsp), %rcx
	leaq	64(%rsp), %r8
	movb	$93, %dl
	movq	%rbx, %r9
	callq	"io::write_byte"
	testl	%eax, %eax
	jne	.LBB65_173
	movq	%rbx, 32(%rsp)
	leaq	80(%rsp), %rcx
	leaq	64(%rsp), %r8
	leaq	384(%rsp), %r9
	jmp	.LBB65_9
.LBB65_83:
	movq	32(%rdx), %r14
	movq	48(%rdx), %r15
	movq	80(%rsp), %rax
	movq	88(%rsp), %rcx
	vmovups	".Lggv$reflect::write_type_writer$36"(%rip), %xmm0
	vmovaps	%xmm0, 96(%rsp)
	testq	%rax, %rax
	je	.LBB65_199
	movq	$0, 72(%rsp)
	movq	%rbx, 48(%rsp)
	leaq	72(%rsp), %rsi
	movq	%rsi, 40(%rsp)
	movq	$0, 32(%rsp)
	leaq	96(%rsp), %r8
	movl	$4, %edx
	xorl	%r9d, %r9d
	callq	*%rax
	movq	64(%rsp), %rdx
	addq	72(%rsp), %rdx
	movq	%rdx, 64(%rsp)
	testl	%eax, %eax
	jne	.LBB65_200
	movq	%rbx, 32(%rsp)
	leaq	80(%rsp), %rcx
	leaq	64(%rsp), %r8
	leaq	424(%rsp), %r9
	movq	%r15, %rdx
	callq	"io::write_i64"
	testl	%eax, %eax
	jne	.LBB65_173
	movq	80(%rsp), %rax
	movq	88(%rsp), %rcx
	vmovups	".Lggv$reflect::write_type_writer$77"(%rip), %xmm0
	vmovaps	%xmm0, 96(%rsp)
	testq	%rax, %rax
	je	.LBB65_236
	movq	$0, 72(%rsp)
	movq	%rbx, 48(%rsp)
	movq	%rsi, 40(%rsp)
	movq	$0, 32(%rsp)
	leaq	96(%rsp), %r8
	movl	$4, %edx
	xorl	%r9d, %r9d
	callq	*%rax
	movq	64(%rsp), %rdx
	addq	72(%rsp), %rdx
	movq	%rdx, 64(%rsp)
	testl	%eax, %eax
	jne	.LBB65_200
	movq	%rbx, 32(%rsp)
	leaq	80(%rsp), %rcx
	leaq	64(%rsp), %r8
	leaq	416(%rsp), %r9
	jmp	.LBB65_9
.LBB65_89:
	movzwl	32(%rdx), %esi
	testb	%sil, %sil
	je	.LBB65_91
	leaq	80(%rsp), %rcx
	leaq	64(%rsp), %r8
	movb	$99, %dl
	movq	%rbx, %r9
	callq	"io::write_byte"
	testl	%eax, %eax
	jne	.LBB65_173
.LBB65_91:
	movq	80(%rsp), %rax
	movq	88(%rsp), %rcx
	vmovups	".Lggv$reflect::write_type_writer$12"(%rip), %xmm0
	vmovaps	%xmm0, 96(%rsp)
	testq	%rax, %rax
	je	.LBB65_236
	movq	$0, 72(%rsp)
	movq	%rbx, 48(%rsp)
	leaq	72(%rsp), %rdi
	movq	%rdi, 40(%rsp)
	movq	$0, 32(%rsp)
	leaq	96(%rsp), %r8
	movl	$4, %edx
	xorl	%r9d, %r9d
	callq	*%rax
	movq	64(%rsp), %rdx
	addq	72(%rsp), %rdx
	movq	%rdx, 64(%rsp)
	testl	%eax, %eax
	jne	.LBB65_200
	andl	$65280, %esi
	cmpl	$256, %esi
	jne	.LBB65_171
	movq	80(%rsp), %rax
	movq	88(%rsp), %rcx
	vmovups	".Lggv$reflect::write_type_writer$13"(%rip), %xmm0
	vmovaps	%xmm0, 96(%rsp)
	testq	%rax, %rax
	je	.LBB65_300
	movq	$0, 72(%rsp)
	movq	%rbx, 48(%rsp)
	movq	%rdi, 40(%rsp)
	jmp	.LBB65_170
.LBB65_96:
	movzbl	77(%rdx), %r8d
	movq	88(%rdx), %r14
	movq	80(%rsp), %rax
	movq	88(%rsp), %rcx
	cmpl	$3, %r8d
	je	.LBB65_177
	cmpl	$2, %r8d
	je	.LBB65_174
	cmpl	$1, %r8d
	jne	.LBB65_181
	movq	80(%rdx), %rsi
	vmovups	".Lggv$reflect::write_type_writer$41"(%rip), %xmm0
	vmovaps	%xmm0, 96(%rsp)
	testq	%rax, %rax
	je	.LBB65_199
	movq	$0, 72(%rsp)
	movq	%rbx, 48(%rsp)
	leaq	72(%rsp), %rdx
	movq	%rdx, 40(%rsp)
	movq	$0, 32(%rsp)
	leaq	96(%rsp), %r8
	movl	$4, %edx
	xorl	%r9d, %r9d
	callq	*%rax
	movq	64(%rsp), %rdx
	addq	72(%rsp), %rdx
	movq	%rdx, 64(%rsp)
	testl	%eax, %eax
	jne	.LBB65_200
	movslq	%esi, %rdx
	movq	%rbx, 32(%rsp)
	leaq	80(%rsp), %rcx
	leaq	376(%rsp), %r9
	xorl	%r8d, %r8d
	callq	"io::write_i64"
	testl	%eax, %eax
	jne	.LBB65_173
	leaq	80(%rsp), %rcx
	leaq	64(%rsp), %r8
	movb	$93, %dl
	movq	%rbx, %r9
	callq	"io::write_byte"
	testl	%eax, %eax
	jne	.LBB65_173
	movq	%rbx, 32(%rsp)
	leaq	80(%rsp), %rcx
	leaq	64(%rsp), %r8
	leaq	368(%rsp), %r9
	jmp	.LBB65_180
.LBB65_104:
	movq	32(%rdx), %r14
	movq	80(%rsp), %rax
	movq	88(%rsp), %rcx
	testq	%r14, %r14
	je	.LBB65_158
	vmovups	".Lggv$reflect::write_type_writer$18"(%rip), %xmm0
	vmovaps	%xmm0, 96(%rsp)
	testq	%rax, %rax
	je	.LBB65_199
	movq	$0, 72(%rsp)
	movq	%rbx, 48(%rsp)
	leaq	72(%rsp), %rdx
	movq	%rdx, 40(%rsp)
	movq	$0, 32(%rsp)
	leaq	96(%rsp), %r8
	movl	$4, %edx
	xorl	%r9d, %r9d
	callq	*%rax
	movq	64(%rsp), %rdx
	addq	72(%rsp), %rdx
	movq	%rdx, 64(%rsp)
	testl	%eax, %eax
	jne	.LBB65_200
	movq	%rbx, 32(%rsp)
	leaq	80(%rsp), %rcx
	leaq	64(%rsp), %r8
	leaq	456(%rsp), %r9
.LBB65_9:
	movq	%r14, %rdx
	callq	"reflect::write_type_writer"
	testl	%eax, %eax
	jne	.LBB65_173
	jmp	.LBB65_171
.LBB65_108:
	movq	80(%rsp), %rax
	movq	88(%rsp), %rcx
	vmovups	".Lggv$reflect::write_type_writer$15"(%rip), %xmm0
	jmp	.LBB65_168
.LBB65_109:
	movq	%r13, %rsi
	movq	32(%rdx), %r13
	movq	40(%rdx), %r14
	movq	48(%rdx), %r12
	movq	56(%rdx), %r15
	movq	80(%rsp), %rax
	movq	88(%rsp), %rcx
	vmovups	".Lggv$reflect::write_type_writer$62"(%rip), %xmm0
	vmovaps	%xmm0, 96(%rsp)
	testq	%rax, %rax
	je	.LBB65_159
	movq	%rbp, %rdi
	movq	$0, 72(%rsp)
	movq	%rbx, 48(%rsp)
	leaq	72(%rsp), %rbp
	movq	%rbp, 40(%rsp)
	movq	$0, 32(%rsp)
	leaq	96(%rsp), %r8
	movl	$4, %edx
	xorl	%r9d, %r9d
	callq	*%rax
	movq	64(%rsp), %rdx
	addq	72(%rsp), %rdx
	movq	%rdx, 64(%rsp)
	testl	%eax, %eax
	je	.LBB65_201
.LBB65_111:
	movq	%rsi, %r13
	movq	%rdi, %rbp
	jmp	.LBB65_200
.LBB65_112:
	movq	32(%rdx), %r14
	movq	40(%rdx), %r12
	movl	72(%rdx), %edi
	movq	80(%rsp), %rax
	movq	88(%rsp), %rcx
	vmovups	".Lggv$reflect::write_type_writer$53"(%rip), %xmm0
	vmovaps	%xmm0, 96(%rsp)
	testq	%rax, %rax
	je	.LBB65_199
	movq	%rdx, %rsi
	movq	$0, 72(%rsp)
	movq	%rbx, 48(%rsp)
	leaq	72(%rsp), %r15
	movq	%r15, 40(%rsp)
	movq	$0, 32(%rsp)
	leaq	96(%rsp), %r8
	movl	$4, %edx
	xorl	%r9d, %r9d
	callq	*%rax
	movq	64(%rsp), %rdx
	addq	72(%rsp), %rdx
	movq	%rdx, 64(%rsp)
	testl	%eax, %eax
	jne	.LBB65_200
	testl	$65280, %edi
	je	.LBB65_117
	movq	80(%rsp), %rax
	movq	88(%rsp), %rcx
	vmovups	".Lggv$reflect::write_type_writer$54"(%rip), %xmm0
	vmovaps	%xmm0, 96(%rsp)
	testq	%rax, %rax
	je	.LBB65_300
	movq	$0, 72(%rsp)
	movq	%rbx, 48(%rsp)
	movq	%r15, 40(%rsp)
	movq	$0, 32(%rsp)
	leaq	96(%rsp), %r8
	movl	$4, %edx
	xorl	%r9d, %r9d
	callq	*%rax
	movq	64(%rsp), %rdx
	addq	72(%rsp), %rdx
	movq	%rdx, 64(%rsp)
	testl	%eax, %eax
	jne	.LBB65_200
.LBB65_117:
	testl	$16711680, %edi
	je	.LBB65_120
	movq	80(%rsp), %rax
	movq	88(%rsp), %rcx
	vmovups	".Lggv$reflect::write_type_writer$55"(%rip), %xmm0
	vmovaps	%xmm0, 96(%rsp)
	testq	%rax, %rax
	je	.LBB65_300
	movq	$0, 72(%rsp)
	movq	%rbx, 48(%rsp)
	movq	%r15, 40(%rsp)
	movq	$0, 32(%rsp)
	leaq	96(%rsp), %r8
	movl	$4, %edx
	xorl	%r9d, %r9d
	callq	*%rax
	movq	64(%rsp), %rdx
	addq	72(%rsp), %rdx
	movq	%rdx, 64(%rsp)
	testl	%eax, %eax
	jne	.LBB65_200
.LBB65_120:
	testb	%dil, %dil
	je	.LBB65_126
	movq	80(%rsp), %rax
	movq	88(%rsp), %rcx
	vmovups	".Lggv$reflect::write_type_writer$56"(%rip), %xmm0
	vmovaps	%xmm0, 96(%rsp)
	testq	%rax, %rax
	je	.LBB65_300
	movq	$0, 72(%rsp)
	movq	%rbx, 48(%rsp)
	movq	%r15, 40(%rsp)
	movq	$0, 32(%rsp)
	leaq	96(%rsp), %r8
	movl	$4, %edx
	xorl	%r9d, %r9d
	callq	*%rax
	movq	64(%rsp), %rdx
	addq	72(%rsp), %rdx
	movq	%rdx, 64(%rsp)
	testl	%eax, %eax
	jne	.LBB65_200
	movq	8(%rsi), %rdx
	movq	%rbx, 32(%rsp)
	leaq	80(%rsp), %rcx
	leaq	64(%rsp), %r8
	leaq	336(%rsp), %r9
	callq	"io::write_i64"
	testl	%eax, %eax
	jne	.LBB65_173
	movq	80(%rsp), %rax
	movq	88(%rsp), %rcx
	vmovups	".Lggv$reflect::write_type_writer$57"(%rip), %xmm0
	vmovaps	%xmm0, 96(%rsp)
	testq	%rax, %rax
	je	.LBB65_236
	movq	$0, 72(%rsp)
	movq	%rbx, 48(%rsp)
	movq	%r15, 40(%rsp)
	movq	$0, 32(%rsp)
	leaq	96(%rsp), %r8
	movl	$4, %edx
	xorl	%r9d, %r9d
	callq	*%rax
	movq	64(%rsp), %rdx
	addq	72(%rsp), %rdx
	movq	%rdx, 64(%rsp)
	testl	%eax, %eax
	jne	.LBB65_200
.LBB65_126:
	leaq	80(%rsp), %rcx
	leaq	64(%rsp), %r8
	movb	$123, %dl
	movq	%rbx, %r9
	callq	"io::write_byte"
	testl	%eax, %eax
	jne	.LBB65_173
	movq	%r13, 120(%rsp)
	movq	%r12, %rax
	sarq	$63, %rax
	andnq	%r12, %rax, %rdi
	negq	%rdi
	movq	$-1, %rbx
	leaq	64(%rsp), %r12
	leaq	208(%rsp), %r13
	jmp	.LBB65_281
.LBB65_128:
	movq	32(%rdx), %r14
	movq	48(%rdx), %r15
	movq	80(%rsp), %rax
	movq	88(%rsp), %rcx
	vmovups	".Lggv$reflect::write_type_writer$73"(%rip), %xmm0
	vmovaps	%xmm0, 96(%rsp)
	testq	%rax, %rax
	je	.LBB65_199
	movq	$0, 72(%rsp)
	movq	%rbx, 48(%rsp)
	leaq	72(%rsp), %rdx
	movq	%rdx, 40(%rsp)
	movq	$0, 32(%rsp)
	leaq	96(%rsp), %r8
	movl	$4, %edx
	xorl	%r9d, %r9d
	callq	*%rax
	movq	64(%rsp), %rdx
	addq	72(%rsp), %rdx
	movq	%rdx, 64(%rsp)
	testl	%eax, %eax
	jne	.LBB65_200
	movq	%rbx, 32(%rsp)
	leaq	80(%rsp), %rcx
	leaq	64(%rsp), %r8
	leaq	288(%rsp), %r9
	movq	%r15, %rdx
	callq	"io::write_i64"
	testl	%eax, %eax
	jne	.LBB65_173
	leaq	80(%rsp), %rcx
	leaq	64(%rsp), %r8
	movb	$93, %dl
	movq	%rbx, %r9
	callq	"io::write_byte"
	testl	%eax, %eax
	jne	.LBB65_173
	movq	%rbx, 32(%rsp)
	leaq	80(%rsp), %rcx
	leaq	64(%rsp), %r8
	leaq	280(%rsp), %r9
	jmp	.LBB65_9
.LBB65_133:
	movq	%r13, %rbx
	movq	32(%rdx), %r14
	movq	40(%rdx), %r13
	movq	48(%rdx), %r15
	movq	56(%rdx), %r12
	movq	80(%rdx), %rsi
	movq	80(%rsp), %rax
	movq	88(%rsp), %rcx
	vmovups	".Lggv$reflect::write_type_writer$66"(%rip), %xmm0
	vmovaps	%xmm0, 96(%rsp)
	testq	%rax, %rax
	je	.LBB65_160
	movq	$0, 72(%rsp)
	movq	608(%rsp), %rdi
	movq	%rdi, 48(%rsp)
	leaq	72(%rsp), %rdx
	movq	%rdx, 40(%rsp)
	movq	$0, 32(%rsp)
	leaq	96(%rsp), %r8
	movl	$4, %edx
	xorl	%r9d, %r9d
	callq	*%rax
	movq	64(%rsp), %rdx
	addq	72(%rsp), %rdx
	movq	%rdx, 64(%rsp)
	testl	%eax, %eax
	je	.LBB65_215
.LBB65_135:
	movq	%rbx, %r13
	jmp	.LBB65_200
.LBB65_136:
	xorl	%edx, %edx
.LBB65_137:
	movq	80(%rsp), %rax
	movq	88(%rsp), %rcx
	vmovups	".Lggv$reflect::write_type_writer$75"(%rip), %xmm0
	vmovaps	%xmm0, 96(%rsp)
	testq	%rax, %rax
	je	.LBB65_300
	movq	$0, 72(%rsp)
	movq	%rbx, 48(%rsp)
	leaq	72(%rsp), %rsi
	movq	%rsi, 40(%rsp)
	movq	$0, 32(%rsp)
	leaq	96(%rsp), %r8
	movl	$4, %edx
	xorl	%r9d, %r9d
	callq	*%rax
	movq	64(%rsp), %rdx
	addq	72(%rsp), %rdx
	movq	%rdx, 64(%rsp)
	testl	%eax, %eax
	jne	.LBB65_200
	movq	%rbx, 32(%rsp)
	leaq	80(%rsp), %rcx
	leaq	64(%rsp), %r8
	leaq	272(%rsp), %r9
	movq	%r12, %rdx
	callq	"io::write_i64"
	testl	%eax, %eax
	jne	.LBB65_173
	movq	80(%rsp), %rax
	movq	88(%rsp), %rcx
	vmovups	".Lggv$fmt::fmt_value$11"(%rip), %xmm0
	vmovaps	%xmm0, 96(%rsp)
	testq	%rax, %rax
	je	.LBB65_236
	movq	$0, 72(%rsp)
	movq	%rbx, 48(%rsp)
	movq	%rsi, 40(%rsp)
	movq	$0, 32(%rsp)
	leaq	96(%rsp), %r8
	movl	$4, %edx
	xorl	%r9d, %r9d
	callq	*%rax
	movq	64(%rsp), %rdx
	addq	72(%rsp), %rdx
	movq	%rdx, 64(%rsp)
	testl	%eax, %eax
	jne	.LBB65_200
	movq	%rbx, 32(%rsp)
	leaq	80(%rsp), %rcx
	leaq	64(%rsp), %r8
	leaq	264(%rsp), %r9
	movq	%r15, %rdx
	callq	"io::write_i64"
	testl	%eax, %eax
	jne	.LBB65_173
	movq	80(%rsp), %rax
	movq	88(%rsp), %rcx
	vmovups	".Lggv$reflect::write_type_writer$77"(%rip), %xmm0
	vmovaps	%xmm0, 96(%rsp)
	testq	%rax, %rax
	je	.LBB65_236
	movq	$0, 72(%rsp)
	movq	%rbx, %rdi
	movq	%rbx, 48(%rsp)
	movq	%rsi, 40(%rsp)
	movq	$0, 32(%rsp)
	leaq	96(%rsp), %r8
	movl	$4, %edx
	xorl	%r9d, %r9d
	callq	*%rax
	movq	64(%rsp), %rdx
	addq	72(%rsp), %rdx
	movq	%rdx, 64(%rsp)
	testl	%eax, %eax
	jne	.LBB65_200
	movq	%rdi, 32(%rsp)
	leaq	80(%rsp), %rcx
	leaq	64(%rsp), %r8
	leaq	256(%rsp), %r9
	jmp	.LBB65_9
.LBB65_146:
	movq	%rdx, %rsi
	leaq	80(%rsp), %rcx
	leaq	64(%rsp), %r8
	movb	$98, %dl
	movq	%rbx, %r9
	callq	"io::write_byte"
	testl	%eax, %eax
	jne	.LBB65_173
	movq	(%rsi), %rdx
	shlq	$3, %rdx
	movq	%rbx, 32(%rsp)
	leaq	80(%rsp), %rcx
	leaq	64(%rsp), %r8
	leaq	464(%rsp), %r9
.LBB65_19:
	callq	"io::write_i64"
	testl	%eax, %eax
	jne	.LBB65_173
	jmp	.LBB65_171
.LBB65_148:
	movq	80(%rsp), %rax
	movq	88(%rsp), %rcx
	vmovups	".Lggv$reflect::write_type_writer$28"(%rip), %xmm0
	vmovaps	%xmm0, 96(%rsp)
	testq	%rax, %rax
	je	.LBB65_232
	movq	$0, 72(%rsp)
	movq	%rbx, 48(%rsp)
	leaq	72(%rsp), %rdx
	movq	%rdx, 40(%rsp)
	movq	$0, 32(%rsp)
	leaq	96(%rsp), %r8
	movl	$4, %edx
	xorl	%r9d, %r9d
	callq	*%rax
	movq	64(%rsp), %rdx
	addq	72(%rsp), %rdx
	movq	%rdx, 64(%rsp)
	testl	%eax, %eax
	je	.LBB65_51
	movq	128(%rsp), %rbp
	jmp	.LBB65_200
.LBB65_151:
	xorl	%edx, %edx
.LBB65_152:
	movq	80(%rsp), %rax
	movq	88(%rsp), %rcx
	vmovups	".Lggv$reflect::write_type_writer$36"(%rip), %xmm0
	vmovaps	%xmm0, 96(%rsp)
	testq	%rax, %rax
	je	.LBB65_300
	movq	$0, 72(%rsp)
	movq	%rbx, 48(%rsp)
	leaq	72(%rsp), %rsi
	movq	%rsi, 40(%rsp)
	movq	$0, 32(%rsp)
	leaq	96(%rsp), %r8
	movl	$4, %edx
	xorl	%r9d, %r9d
	callq	*%rax
	movq	64(%rsp), %rdx
	addq	72(%rsp), %rdx
	movq	%rdx, 64(%rsp)
	testl	%eax, %eax
	jne	.LBB65_200
	movq	$0, 232(%rsp)
	movq	%rbx, 32(%rsp)
	leaq	80(%rsp), %rcx
	leaq	64(%rsp), %r8
	leaq	232(%rsp), %r9
	movq	%r15, %rdx
	callq	"reflect::write_type_writer"
	testl	%eax, %eax
	jne	.LBB65_173
	movq	80(%rsp), %rax
	movq	88(%rsp), %rcx
	vmovups	".Lggv$reflect::write_type_writer$77"(%rip), %xmm0
	vmovaps	%xmm0, 96(%rsp)
	testq	%rax, %rax
	je	.LBB65_236
	movq	$0, 72(%rsp)
	movq	%rbx, 48(%rsp)
	movq	%rsi, 40(%rsp)
	movq	$0, 32(%rsp)
	leaq	96(%rsp), %r8
	movl	$4, %edx
	xorl	%r9d, %r9d
	callq	*%rax
	movq	64(%rsp), %rdx
	addq	72(%rsp), %rdx
	movq	%rdx, 64(%rsp)
	testl	%eax, %eax
	jne	.LBB65_200
	movq	%rbx, 32(%rsp)
	leaq	80(%rsp), %rcx
	leaq	64(%rsp), %r8
	leaq	408(%rsp), %r9
	jmp	.LBB65_9
.LBB65_158:
	vmovups	".Lggv$reflect::write_type_writer$17"(%rip), %xmm0
	jmp	.LBB65_168
.LBB65_159:
	movl	$-1, %eax
	xorl	%edx, %edx
	movq	%rsi, %r13
	jmp	.LBB65_200
.LBB65_160:
	movl	$-1, %eax
	xorl	%edx, %edx
	movq	%rbx, %r13
	jmp	.LBB65_200
.LBB65_161:
	movq	$0, 248(%rsp)
	movq	608(%rsp), %rax
	movq	%rax, 32(%rsp)
	leaq	80(%rsp), %rcx
	movq	%r15, %rdx
	movq	%r13, %r8
	movq	%rbp, %r9
	callq	"reflect::write_type_writer"
	incq	%rdi
	testl	%eax, %eax
	jne	.LBB65_269
.LBB65_162:
	leaq	(%rbx,%rdi), %rax
	cmpq	$-1, %rax
	je	.LBB65_266
	movq	8(%rsi,%rdi,8), %r15
	movabsq	$9223372036854775807, %rax
	cmpq	%rax, %rdi
	jae	.LBB65_161
	movq	80(%rsp), %rax
	movq	88(%rsp), %rcx
	vmovups	".Lggv$fmt::fmt_value$11"(%rip), %xmm0
	vmovaps	%xmm0, 96(%rsp)
	testq	%rax, %rax
	je	.LBB65_268
	movq	$0, 72(%rsp)
	movq	608(%rsp), %rdx
	movq	%rdx, 48(%rsp)
	movq	%r12, 40(%rsp)
	movq	$0, 32(%rsp)
	movl	$4, %edx
	leaq	96(%rsp), %r8
	xorl	%r9d, %r9d
	callq	*%rax
	movq	64(%rsp), %rdx
	addq	72(%rsp), %rdx
	movq	%rdx, 64(%rsp)
	testl	%eax, %eax
	je	.LBB65_161
	jmp	.LBB65_270
.LBB65_166:
	movq	80(%rsp), %rax
	movq	88(%rsp), %rcx
	vmovups	".Lggv$reflect::write_type_writer$4"(%rip), %xmm0
	jmp	.LBB65_168
.LBB65_167:
	movq	80(%rsp), %rax
	movq	88(%rsp), %rcx
	vmovups	".Lggv$reflect::write_type_writer$3"(%rip), %xmm0
.LBB65_168:
	vmovaps	%xmm0, 96(%rsp)
	testq	%rax, %rax
	je	.LBB65_199
.LBB65_169:
	movq	$0, 72(%rsp)
	movq	%rbx, 48(%rsp)
	leaq	72(%rsp), %rdx
	movq	%rdx, 40(%rsp)
.LBB65_170:
	movq	$0, 32(%rsp)
	leaq	96(%rsp), %r8
	movl	$4, %edx
	xorl	%r9d, %r9d
	callq	*%rax
	movq	64(%rsp), %rdx
	addq	72(%rsp), %rdx
	movq	%rdx, 64(%rsp)
	testl	%eax, %eax
	jne	.LBB65_200
.LBB65_171:
	xorl	%eax, %eax
	movq	64(%rsp), %rdx
	jmp	.LBB65_200
.LBB65_172:
	movq	%rdx, %rdi
	movzwl	32(%rdx), %esi
	testb	%sil, %sil
	movl	$117, %eax
	movl	$105, %edx
	cmovel	%eax, %edx
	leaq	80(%rsp), %rcx
	leaq	64(%rsp), %r8
	movq	%rbx, %r9
	callq	"io::write_byte"
	testl	%eax, %eax
	jne	.LBB65_173
	movq	(%rdi), %rdx
	shlq	$3, %rdx
	movq	%rbx, 32(%rsp)
	leaq	80(%rsp), %rcx
	leaq	64(%rsp), %r8
	leaq	496(%rsp), %r9
	callq	"io::write_i64"
	testl	%eax, %eax
	je	.LBB65_238
.LBB65_173:
	movq	64(%rsp), %rdx
	jmp	.LBB65_200
.LBB65_174:
	vmovups	".Lggv$reflect::write_type_writer$42"(%rip), %xmm0
	vmovaps	%xmm0, 96(%rsp)
	testq	%rax, %rax
	je	.LBB65_199
	movq	$0, 72(%rsp)
	movq	%rbx, 48(%rsp)
	leaq	72(%rsp), %rdx
	movq	%rdx, 40(%rsp)
	movq	$0, 32(%rsp)
	leaq	96(%rsp), %r8
	movl	$4, %edx
	xorl	%r9d, %r9d
	callq	*%rax
	movq	64(%rsp), %rdx
	addq	72(%rsp), %rdx
	movq	%rdx, 64(%rsp)
	testl	%eax, %eax
	jne	.LBB65_200
	movq	%rbx, 32(%rsp)
	leaq	80(%rsp), %rcx
	leaq	64(%rsp), %r8
	leaq	360(%rsp), %r9
	jmp	.LBB65_180
.LBB65_177:
	vmovups	".Lggv$reflect::write_type_writer$43"(%rip), %xmm0
	vmovaps	%xmm0, 96(%rsp)
	testq	%rax, %rax
	je	.LBB65_199
	movq	$0, 72(%rsp)
	movq	%rbx, 48(%rsp)
	leaq	72(%rsp), %rdx
	movq	%rdx, 40(%rsp)
	movq	$0, 32(%rsp)
	leaq	96(%rsp), %r8
	movl	$4, %edx
	xorl	%r9d, %r9d
	callq	*%rax
	movq	64(%rsp), %rdx
	addq	72(%rsp), %rdx
	movq	%rdx, 64(%rsp)
	testl	%eax, %eax
	jne	.LBB65_200
	movq	%rbx, 32(%rsp)
	leaq	80(%rsp), %rcx
	leaq	64(%rsp), %r8
	leaq	352(%rsp), %r9
.LBB65_180:
	movq	%r14, %rdx
	callq	"reflect::write_type_writer"
	movq	64(%rsp), %rdx
	jmp	.LBB65_200
.LBB65_181:
	movq	32(%rdx), %r15
	movq	40(%rdx), %r12
	movslq	72(%rdx), %rsi
	movzbl	76(%rdx), %ebx
	vmovups	".Lggv$reflect::write_type_writer$44"(%rip), %xmm0
	vmovaps	%xmm0, 96(%rsp)
	testq	%rax, %rax
	je	.LBB65_199
	movq	%rdx, %r14
	movq	$0, 72(%rsp)
	movq	608(%rsp), %rdx
	movq	%rdx, 48(%rsp)
	leaq	72(%rsp), %rdi
	movq	%rdi, 40(%rsp)
	movq	$0, 32(%rsp)
	leaq	96(%rsp), %r8
	movl	$4, %edx
	xorl	%r9d, %r9d
	callq	*%rax
	movq	64(%rsp), %rdx
	addq	72(%rsp), %rdx
	movq	%rdx, 64(%rsp)
	testl	%eax, %eax
	jne	.LBB65_200
	testb	$1, %bl
	jne	.LBB65_262
.LBB65_184:
	testb	$2, %bl
	jne	.LBB65_264
.LBB65_185:
	testb	$4, %bl
	jne	.LBB65_272
.LBB65_186:
	testb	$8, %bl
	jne	.LBB65_274
.LBB65_187:
	leaq	80(%rsp), %rcx
	leaq	64(%rsp), %r8
	movb	$123, %dl
	movq	608(%rsp), %r9
	callq	"io::write_byte"
	testl	%eax, %eax
	jne	.LBB65_173
	testl	%esi, %esi
	js	.LBB65_305
	negq	%rsi
	addq	$8, %r12
	movq	$-1, %rdi
.LBB65_190:
	leaq	(%rsi,%rdi), %rax
	cmpq	$-1, %rax
	je	.LBB65_279
	movq	-8(%r12), %rbx
	movq	(%r12), %r14
	movabsq	$9223372036854775807, %rax
	cmpq	%rax, %rdi
	jae	.LBB65_194
	movq	80(%rsp), %rax
	movq	88(%rsp), %rcx
	vmovups	".Lggv$fmt::fmt_value$11"(%rip), %xmm0
	vmovaps	%xmm0, 96(%rsp)
	testq	%rax, %rax
	je	.LBB65_236
	movq	$0, 72(%rsp)
	movq	608(%rsp), %rdx
	movq	%rdx, 48(%rsp)
	leaq	72(%rsp), %rdx
	movq	%rdx, 40(%rsp)
	movq	$0, 32(%rsp)
	movl	$4, %edx
	leaq	96(%rsp), %r8
	xorl	%r9d, %r9d
	callq	*%rax
	movq	64(%rsp), %rdx
	addq	72(%rsp), %rdx
	movq	%rdx, 64(%rsp)
	testl	%eax, %eax
	jne	.LBB65_200
.LBB65_194:
	movq	80(%rsp), %rax
	movq	88(%rsp), %rcx
	movq	%rbx, 96(%rsp)
	movq	%r14, 104(%rsp)
	testq	%rax, %rax
	je	.LBB65_236
	movq	$0, 72(%rsp)
	movq	608(%rsp), %rbx
	movq	%rbx, 48(%rsp)
	leaq	72(%rsp), %rdx
	movq	%rdx, 40(%rsp)
	movq	$0, 32(%rsp)
	movl	$4, %edx
	leaq	96(%rsp), %r8
	xorl	%r9d, %r9d
	callq	*%rax
	movq	64(%rsp), %rdx
	addq	72(%rsp), %rdx
	movq	%rdx, 64(%rsp)
	testl	%eax, %eax
	jne	.LBB65_200
	movq	80(%rsp), %rax
	movq	88(%rsp), %rcx
	vmovups	".Lggv$reflect::write_type_writer$70"(%rip), %xmm0
	vmovaps	%xmm0, 96(%rsp)
	testq	%rax, %rax
	je	.LBB65_300
	movq	$0, 72(%rsp)
	movq	%rbx, 48(%rsp)
	leaq	72(%rsp), %rdx
	movq	%rdx, 40(%rsp)
	movq	$0, 32(%rsp)
	movl	$4, %edx
	leaq	96(%rsp), %r8
	xorl	%r9d, %r9d
	callq	*%rax
	movq	64(%rsp), %rdx
	addq	72(%rsp), %rdx
	movq	%rdx, 64(%rsp)
	testl	%eax, %eax
	jne	.LBB65_200
	movq	8(%r15,%rdi,8), %rdx
	movq	$0, 216(%rsp)
	movq	%rbx, 32(%rsp)
	leaq	80(%rsp), %rcx
	leaq	64(%rsp), %r8
	leaq	216(%rsp), %r9
	callq	"reflect::write_type_writer"
	addq	$16, %r12
	incq	%rdi
	testl	%eax, %eax
	je	.LBB65_190
	jmp	.LBB65_173
.LBB65_199:
	movl	$-1, %eax
	xorl	%edx, %edx
.LBB65_200:
	movq	%rdx, (%rbp)
	addq	%rdx, (%r13)
	addq	$504, %rsp
	popq	%rbx
	popq	%rbp
	popq	%rdi
	popq	%rsi
	popq	%r12
	popq	%r13
	popq	%r14
	popq	%r15
	retq
.LBB65_201:
	testq	%r13, %r13
	je	.LBB65_252
	movq	104(%r13), %rax
	cmpq	$21, %rax
	je	.LBB65_207
	cmpq	$1, %rax
	jne	.LBB65_247
	movq	%r13, %rcx
.LBB65_205:
	movq	48(%rcx), %rcx
	movq	104(%rcx), %rdx
	cmpq	$1, %rdx
	je	.LBB65_205
	cmpq	$21, %rdx
	jne	.LBB65_213
.LBB65_207:
	movq	$0, 192(%rsp)
	movq	%rbx, 32(%rsp)
	leaq	80(%rsp), %rcx
	leaq	64(%rsp), %r8
	leaq	192(%rsp), %r9
	movq	%r13, %rdx
	callq	"reflect::write_type_writer"
	testl	%eax, %eax
	movq	%rsi, %r13
	jne	.LBB65_288
.LBB65_208:
	testq	%r14, %r14
	je	.LBB65_212
	movq	80(%rsp), %rax
	movq	88(%rsp), %rcx
	vmovups	".Lggv$reflect::write_type_writer$65"(%rip), %xmm0
	vmovaps	%xmm0, 96(%rsp)
	testq	%rax, %rax
	je	.LBB65_258
	movq	$0, 72(%rsp)
	movq	%rbx, 48(%rsp)
	movq	%rbp, 40(%rsp)
	movq	$0, 32(%rsp)
	leaq	96(%rsp), %r8
	movl	$4, %edx
	xorl	%r9d, %r9d
	callq	*%rax
	movq	64(%rsp), %rdx
	addq	72(%rsp), %rdx
	movq	%rdx, 64(%rsp)
	testl	%eax, %eax
	jne	.LBB65_251
	movq	$0, 184(%rsp)
	movq	%rbx, 32(%rsp)
	leaq	80(%rsp), %rcx
	leaq	64(%rsp), %r8
	leaq	184(%rsp), %r9
	movq	%r14, %rdx
	callq	"reflect::write_type_writer"
	testl	%eax, %eax
	jne	.LBB65_288
.LBB65_212:
	leaq	80(%rsp), %rcx
	leaq	64(%rsp), %r8
	movb	$93, %dl
	movq	%rbx, %r9
	callq	"io::write_byte"
	testl	%eax, %eax
	movq	%rdi, %rbp
	jne	.LBB65_173
	jmp	.LBB65_171
.LBB65_213:
	cmpq	$1, %rax
	jne	.LBB65_247
	movq	48(%r13), %r13
	movq	104(%r13), %rax
	jmp	.LBB65_213
.LBB65_215:
	movq	$0, 176(%rsp)
	movq	%rdi, 32(%rsp)
	leaq	80(%rsp), %rcx
	leaq	64(%rsp), %r8
	leaq	176(%rsp), %r9
	movq	%r14, %rdx
	callq	"reflect::write_type_writer"
	testl	%eax, %eax
	jne	.LBB65_296
	movq	80(%rsp), %rax
	movq	88(%rsp), %rcx
	vmovups	".Lggv$reflect::write_type_writer$67"(%rip), %xmm0
	vmovaps	%xmm0, 96(%rsp)
	testq	%rax, %rax
	je	.LBB65_295
	movq	$0, 72(%rsp)
	movq	608(%rsp), %rdx
	movq	%rdx, 48(%rsp)
	leaq	72(%rsp), %rdi
	movq	%rdi, 40(%rsp)
	movq	$0, 32(%rsp)
	leaq	96(%rsp), %r8
	movl	$4, %edx
	xorl	%r9d, %r9d
	callq	*%rax
	movq	64(%rsp), %rdx
	addq	72(%rsp), %rdx
	movq	%rdx, 64(%rsp)
	testl	%eax, %eax
	jne	.LBB65_135
	testq	%rsi, %rsi
	js	.LBB65_303
	negq	%rsi
	addq	$8, %r13
	movq	$-1, %r14
.LBB65_220:
	leaq	(%rsi,%r14), %rax
	cmpq	$-1, %rax
	je	.LBB65_293
	movq	-8(%r13), %r8
	movq	(%r13), %r9
	movabsq	$9223372036854775807, %rax
	cmpq	%rax, %r14
	jae	.LBB65_224
	movq	%r9, 128(%rsp)
	movq	%r8, 144(%rsp)
	movq	80(%rsp), %rax
	movq	88(%rsp), %rcx
	vmovups	".Lggv$fmt::fmt_value$11"(%rip), %xmm0
	vmovaps	%xmm0, 96(%rsp)
	testq	%rax, %rax
	je	.LBB65_295
	movq	$0, 72(%rsp)
	movq	608(%rsp), %rdx
	movq	%rdx, 48(%rsp)
	movq	%rdi, 40(%rsp)
	movq	$0, 32(%rsp)
	movl	$4, %edx
	leaq	96(%rsp), %r8
	xorl	%r9d, %r9d
	callq	*%rax
	movq	64(%rsp), %rdx
	addq	72(%rsp), %rdx
	movq	%rdx, 64(%rsp)
	testl	%eax, %eax
	movq	144(%rsp), %r8
	movq	128(%rsp), %r9
	jne	.LBB65_135
.LBB65_224:
	movq	80(%rsp), %rax
	movq	88(%rsp), %rcx
	movq	%r8, 96(%rsp)
	movq	%r9, 104(%rsp)
	testq	%rax, %rax
	je	.LBB65_295
	movq	$0, 72(%rsp)
	movq	608(%rsp), %rdx
	movq	%rdx, 48(%rsp)
	movq	%rdi, 40(%rsp)
	movq	$0, 32(%rsp)
	movl	$4, %edx
	leaq	96(%rsp), %r8
	xorl	%r9d, %r9d
	callq	*%rax
	movq	64(%rsp), %rdx
	addq	72(%rsp), %rdx
	movq	%rdx, 64(%rsp)
	testl	%eax, %eax
	jne	.LBB65_135
	movq	80(%rsp), %rax
	movq	88(%rsp), %rcx
	vmovups	".Lggv$reflect::write_type_writer$70"(%rip), %xmm0
	vmovaps	%xmm0, 96(%rsp)
	testq	%rax, %rax
	je	.LBB65_297
	movq	$0, 72(%rsp)
	movq	608(%rsp), %rdi
	movq	%rdi, 48(%rsp)
	leaq	72(%rsp), %rdx
	movq	%rdx, 40(%rsp)
	movq	$0, 32(%rsp)
	movl	$4, %edx
	leaq	96(%rsp), %r8
	xorl	%r9d, %r9d
	callq	*%rax
	movq	64(%rsp), %rdx
	addq	72(%rsp), %rdx
	movq	%rdx, 64(%rsp)
	testl	%eax, %eax
	jne	.LBB65_135
	movq	8(%r15,%r14,8), %rdx
	movq	$0, 168(%rsp)
	movq	%rdi, 32(%rsp)
	leaq	80(%rsp), %rcx
	leaq	64(%rsp), %r8
	leaq	168(%rsp), %r9
	callq	"reflect::write_type_writer"
	testl	%eax, %eax
	jne	.LBB65_296
	movq	80(%rsp), %rax
	movq	88(%rsp), %rcx
	vmovups	".Lggv$reflect::write_type_writer$71"(%rip), %xmm0
	vmovaps	%xmm0, 96(%rsp)
	testq	%rax, %rax
	je	.LBB65_295
	movq	$0, 72(%rsp)
	movq	608(%rsp), %rdi
	movq	%rdi, 48(%rsp)
	leaq	72(%rsp), %rdx
	movq	%rdx, 40(%rsp)
	movq	$0, 32(%rsp)
	movl	$4, %edx
	leaq	96(%rsp), %r8
	xorl	%r9d, %r9d
	callq	*%rax
	movq	64(%rsp), %rdx
	addq	72(%rsp), %rdx
	movq	%rdx, 64(%rsp)
	testl	%eax, %eax
	jne	.LBB65_135
	movq	8(%r12,%r14,8), %rdx
	movq	%rdi, 32(%rsp)
	leaq	80(%rsp), %rcx
	leaq	64(%rsp), %r8
	leaq	296(%rsp), %r9
	callq	"io::write_u64"
	addq	$16, %r13
	incq	%r14
	testl	%eax, %eax
	leaq	72(%rsp), %rdi
	je	.LBB65_220
	jmp	.LBB65_296
.LBB65_232:
	movl	$-1, %eax
	xorl	%edx, %edx
	movq	128(%rsp), %rbp
	jmp	.LBB65_200
.LBB65_233:
	cmpq	$1, 160(%rsp)
	movq	120(%rsp), %r13
	movq	128(%rsp), %rbp
	je	.LBB65_171
	movq	80(%rsp), %rax
	movq	88(%rsp), %rcx
	vmovups	".Lggv$fmt::fmt_enum$3"(%rip), %xmm0
.LBB65_235:
	vmovaps	%xmm0, 96(%rsp)
	testq	%rax, %rax
	jne	.LBB65_169
	jmp	.LBB65_236
.LBB65_280:
	movq	$0, 208(%rsp)
	movq	608(%rsp), %rax
	movq	%rax, 32(%rsp)
	leaq	80(%rsp), %rcx
	movq	%rbp, %rdx
	movq	%r12, %r8
	movq	%r13, %r9
	callq	"reflect::write_type_writer"
	incq	%rbx
	testl	%eax, %eax
	movq	%rsi, %rbp
	jne	.LBB65_290
.LBB65_281:
	leaq	(%rdi,%rbx), %rax
	cmpq	$-1, %rax
	je	.LBB65_289
	movq	%rbp, %rsi
	movq	8(%r14,%rbx,8), %rbp
	movabsq	$9223372036854775807, %rax
	cmpq	%rax, %rbx
	jae	.LBB65_280
	movq	80(%rsp), %rax
	movq	88(%rsp), %rcx
	vmovups	".Lggv$fmt::fmt_value$11"(%rip), %xmm0
	vmovaps	%xmm0, 96(%rsp)
	testq	%rax, %rax
	je	.LBB65_298
	movq	$0, 72(%rsp)
	movq	608(%rsp), %rdx
	movq	%rdx, 48(%rsp)
	movq	%r15, 40(%rsp)
	movq	$0, 32(%rsp)
	movl	$4, %edx
	leaq	96(%rsp), %r8
	xorl	%r9d, %r9d
	callq	*%rax
	movq	64(%rsp), %rdx
	addq	72(%rsp), %rdx
	movq	%rdx, 64(%rsp)
	testl	%eax, %eax
	je	.LBB65_280
	jmp	.LBB65_285
.LBB65_241:
	movq	80(%rsp), %rax
	movq	88(%rsp), %rcx
	vmovups	".Lggv$reflect::write_type_writer$22"(%rip), %xmm0
	vmovaps	%xmm0, 96(%rsp)
	testq	%rax, %rax
	je	.LBB65_300
	movq	$0, 72(%rsp)
	movq	%rbx, 48(%rsp)
	movq	%r12, 40(%rsp)
	movq	$0, 32(%rsp)
	leaq	96(%rsp), %r8
	movl	$4, %edx
	xorl	%r9d, %r9d
	callq	*%rax
	movq	64(%rsp), %rdx
	addq	72(%rsp), %rdx
	movq	%rdx, 64(%rsp)
	testl	%eax, %eax
	jne	.LBB65_200
.LBB65_243:
	testq	%r14, %r14
	je	.LBB65_171
	movq	80(%rsp), %rax
	movq	88(%rsp), %rcx
	vmovups	".Lggv$reflect::write_type_writer$27"(%rip), %xmm0
	vmovaps	%xmm0, 96(%rsp)
	testq	%rax, %rax
	je	.LBB65_300
	movq	$0, 72(%rsp)
	movq	%rbx, 48(%rsp)
	movq	%r12, 40(%rsp)
	movq	$0, 32(%rsp)
	leaq	96(%rsp), %r8
	movl	$4, %edx
	xorl	%r9d, %r9d
	callq	*%rax
	movq	64(%rsp), %rdx
	addq	72(%rsp), %rdx
	movq	%rdx, 64(%rsp)
	testl	%eax, %eax
	jne	.LBB65_200
	movq	%rbx, 32(%rsp)
	leaq	80(%rsp), %rcx
	leaq	64(%rsp), %r8
	leaq	432(%rsp), %r9
	jmp	.LBB65_9
.LBB65_247:
	cmpq	$3, %rax
	jne	.LBB65_252
	movq	%rbx, 40(%rsp)
	leaq	328(%rsp), %rax
	movq	%rax, 32(%rsp)
	leaq	80(%rsp), %rcx
	leaq	64(%rsp), %r9
	movl	%r12d, %edx
	movb	$1, %r8b
	callq	"io::write_encoded_rune"
	testl	%eax, %eax
	movq	%rsi, %r13
	jne	.LBB65_288
	movq	80(%rsp), %rax
	movq	88(%rsp), %rcx
	vmovups	".Lggv$reflect::write_type_writer$64"(%rip), %xmm0
	vmovaps	%xmm0, 96(%rsp)
	testq	%rax, %rax
	je	.LBB65_258
	movq	$0, 72(%rsp)
	movq	%rbx, 48(%rsp)
	movq	%rbp, 40(%rsp)
	movq	$0, 32(%rsp)
	leaq	96(%rsp), %r8
	movl	$4, %edx
	xorl	%r9d, %r9d
	callq	*%rax
	movq	64(%rsp), %rdx
	addq	72(%rsp), %rdx
	movq	%rdx, 64(%rsp)
	testl	%eax, %eax
	jne	.LBB65_251
	movq	%rbx, 40(%rsp)
	leaq	320(%rsp), %rax
	movq	%rax, 32(%rsp)
	leaq	80(%rsp), %rcx
	leaq	64(%rsp), %r9
	movl	%r15d, %edx
	movb	$1, %r8b
	callq	"io::write_encoded_rune"
	jmp	.LBB65_287
.LBB65_252:
	movq	%rbx, 32(%rsp)
	leaq	80(%rsp), %rcx
	leaq	64(%rsp), %r8
	leaq	312(%rsp), %r9
	movq	%r12, %rdx
	callq	"io::write_i64"
	testl	%eax, %eax
	je	.LBB65_255
	movq	64(%rsp), %rdx
	jmp	.LBB65_111
.LBB65_254:
	movl	$-1, %eax
	jmp	.LBB65_270
.LBB65_255:
	movq	80(%rsp), %rax
	movq	88(%rsp), %rcx
	vmovups	".Lggv$reflect::write_type_writer$64"(%rip), %xmm0
	vmovaps	%xmm0, 96(%rsp)
	testq	%rax, %rax
	movq	%rsi, %r13
	je	.LBB65_258
	movq	$0, 72(%rsp)
	movq	%rbx, 48(%rsp)
	movq	%rbp, 40(%rsp)
	movq	$0, 32(%rsp)
	leaq	96(%rsp), %r8
	movl	$4, %edx
	xorl	%r9d, %r9d
	callq	*%rax
	movq	64(%rsp), %rdx
	addq	72(%rsp), %rdx
	movq	%rdx, 64(%rsp)
	testl	%eax, %eax
	je	.LBB65_257
.LBB65_251:
	movq	%rdi, %rbp
	jmp	.LBB65_200
.LBB65_238:
	shrl	$8, %esi
	cmpb	$2, %sil
	je	.LBB65_271
	movzbl	%sil, %eax
	cmpl	$1, %eax
	jne	.LBB65_171
	movq	80(%rsp), %rax
	movq	88(%rsp), %rcx
	vmovups	".Lggv$reflect::write_type_writer$8"(%rip), %xmm0
	jmp	.LBB65_235
.LBB65_258:
	movl	$-1, %eax
	jmp	.LBB65_288
.LBB65_259:
	movq	80(%rsp), %rax
	movq	88(%rsp), %rcx
	vmovups	".Lggv$reflect::write_type_writer$9"(%rip), %xmm0
.LBB65_260:
	vmovaps	%xmm0, 96(%rsp)
	testq	%rax, %rax
	je	.LBB65_236
	movq	$0, 72(%rsp)
	movq	%r14, 48(%rsp)
	movq	%rsi, 40(%rsp)
	jmp	.LBB65_170
.LBB65_262:
	movq	80(%rsp), %rax
	movq	88(%rsp), %rcx
	vmovups	".Lggv$reflect::write_type_writer$45"(%rip), %xmm0
	vmovaps	%xmm0, 96(%rsp)
	testq	%rax, %rax
	je	.LBB65_300
	movq	$0, 72(%rsp)
	movq	608(%rsp), %rdx
	movq	%rdx, 48(%rsp)
	movq	%rdi, 40(%rsp)
	movq	$0, 32(%rsp)
	leaq	96(%rsp), %r8
	movl	$4, %edx
	xorl	%r9d, %r9d
	callq	*%rax
	movq	64(%rsp), %rdx
	addq	72(%rsp), %rdx
	movq	%rdx, 64(%rsp)
	testl	%eax, %eax
	jne	.LBB65_200
	jmp	.LBB65_184
.LBB65_264:
	movq	80(%rsp), %rax
	movq	88(%rsp), %rcx
	vmovups	".Lggv$reflect::write_type_writer$46"(%rip), %xmm0
	vmovaps	%xmm0, 96(%rsp)
	testq	%rax, %rax
	je	.LBB65_300
	movq	$0, 72(%rsp)
	movq	608(%rsp), %rdx
	movq	%rdx, 48(%rsp)
	movq	%rdi, 40(%rsp)
	movq	$0, 32(%rsp)
	leaq	96(%rsp), %r8
	movl	$4, %edx
	xorl	%r9d, %r9d
	callq	*%rax
	movq	64(%rsp), %rdx
	addq	72(%rsp), %rdx
	movq	%rdx, 64(%rsp)
	testl	%eax, %eax
	jne	.LBB65_200
	jmp	.LBB65_185
.LBB65_266:
	movq	80(%rsp), %rax
	movq	88(%rsp), %rcx
	vmovups	".Lggv$fmt::fmt_enum$3"(%rip), %xmm0
	vmovaps	%xmm0, 96(%rsp)
	testq	%rax, %rax
	je	.LBB65_268
	movq	$0, 72(%rsp)
	movq	608(%rsp), %rbx
	movq	%rbx, 48(%rsp)
	movq	%r12, 40(%rsp)
	movq	$0, 32(%rsp)
	leaq	96(%rsp), %r8
	movl	$4, %edx
	xorl	%r9d, %r9d
	callq	*%rax
	movq	64(%rsp), %rdx
	addq	72(%rsp), %rdx
	movq	%rdx, 64(%rsp)
	testl	%eax, %eax
	movq	120(%rsp), %r13
	movq	128(%rsp), %rbp
	jne	.LBB65_200
	jmp	.LBB65_243
.LBB65_268:
	movl	$-1, %eax
.LBB65_269:
	movq	64(%rsp), %rdx
.LBB65_270:
	movq	120(%rsp), %r13
	movq	128(%rsp), %rbp
	jmp	.LBB65_200
.LBB65_271:
	movq	80(%rsp), %rax
	movq	88(%rsp), %rcx
	vmovups	".Lggv$reflect::write_type_writer$9"(%rip), %xmm0
	jmp	.LBB65_235
.LBB65_272:
	movq	80(%rsp), %rax
	movq	88(%rsp), %rcx
